ARM GAS  C:\Users\RECEPC~1\AppData\Local\Temp\cctZPkat.s 			page 1


   1              		.syntax unified
   2              		.cpu cortex-m3
   3              		.fpu softvfp
   4              		.eabi_attribute 20, 1
   5              		.eabi_attribute 21, 1
   6              		.eabi_attribute 23, 3
   7              		.eabi_attribute 24, 1
   8              		.eabi_attribute 25, 1
   9              		.eabi_attribute 26, 1
  10              		.eabi_attribute 30, 1
  11              		.eabi_attribute 34, 1
  12              		.eabi_attribute 18, 4
  13              		.thumb
  14              		.file	"RFPoll.c"
  15              		.text
  16              	.Ltext0:
  17              		.cfi_sections	.debug_frame
  18              		.section	.text.verificar_check,"ax",%progbits
  19              		.align	2
  20              		.global	verificar_check
  21              		.thumb
  22              		.thumb_func
  23              		.type	verificar_check, %function
  24              	verificar_check:
  25              	.LFB63:
  26              		.file 1 ".\\RFPoll.c"
   1:.\RFPoll.c    **** #include <project.h>
   2:.\RFPoll.c    **** #include <protocol.h>
   3:.\RFPoll.c    **** #include <variables.h>
   4:.\RFPoll.c    **** #include <RFPoll.h>
   5:.\RFPoll.c    **** #include <LCD.h>
   6:.\RFPoll.c    **** #include <I2C.h>
   7:.\RFPoll.c    **** #include <Print.h>
   8:.\RFPoll.c    **** #include <device.h>
   9:.\RFPoll.c    **** #include <stdio.h>
  10:.\RFPoll.c    **** #include <stdlib.h>
  11:.\RFPoll.c    **** 
  12:.\RFPoll.c    **** 
  13:.\RFPoll.c    **** 
  14:.\RFPoll.c    **** /*
  15:.\RFPoll.c    **** ***************************************************************************************************
  16:.\RFPoll.c    **** *                             uint8 verificar_check(uint8 *datos, uint16 size)
  17:.\RFPoll.c    **** *
  18:.\RFPoll.c    **** * Description : calcula el checksum
  19:.\RFPoll.c    **** *               
  20:.\RFPoll.c    **** 
  21:.\RFPoll.c    **** ***************************************************************************************************
  22:.\RFPoll.c    **** */
  23:.\RFPoll.c    **** uint8 verificar_check(uint8 *datos, uint16 size){
  27              		.loc 1 23 0
  28              		.cfi_startproc
  29              		@ args = 0, pretend = 0, frame = 256
  30              		@ frame_needed = 0, uses_anonymous_args = 0
  31              	.LVL0:
  32 0000 30B5     		push	{r4, r5, lr}
  33              		.cfi_def_cfa_offset 12
  34              		.cfi_offset 4, -12
ARM GAS  C:\Users\RECEPC~1\AppData\Local\Temp\cctZPkat.s 			page 2


  35              		.cfi_offset 5, -8
  36              		.cfi_offset 14, -4
  37 0002 C1B0     		sub	sp, sp, #260
  38              		.cfi_def_cfa_offset 272
  39 0004 0546     		mov	r5, r0
  40 0006 0C46     		mov	r4, r1
  24:.\RFPoll.c    **** 	uint8 checksum,index; 
  25:.\RFPoll.c    **** 	uint16 i;
  26:.\RFPoll.c    ****     uint8 table[256] = { 
  41              		.loc 1 26 0
  42 0008 6846     		mov	r0, sp
  43              	.LVL1:
  44 000a 0949     		ldr	r1, .L5
  45              	.LVL2:
  46 000c 4FF48072 		mov	r2, #256
  47 0010 FFF7FEFF 		bl	memcpy
  48              	.LVL3:
  27:.\RFPoll.c    ****     0, 94,188,226, 97, 63,221,131,194,156,126, 32,163,253, 31, 65,
  28:.\RFPoll.c    ****     157,195, 33,127,252,162, 64, 30, 95,  1,227,189, 62, 96,130,220,
  29:.\RFPoll.c    ****     35,125,159,193, 66, 28,254,160,225,191, 93,  3,128,222, 60, 98,
  30:.\RFPoll.c    ****     190,224,  2, 92,223,129, 99, 61,124, 34,192,158, 29, 67,161,255,
  31:.\RFPoll.c    ****     70, 24,250,164, 39,121,155,197,132,218, 56,102,229,187, 89,  7,
  32:.\RFPoll.c    ****     219,133,103, 57,186,228,  6, 88, 25, 71,165,251,120, 38,196,154,
  33:.\RFPoll.c    ****     101, 59,217,135,  4, 90,184,230,167,249, 27, 69,198,152,122, 36,
  34:.\RFPoll.c    ****     248,166, 68, 26,153,199, 37,123, 58,100,134,216, 91,  5,231,185,
  35:.\RFPoll.c    ****     140,210, 48,110,237,179, 81, 15, 78, 16,242,172, 47,113,147,205,
  36:.\RFPoll.c    ****     17, 79,173,243,112, 46,204,146,211,141,111, 49,178,236, 14, 80,
  37:.\RFPoll.c    ****     175,241, 19, 77,206,144,114, 44,109, 51,209,143, 12, 82,176,238,
  38:.\RFPoll.c    ****     50,108,142,208, 83, 13,239,177,240,174, 76, 18,145,207, 45,115,
  39:.\RFPoll.c    ****     202,148,118, 40,171,245, 23, 73,  8, 86,180,234,105, 55,213,139,
  40:.\RFPoll.c    ****     87,  9,235,181, 54,104,138,212,149,203, 41,119,244,170, 72, 22,
  41:.\RFPoll.c    ****     233,183, 85, 11,136,214, 52,106, 43,117,151,201, 74, 20,246,168,
  42:.\RFPoll.c    ****     116, 42,200,150, 21, 75,169,247,182,232, 10, 84,215,137,107, 53};	
  43:.\RFPoll.c    **** 	checksum=0;
  44:.\RFPoll.c    **** 	for(i=0;i<(size-1);i++){
  49              		.loc 1 44 0
  50 0014 0023     		movs	r3, #0
  43:.\RFPoll.c    **** 	for(i=0;i<(size-1);i++){
  51              		.loc 1 43 0
  52 0016 1846     		mov	r0, r3
  53              		.loc 1 44 0
  54 0018 05E0     		b	.L2
  55              	.LVL4:
  56              	.L3:
  45:.\RFPoll.c    **** 		index = (uint8)(checksum ^ datos[i]);
  57              		.loc 1 45 0 discriminator 3
  58 001a EA5C     		ldrb	r2, [r5, r3]	@ zero_extendqisi2
  59 001c 5040     		eors	r0, r0, r2
  60              	.LVL5:
  46:.\RFPoll.c    **** 		checksum = table[index];				
  61              		.loc 1 46 0 discriminator 3
  62 001e 1DF80000 		ldrb	r0, [sp, r0]	@ zero_extendqisi2
  63              	.LVL6:
  44:.\RFPoll.c    **** 		index = (uint8)(checksum ^ datos[i]);
  64              		.loc 1 44 0 discriminator 3
  65 0022 0133     		adds	r3, r3, #1
  66              	.LVL7:
ARM GAS  C:\Users\RECEPC~1\AppData\Local\Temp\cctZPkat.s 			page 3


  67 0024 9BB2     		uxth	r3, r3
  68              	.LVL8:
  69              	.L2:
  44:.\RFPoll.c    **** 		index = (uint8)(checksum ^ datos[i]);
  70              		.loc 1 44 0 is_stmt 0 discriminator 1
  71 0026 621E     		subs	r2, r4, #1
  72 0028 9342     		cmp	r3, r2
  73 002a F6DB     		blt	.L3
  47:.\RFPoll.c    **** 	}
  48:.\RFPoll.c    **** 	return checksum;
  49:.\RFPoll.c    **** }
  74              		.loc 1 49 0 is_stmt 1
  75 002c 41B0     		add	sp, sp, #260
  76              		.cfi_def_cfa_offset 12
  77              		@ sp needed
  78 002e 30BD     		pop	{r4, r5, pc}
  79              	.LVL9:
  80              	.L6:
  81              		.align	2
  82              	.L5:
  83 0030 00000000 		.word	.LANCHOR0
  84              		.cfi_endproc
  85              	.LFE63:
  86              		.size	verificar_check, .-verificar_check
  87              		.section	.text.pollingRF_Rx,"ax",%progbits
  88              		.align	2
  89              		.global	pollingRF_Rx
  90              		.thumb
  91              		.thumb_func
  92              		.type	pollingRF_Rx, %function
  93              	pollingRF_Rx:
  94              	.LFB64:
  50:.\RFPoll.c    **** 
  51:.\RFPoll.c    **** 
  52:.\RFPoll.c    **** 
  53:.\RFPoll.c    **** 
  54:.\RFPoll.c    **** void pollingRF_Rx(){
  95              		.loc 1 54 0
  96              		.cfi_startproc
  97              		@ args = 0, pretend = 0, frame = 0
  98              		@ frame_needed = 0, uses_anonymous_args = 0
  55:.\RFPoll.c    ****     uint16 i,x,y;
  56:.\RFPoll.c    ****     if(countRX > 2){
  99              		.loc 1 56 0
 100 0000 A84B     		ldr	r3, .L95
 101 0002 D3E90023 		ldrd	r2, [r3]
 102 0006 002B     		cmp	r3, #0
 103 0008 08BF     		it	eq
 104 000a 032A     		cmpeq	r2, #3
 105 000c C0F04D83 		bcc	.L94
  54:.\RFPoll.c    ****     uint16 i,x,y;
 106              		.loc 1 54 0
 107 0010 70B5     		push	{r4, r5, r6, lr}
 108              		.cfi_def_cfa_offset 16
 109              		.cfi_offset 4, -16
 110              		.cfi_offset 5, -12
 111              		.cfi_offset 6, -8
ARM GAS  C:\Users\RECEPC~1\AppData\Local\Temp\cctZPkat.s 			page 4


 112              		.cfi_offset 14, -4
  57:.\RFPoll.c    ****         CyDelay(100);
 113              		.loc 1 57 0
 114 0012 6420     		movs	r0, #100
 115 0014 FFF7FEFF 		bl	CyDelay
 116              	.LVL10:
  58:.\RFPoll.c    ****         if(RF_Connection_GetRxBufferSize() >= 1){
 117              		.loc 1 58 0
 118 0018 FFF7FEFF 		bl	RF_Connection_GetRxBufferSize
 119              	.LVL11:
 120 001c 0028     		cmp	r0, #0
 121 001e 00F03C83 		beq	.L9
  59:.\RFPoll.c    ****             ActiveRF=1;
 122              		.loc 1 59 0
 123 0022 0122     		movs	r2, #1
 124 0024 A04B     		ldr	r3, .L95+4
 125 0026 1A70     		strb	r2, [r3]
  60:.\RFPoll.c    ****             counterRF = 0;
 126              		.loc 1 60 0
 127 0028 0024     		movs	r4, #0
 128 002a A04B     		ldr	r3, .L95+8
 129 002c 1C70     		strb	r4, [r3]
 130              	.LVL12:
  61:.\RFPoll.c    ****             i=0;
  62:.\RFPoll.c    ****             while(RF_Connection_GetRxBufferSize()>0){//&& (RF_Connection_RX_STS_FIFO_NOTEMPTY)
 131              		.loc 1 62 0
 132 002e 05E0     		b	.L10
 133              	.LVL13:
 134              	.L11:
  63:.\RFPoll.c    ****                buffer_rf[i]=RF_Connection_ReadRxData(); 	
 135              		.loc 1 63 0
 136 0030 FFF7FEFF 		bl	RF_Connection_ReadRxData
 137              	.LVL14:
 138 0034 9E4B     		ldr	r3, .L95+12
 139 0036 1855     		strb	r0, [r3, r4]
  64:.\RFPoll.c    ****         	   i++;	
 140              		.loc 1 64 0
 141 0038 0134     		adds	r4, r4, #1
 142              	.LVL15:
 143 003a A4B2     		uxth	r4, r4
 144              	.LVL16:
 145              	.L10:
  62:.\RFPoll.c    ****                buffer_rf[i]=RF_Connection_ReadRxData(); 	
 146              		.loc 1 62 0
 147 003c FFF7FEFF 		bl	RF_Connection_GetRxBufferSize
 148              	.LVL17:
 149 0040 0028     		cmp	r0, #0
 150 0042 F5D1     		bne	.L11
 151              	.LVL18:
  65:.\RFPoll.c    ****             } 
  66:.\RFPoll.c    ****             y=0;
  67:.\RFPoll.c    ****             buffer_tx[y] = 0xBC; y++;
 152              		.loc 1 67 0
 153 0044 9B4B     		ldr	r3, .L95+16
 154 0046 BC22     		movs	r2, #188
 155 0048 1A70     		strb	r2, [r3]
 156              	.LVL19:
ARM GAS  C:\Users\RECEPC~1\AppData\Local\Temp\cctZPkat.s 			page 5


  68:.\RFPoll.c    ****             buffer_tx[y] = 0xCB; y++;
 157              		.loc 1 68 0
 158 004a CB22     		movs	r2, #203
 159 004c 5A70     		strb	r2, [r3, #1]
 160              	.LVL20:
  69:.\RFPoll.c    ****             buffer_tx[y] = 0xC8; y++;
 161              		.loc 1 69 0
 162 004e C822     		movs	r2, #200
 163 0050 9A70     		strb	r2, [r3, #2]
 164              	.LVL21:
  70:.\RFPoll.c    ****             buffer_tx[y] = IDCast[0]; y++;
 165              		.loc 1 70 0
 166 0052 994A     		ldr	r2, .L95+20
 167 0054 1178     		ldrb	r1, [r2]	@ zero_extendqisi2
 168 0056 D970     		strb	r1, [r3, #3]
 169              	.LVL22:
  71:.\RFPoll.c    ****             buffer_tx[y] = IDCast[1]; y++;
 170              		.loc 1 71 0
 171 0058 5278     		ldrb	r2, [r2, #1]	@ zero_extendqisi2
 172 005a 1A71     		strb	r2, [r3, #4]
 173              	.LVL23:
  72:.\RFPoll.c    ****             if((buffer_rf[0]==0xBC)&&(buffer_rf[1]==0xBB)&&(buffer_rf[2]==0xB8)&&(buffer_rf[3]==IDC
 174              		.loc 1 72 0
 175 005c 944B     		ldr	r3, .L95+12
 176 005e 1B78     		ldrb	r3, [r3]	@ zero_extendqisi2
 177 0060 BC2B     		cmp	r3, #188
 178 0062 40F01A83 		bne	.L9
 179              		.loc 1 72 0 is_stmt 0 discriminator 1
 180 0066 924B     		ldr	r3, .L95+12
 181 0068 5B78     		ldrb	r3, [r3, #1]	@ zero_extendqisi2
 182 006a BB2B     		cmp	r3, #187
 183 006c 40F01583 		bne	.L9
 184              		.loc 1 72 0 discriminator 2
 185 0070 8F4B     		ldr	r3, .L95+12
 186 0072 9B78     		ldrb	r3, [r3, #2]	@ zero_extendqisi2
 187 0074 B82B     		cmp	r3, #184
 188 0076 40F01083 		bne	.L9
 189              		.loc 1 72 0 discriminator 3
 190 007a 8F4B     		ldr	r3, .L95+20
 191 007c 1B78     		ldrb	r3, [r3]	@ zero_extendqisi2
 192 007e 8C4A     		ldr	r2, .L95+12
 193 0080 D278     		ldrb	r2, [r2, #3]	@ zero_extendqisi2
 194 0082 9A42     		cmp	r2, r3
 195 0084 40F00983 		bne	.L9
 196              		.loc 1 72 0 discriminator 4
 197 0088 8B4B     		ldr	r3, .L95+20
 198 008a 5B78     		ldrb	r3, [r3, #1]	@ zero_extendqisi2
 199 008c 884A     		ldr	r2, .L95+12
 200 008e 1279     		ldrb	r2, [r2, #4]	@ zero_extendqisi2
 201 0090 9A42     		cmp	r2, r3
 202 0092 40F00283 		bne	.L9
  73:.\RFPoll.c    ****                switch(buffer_rf[6]){
 203              		.loc 1 73 0 is_stmt 1
 204 0096 864B     		ldr	r3, .L95+12
 205 0098 9B79     		ldrb	r3, [r3, #6]	@ zero_extendqisi2
 206 009a A62B     		cmp	r3, #166
 207 009c 00F02E81 		beq	.L12
ARM GAS  C:\Users\RECEPC~1\AppData\Local\Temp\cctZPkat.s 			page 6


 208 00a0 04D8     		bhi	.L13
 209 00a2 A12B     		cmp	r3, #161
 210 00a4 0CD0     		beq	.L14
 211 00a6 A52B     		cmp	r3, #165
 212 00a8 67D0     		beq	.L15
 213 00aa F6E2     		b	.L9
 214              	.L13:
 215 00ac E12B     		cmp	r3, #225
 216 00ae 00F01B82 		beq	.L16
 217 00b2 E22B     		cmp	r3, #226
 218 00b4 00F0CC82 		beq	.L17
 219 00b8 A72B     		cmp	r3, #167
 220 00ba 40F0EE82 		bne	.L9
 221 00be CDE1     		b	.L18
 222              	.L14:
  74:.\RFPoll.c    ****                    case 0xA1:               //Peticion de estado
  75:.\RFPoll.c    ****                     if(buffer_rf[5] == side.a.dir){
 223              		.loc 1 75 0
 224 00c0 7B4B     		ldr	r3, .L95+12
 225 00c2 5A79     		ldrb	r2, [r3, #5]	@ zero_extendqisi2
 226 00c4 7D4B     		ldr	r3, .L95+24
 227 00c6 1978     		ldrb	r1, [r3]	@ zero_extendqisi2
 228 00c8 8A42     		cmp	r2, r1
 229 00ca 09D1     		bne	.L85
  76:.\RFPoll.c    ****                         buffer_tx[5] = side.a.dir;y++;
 230              		.loc 1 76 0
 231 00cc 794B     		ldr	r3, .L95+16
 232 00ce 5971     		strb	r1, [r3, #5]
 233              	.LVL24:
  77:.\RFPoll.c    ****                         buffer_tx[y] = 0xA1;y++;
 234              		.loc 1 77 0
 235 00d0 A121     		movs	r1, #161
 236 00d2 9971     		strb	r1, [r3, #6]
 237              	.LVL25:
  78:.\RFPoll.c    ****                         buffer_tx[y] = side.a.rfState; y++;
 238              		.loc 1 78 0
 239 00d4 7949     		ldr	r1, .L95+24
 240 00d6 91F80311 		ldrb	r1, [r1, #259]	@ zero_extendqisi2
 241 00da D971     		strb	r1, [r3, #7]
 242              	.LVL26:
 243 00dc 0824     		movs	r4, #8
 244              	.LVL27:
 245 00de 00E0     		b	.L19
 246              	.LVL28:
 247              	.L85:
  71:.\RFPoll.c    ****             if((buffer_rf[0]==0xBC)&&(buffer_rf[1]==0xBB)&&(buffer_rf[2]==0xB8)&&(buffer_rf[3]==IDC
 248              		.loc 1 71 0
 249 00e0 0524     		movs	r4, #5
 250              	.LVL29:
 251              	.L19:
  79:.\RFPoll.c    ****                     }  
  80:.\RFPoll.c    ****                     if(buffer_rf[5] == side.b.dir){
 252              		.loc 1 80 0
 253 00e2 764B     		ldr	r3, .L95+24
 254 00e4 93F80631 		ldrb	r3, [r3, #262]	@ zero_extendqisi2
 255 00e8 9A42     		cmp	r2, r3
 256 00ea 0DD1     		bne	.L20
ARM GAS  C:\Users\RECEPC~1\AppData\Local\Temp\cctZPkat.s 			page 7


  81:.\RFPoll.c    ****                         buffer_tx[5] = side.b.dir;y++;
 257              		.loc 1 81 0
 258 00ec 7149     		ldr	r1, .L95+16
 259 00ee 4B71     		strb	r3, [r1, #5]
 260 00f0 631C     		adds	r3, r4, #1
 261 00f2 9BB2     		uxth	r3, r3
 262              	.LVL30:
  82:.\RFPoll.c    ****                         buffer_tx[y] = 0xA1;y++;
 263              		.loc 1 82 0
 264 00f4 A120     		movs	r0, #161
 265 00f6 C854     		strb	r0, [r1, r3]
 266 00f8 0133     		adds	r3, r3, #1
 267              	.LVL31:
 268 00fa 9BB2     		uxth	r3, r3
 269              	.LVL32:
  83:.\RFPoll.c    ****                         buffer_tx[y] = side.b.rfState;y++;
 270              		.loc 1 83 0
 271 00fc 6F48     		ldr	r0, .L95+24
 272 00fe 90F80902 		ldrb	r0, [r0, #521]	@ zero_extendqisi2
 273 0102 C854     		strb	r0, [r1, r3]
 274 0104 0133     		adds	r3, r3, #1
 275              	.LVL33:
 276 0106 9CB2     		uxth	r4, r3
 277              	.LVL34:
 278              	.L20:
  84:.\RFPoll.c    ****                     }
  85:.\RFPoll.c    ****                     if(buffer_rf[5] == side.c.dir){
 279              		.loc 1 85 0
 280 0108 6C4B     		ldr	r3, .L95+24
 281 010a 93F80C32 		ldrb	r3, [r3, #524]	@ zero_extendqisi2
 282 010e 9A42     		cmp	r2, r3
 283 0110 0DD1     		bne	.L21
  86:.\RFPoll.c    ****                         buffer_tx[5] = side.c.dir; y++;
 284              		.loc 1 86 0
 285 0112 6849     		ldr	r1, .L95+16
 286 0114 4B71     		strb	r3, [r1, #5]
 287 0116 631C     		adds	r3, r4, #1
 288 0118 9BB2     		uxth	r3, r3
 289              	.LVL35:
  87:.\RFPoll.c    ****                         buffer_tx[y] = 0xA1; y++;
 290              		.loc 1 87 0
 291 011a A120     		movs	r0, #161
 292 011c C854     		strb	r0, [r1, r3]
 293 011e 0133     		adds	r3, r3, #1
 294              	.LVL36:
 295 0120 9BB2     		uxth	r3, r3
 296              	.LVL37:
  88:.\RFPoll.c    ****                         buffer_tx[y] = side.c.rfState; y++;
 297              		.loc 1 88 0
 298 0122 6648     		ldr	r0, .L95+24
 299 0124 90F80F03 		ldrb	r0, [r0, #783]	@ zero_extendqisi2
 300 0128 C854     		strb	r0, [r1, r3]
 301 012a 0133     		adds	r3, r3, #1
 302              	.LVL38:
 303 012c 9CB2     		uxth	r4, r3
 304              	.LVL39:
 305              	.L21:
ARM GAS  C:\Users\RECEPC~1\AppData\Local\Temp\cctZPkat.s 			page 8


  89:.\RFPoll.c    ****                     }
  90:.\RFPoll.c    ****                     if(buffer_rf[5] == side.d.dir){
 306              		.loc 1 90 0
 307 012e 634B     		ldr	r3, .L95+24
 308 0130 93F81233 		ldrb	r3, [r3, #786]	@ zero_extendqisi2
 309 0134 9A42     		cmp	r2, r3
 310 0136 0DD1     		bne	.L22
  91:.\RFPoll.c    ****                         buffer_tx[5] = side.d.dir; y++;
 311              		.loc 1 91 0
 312 0138 5E4A     		ldr	r2, .L95+16
 313 013a 5371     		strb	r3, [r2, #5]
 314 013c 631C     		adds	r3, r4, #1
 315 013e 9BB2     		uxth	r3, r3
 316              	.LVL40:
  92:.\RFPoll.c    ****                         buffer_tx[y] = 0xA1; y++;
 317              		.loc 1 92 0
 318 0140 A121     		movs	r1, #161
 319 0142 D154     		strb	r1, [r2, r3]
 320 0144 0133     		adds	r3, r3, #1
 321              	.LVL41:
 322 0146 9BB2     		uxth	r3, r3
 323              	.LVL42:
  93:.\RFPoll.c    ****                         buffer_tx[y] = side.d.rfState; y++;
 324              		.loc 1 93 0
 325 0148 5C49     		ldr	r1, .L95+24
 326 014a 91F81514 		ldrb	r1, [r1, #1045]	@ zero_extendqisi2
 327 014e D154     		strb	r1, [r2, r3]
 328 0150 0133     		adds	r3, r3, #1
 329              	.LVL43:
 330 0152 9CB2     		uxth	r4, r3
 331              	.LVL44:
 332              	.L22:
  94:.\RFPoll.c    ****                     }
  95:.\RFPoll.c    ****                     buffer_tx[y] = verificar_check(buffer_tx,y+1);y++;
 333              		.loc 1 95 0
 334 0154 651C     		adds	r5, r4, #1
 335 0156 ADB2     		uxth	r5, r5
 336 0158 564E     		ldr	r6, .L95+16
 337 015a 3046     		mov	r0, r6
 338 015c 2946     		mov	r1, r5
 339 015e FFF7FEFF 		bl	verificar_check
 340              	.LVL45:
 341 0162 3055     		strb	r0, [r6, r4]
 342              	.LVL46:
  96:.\RFPoll.c    ****                     for (x = 0; x < y; x++){
 343              		.loc 1 96 0
 344 0164 0024     		movs	r4, #0
 345 0166 05E0     		b	.L23
 346              	.LVL47:
 347              	.L24:
  97:.\RFPoll.c    ****                         RF_Connection_PutChar(buffer_tx[x]);
 348              		.loc 1 97 0 discriminator 3
 349 0168 524B     		ldr	r3, .L95+16
 350 016a 185D     		ldrb	r0, [r3, r4]	@ zero_extendqisi2
 351 016c FFF7FEFF 		bl	RF_Connection_PutChar
 352              	.LVL48:
  96:.\RFPoll.c    ****                     for (x = 0; x < y; x++){
ARM GAS  C:\Users\RECEPC~1\AppData\Local\Temp\cctZPkat.s 			page 9


 353              		.loc 1 96 0 discriminator 3
 354 0170 0134     		adds	r4, r4, #1
 355              	.LVL49:
 356 0172 A4B2     		uxth	r4, r4
 357              	.LVL50:
 358              	.L23:
  96:.\RFPoll.c    ****                     for (x = 0; x < y; x++){
 359              		.loc 1 96 0 is_stmt 0 discriminator 1
 360 0174 AC42     		cmp	r4, r5
 361 0176 F7D3     		bcc	.L24
 362 0178 8FE2     		b	.L9
 363              	.LVL51:
 364              	.L15:
  98:.\RFPoll.c    ****                     }
  99:.\RFPoll.c    ****                    break;
 100:.\RFPoll.c    ****                    
 101:.\RFPoll.c    ****                    
 102:.\RFPoll.c    ****                    case 0xA5:
 103:.\RFPoll.c    ****                     if(buffer_rf[5] == side.a.dir){
 365              		.loc 1 103 0 is_stmt 1
 366 017a 4D4B     		ldr	r3, .L95+12
 367 017c 5979     		ldrb	r1, [r3, #5]	@ zero_extendqisi2
 368 017e 4F4B     		ldr	r3, .L95+24
 369 0180 1A78     		ldrb	r2, [r3]	@ zero_extendqisi2
 370 0182 9142     		cmp	r1, r2
 371 0184 43D1     		bne	.L86
 104:.\RFPoll.c    ****                         buffer_tx[5] = side.a.dir; y++;
 372              		.loc 1 104 0
 373 0186 4B4B     		ldr	r3, .L95+16
 374 0188 5A71     		strb	r2, [r3, #5]
 375              	.LVL52:
 105:.\RFPoll.c    ****                         buffer_tx[y] = 0xA5; y++;
 376              		.loc 1 105 0
 377 018a A522     		movs	r2, #165
 378 018c 9A71     		strb	r2, [r3, #6]
 379              	.LVL53:
 106:.\RFPoll.c    ****                         buffer_tx[y] = side.a.rfState; y++;
 380              		.loc 1 106 0
 381 018e 4B4A     		ldr	r2, .L95+24
 382 0190 92F80321 		ldrb	r2, [r2, #259]	@ zero_extendqisi2
 383 0194 DA71     		strb	r2, [r3, #7]
 384              	.LVL54:
 107:.\RFPoll.c    ****                         buffer_tx[y] = 0x34; y++;
 385              		.loc 1 107 0
 386 0196 3422     		movs	r2, #52
 387 0198 1A72     		strb	r2, [r3, #8]
 388              	.LVL55:
 108:.\RFPoll.c    ****                         buffer_tx[y] = 0x01; y++;                    
 389              		.loc 1 108 0
 390 019a 0122     		movs	r2, #1
 391 019c 5A72     		strb	r2, [r3, #9]
 392              	.LVL56:
 109:.\RFPoll.c    ****                         if (digits == 6 || digits == 5){                            
 393              		.loc 1 109 0
 394 019e 484B     		ldr	r3, .L95+28
 395 01a0 1B78     		ldrb	r3, [r3]	@ zero_extendqisi2
 396 01a2 053B     		subs	r3, r3, #5
ARM GAS  C:\Users\RECEPC~1\AppData\Local\Temp\cctZPkat.s 			page 10


 397 01a4 DBB2     		uxtb	r3, r3
 398 01a6 9342     		cmp	r3, r2
 399 01a8 0BD9     		bls	.L87
 108:.\RFPoll.c    ****                         buffer_tx[y] = 0x01; y++;                    
 400              		.loc 1 108 0
 401 01aa 0A24     		movs	r4, #10
 402              	.LVL57:
 403 01ac 30E0     		b	.L25
 404              	.LVL58:
 405              	.L27:
 110:.\RFPoll.c    ****                             for(x = 8; x > 0; x--){ //Volumen
 111:.\RFPoll.c    ****                                 buffer_tx[y] = side.a.totalsHandle[0][0][x];y++;
 406              		.loc 1 111 0 discriminator 3
 407 01ae 434A     		ldr	r2, .L95+24
 408 01b0 1A44     		add	r2, r2, r3
 409 01b2 5078     		ldrb	r0, [r2, #1]	@ zero_extendqisi2
 410 01b4 3F4A     		ldr	r2, .L95+16
 411 01b6 1055     		strb	r0, [r2, r4]
 412 01b8 0134     		adds	r4, r4, #1
 413              	.LVL59:
 414 01ba A4B2     		uxth	r4, r4
 415              	.LVL60:
 110:.\RFPoll.c    ****                             for(x = 8; x > 0; x--){ //Volumen
 416              		.loc 1 110 0 discriminator 3
 417 01bc 013B     		subs	r3, r3, #1
 418              	.LVL61:
 419 01be 9BB2     		uxth	r3, r3
 420              	.LVL62:
 421 01c0 01E0     		b	.L26
 422              	.LVL63:
 423              	.L87:
 424 01c2 0A24     		movs	r4, #10
 425              	.LVL64:
 426 01c4 0823     		movs	r3, #8
 427              	.LVL65:
 428              	.L26:
 110:.\RFPoll.c    ****                             for(x = 8; x > 0; x--){ //Volumen
 429              		.loc 1 110 0 is_stmt 0 discriminator 1
 430 01c6 002B     		cmp	r3, #0
 431 01c8 F1D1     		bne	.L27
 432 01ca 06E0     		b	.L28
 433              	.L29:
 112:.\RFPoll.c    ****                             }
 113:.\RFPoll.c    ****                             for(x =0; x < 4; x++){
 114:.\RFPoll.c    ****                                 buffer_tx[y] = 0x30;y++;
 434              		.loc 1 114 0 is_stmt 1 discriminator 3
 435 01cc 3020     		movs	r0, #48
 436 01ce 394A     		ldr	r2, .L95+16
 437 01d0 1055     		strb	r0, [r2, r4]
 438 01d2 0134     		adds	r4, r4, #1
 439              	.LVL66:
 440 01d4 A4B2     		uxth	r4, r4
 441              	.LVL67:
 113:.\RFPoll.c    ****                                 buffer_tx[y] = 0x30;y++;
 442              		.loc 1 113 0 discriminator 3
 443 01d6 0133     		adds	r3, r3, #1
 444              	.LVL68:
ARM GAS  C:\Users\RECEPC~1\AppData\Local\Temp\cctZPkat.s 			page 11


 445 01d8 9BB2     		uxth	r3, r3
 446              	.LVL69:
 447              	.L28:
 113:.\RFPoll.c    ****                                 buffer_tx[y] = 0x30;y++;
 448              		.loc 1 113 0 is_stmt 0 discriminator 1
 449 01da 032B     		cmp	r3, #3
 450 01dc F6D9     		bls	.L29
 451 01de 0823     		movs	r3, #8
 452              	.LVL70:
 453 01e0 08E0     		b	.L30
 454              	.LVL71:
 455              	.L31:
 115:.\RFPoll.c    ****                             }
 116:.\RFPoll.c    ****                             for(x = 8; x > 0; x--){//Dinero
 117:.\RFPoll.c    ****                                 buffer_tx[y] = side.a.totalsHandle[0][1][x];y++;
 456              		.loc 1 117 0 is_stmt 1 discriminator 3
 457 01e2 364A     		ldr	r2, .L95+24
 458 01e4 1A44     		add	r2, r2, r3
 459 01e6 107C     		ldrb	r0, [r2, #16]	@ zero_extendqisi2
 460 01e8 324A     		ldr	r2, .L95+16
 461 01ea 1055     		strb	r0, [r2, r4]
 462 01ec 0134     		adds	r4, r4, #1
 463              	.LVL72:
 464 01ee A4B2     		uxth	r4, r4
 465              	.LVL73:
 116:.\RFPoll.c    ****                                 buffer_tx[y] = side.a.totalsHandle[0][1][x];y++;
 466              		.loc 1 116 0 discriminator 3
 467 01f0 013B     		subs	r3, r3, #1
 468              	.LVL74:
 469 01f2 9BB2     		uxth	r3, r3
 470              	.LVL75:
 471              	.L30:
 116:.\RFPoll.c    ****                                 buffer_tx[y] = side.a.totalsHandle[0][1][x];y++;
 472              		.loc 1 116 0 is_stmt 0 discriminator 1
 473 01f4 002B     		cmp	r3, #0
 474 01f6 F4D1     		bne	.L31
 475 01f8 06E0     		b	.L32
 476              	.L33:
 118:.\RFPoll.c    ****                             }
 119:.\RFPoll.c    ****                             for(x =0; x < 4; x++){
 120:.\RFPoll.c    ****                                 buffer_tx[y] = 0x30;y++;
 477              		.loc 1 120 0 is_stmt 1 discriminator 3
 478 01fa 3020     		movs	r0, #48
 479 01fc 2D4A     		ldr	r2, .L95+16
 480 01fe 1055     		strb	r0, [r2, r4]
 481 0200 0134     		adds	r4, r4, #1
 482              	.LVL76:
 483 0202 A4B2     		uxth	r4, r4
 484              	.LVL77:
 119:.\RFPoll.c    ****                                 buffer_tx[y] = 0x30;y++;
 485              		.loc 1 119 0 discriminator 3
 486 0204 0133     		adds	r3, r3, #1
 487              	.LVL78:
 488 0206 9BB2     		uxth	r3, r3
 489              	.LVL79:
 490              	.L32:
 119:.\RFPoll.c    ****                                 buffer_tx[y] = 0x30;y++;
ARM GAS  C:\Users\RECEPC~1\AppData\Local\Temp\cctZPkat.s 			page 12


 491              		.loc 1 119 0 is_stmt 0 discriminator 1
 492 0208 032B     		cmp	r3, #3
 493 020a F6D9     		bls	.L33
 494 020c 00E0     		b	.L25
 495              	.LVL80:
 496              	.L86:
  71:.\RFPoll.c    ****             if((buffer_rf[0]==0xBC)&&(buffer_rf[1]==0xBB)&&(buffer_rf[2]==0xB8)&&(buffer_rf[3]==IDC
 497              		.loc 1 71 0 is_stmt 1
 498 020e 0524     		movs	r4, #5
 499              	.LVL81:
 500              	.L25:
 121:.\RFPoll.c    ****                             }
 122:.\RFPoll.c    ****                         }                        
 123:.\RFPoll.c    ****                     }
 124:.\RFPoll.c    ****                     if(buffer_rf[5] == side.b.dir){
 501              		.loc 1 124 0
 502 0210 2A4B     		ldr	r3, .L95+24
 503 0212 93F80631 		ldrb	r3, [r3, #262]	@ zero_extendqisi2
 504 0216 9942     		cmp	r1, r3
 505 0218 5DD1     		bne	.L34
 125:.\RFPoll.c    ****                         buffer_tx[5] = side.b.dir; y++;
 506              		.loc 1 125 0
 507 021a 264A     		ldr	r2, .L95+16
 508 021c 5371     		strb	r3, [r2, #5]
 509 021e 631C     		adds	r3, r4, #1
 510 0220 9BB2     		uxth	r3, r3
 511              	.LVL82:
 126:.\RFPoll.c    ****                         buffer_tx[y] = 0xA5; y++;
 512              		.loc 1 126 0
 513 0222 A521     		movs	r1, #165
 514 0224 D154     		strb	r1, [r2, r3]
 515 0226 0133     		adds	r3, r3, #1
 516              	.LVL83:
 517 0228 9BB2     		uxth	r3, r3
 518              	.LVL84:
 127:.\RFPoll.c    ****                         buffer_tx[y] = side.b.rfState; y++;
 519              		.loc 1 127 0
 520 022a 2449     		ldr	r1, .L95+24
 521 022c 91F80912 		ldrb	r1, [r1, #521]	@ zero_extendqisi2
 522 0230 D154     		strb	r1, [r2, r3]
 523 0232 0133     		adds	r3, r3, #1
 524              	.LVL85:
 525 0234 9BB2     		uxth	r3, r3
 526              	.LVL86:
 128:.\RFPoll.c    ****                         buffer_tx[y] = 0x34; y++;
 527              		.loc 1 128 0
 528 0236 3421     		movs	r1, #52
 529 0238 D154     		strb	r1, [r2, r3]
 530 023a 0133     		adds	r3, r3, #1
 531              	.LVL87:
 532 023c 9BB2     		uxth	r3, r3
 533              	.LVL88:
 129:.\RFPoll.c    ****                         buffer_tx[y] = 0x01; y++;
 534              		.loc 1 129 0
 535 023e 0121     		movs	r1, #1
 536 0240 D154     		strb	r1, [r2, r3]
 537 0242 0B44     		add	r3, r3, r1
ARM GAS  C:\Users\RECEPC~1\AppData\Local\Temp\cctZPkat.s 			page 13


 538              	.LVL89:
 539 0244 9CB2     		uxth	r4, r3
 540              	.LVL90:
 130:.\RFPoll.c    ****                         if (digits == 6 || digits == 5){                            
 541              		.loc 1 130 0
 542 0246 1E4B     		ldr	r3, .L95+28
 543 0248 1B78     		ldrb	r3, [r3]	@ zero_extendqisi2
 544 024a 053B     		subs	r3, r3, #5
 545 024c DBB2     		uxtb	r3, r3
 546 024e 8B42     		cmp	r3, r1
 547 0250 41D8     		bhi	.L34
 548 0252 0AE0     		b	.L88
 549              	.LVL91:
 550              	.L36:
 131:.\RFPoll.c    ****                             for(x = 8; x > 0; x--){ //Volumen
 132:.\RFPoll.c    ****                                 buffer_tx[y] = side.b.totalsHandle[0][0][x];y++;
 551              		.loc 1 132 0 discriminator 3
 552 0254 194A     		ldr	r2, .L95+24
 553 0256 1A44     		add	r2, r2, r3
 554 0258 92F80711 		ldrb	r1, [r2, #263]	@ zero_extendqisi2
 555 025c 154A     		ldr	r2, .L95+16
 556 025e 1155     		strb	r1, [r2, r4]
 557 0260 0134     		adds	r4, r4, #1
 558              	.LVL92:
 559 0262 A4B2     		uxth	r4, r4
 560              	.LVL93:
 131:.\RFPoll.c    ****                             for(x = 8; x > 0; x--){ //Volumen
 561              		.loc 1 131 0 discriminator 3
 562 0264 013B     		subs	r3, r3, #1
 563              	.LVL94:
 564 0266 9BB2     		uxth	r3, r3
 565              	.LVL95:
 566 0268 00E0     		b	.L35
 567              	.LVL96:
 568              	.L88:
 569 026a 0823     		movs	r3, #8
 570              	.L35:
 571              	.LVL97:
 131:.\RFPoll.c    ****                             for(x = 8; x > 0; x--){ //Volumen
 572              		.loc 1 131 0 is_stmt 0 discriminator 1
 573 026c 002B     		cmp	r3, #0
 574 026e F1D1     		bne	.L36
 575 0270 06E0     		b	.L37
 576              	.L38:
 133:.\RFPoll.c    ****                             }
 134:.\RFPoll.c    ****                             for(x =0; x < 4; x++){
 135:.\RFPoll.c    ****                                 buffer_tx[y] = 0x30;y++;
 577              		.loc 1 135 0 is_stmt 1 discriminator 3
 578 0272 3021     		movs	r1, #48
 579 0274 0F4A     		ldr	r2, .L95+16
 580 0276 1155     		strb	r1, [r2, r4]
 581 0278 0134     		adds	r4, r4, #1
 582              	.LVL98:
 583 027a A4B2     		uxth	r4, r4
 584              	.LVL99:
 134:.\RFPoll.c    ****                                 buffer_tx[y] = 0x30;y++;
 585              		.loc 1 134 0 discriminator 3
ARM GAS  C:\Users\RECEPC~1\AppData\Local\Temp\cctZPkat.s 			page 14


 586 027c 0133     		adds	r3, r3, #1
 587              	.LVL100:
 588 027e 9BB2     		uxth	r3, r3
 589              	.LVL101:
 590              	.L37:
 134:.\RFPoll.c    ****                                 buffer_tx[y] = 0x30;y++;
 591              		.loc 1 134 0 is_stmt 0 discriminator 1
 592 0280 032B     		cmp	r3, #3
 593 0282 F6D9     		bls	.L38
 594 0284 0823     		movs	r3, #8
 595              	.LVL102:
 596 0286 09E0     		b	.L39
 597              	.LVL103:
 598              	.L40:
 136:.\RFPoll.c    ****                             }
 137:.\RFPoll.c    ****                             for(x = 8; x > 0; x--){//Dinero
 138:.\RFPoll.c    ****                                 buffer_tx[y] = side.b.totalsHandle[0][1][x];y++;
 599              		.loc 1 138 0 is_stmt 1 discriminator 3
 600 0288 0C4A     		ldr	r2, .L95+24
 601 028a 1A44     		add	r2, r2, r3
 602 028c 92F81611 		ldrb	r1, [r2, #278]	@ zero_extendqisi2
 603 0290 084A     		ldr	r2, .L95+16
 604 0292 1155     		strb	r1, [r2, r4]
 605 0294 0134     		adds	r4, r4, #1
 606              	.LVL104:
 607 0296 A4B2     		uxth	r4, r4
 608              	.LVL105:
 137:.\RFPoll.c    ****                                 buffer_tx[y] = side.b.totalsHandle[0][1][x];y++;
 609              		.loc 1 137 0 discriminator 3
 610 0298 013B     		subs	r3, r3, #1
 611              	.LVL106:
 612 029a 9BB2     		uxth	r3, r3
 613              	.LVL107:
 614              	.L39:
 137:.\RFPoll.c    ****                                 buffer_tx[y] = side.b.totalsHandle[0][1][x];y++;
 615              		.loc 1 137 0 is_stmt 0 discriminator 1
 616 029c 002B     		cmp	r3, #0
 617 029e F3D1     		bne	.L40
 618 02a0 17E0     		b	.L41
 619              	.L96:
 620 02a2 00BF     		.align	2
 621              	.L95:
 622 02a4 00000000 		.word	countRX
 623 02a8 00000000 		.word	ActiveRF
 624 02ac 00000000 		.word	counterRF
 625 02b0 00000000 		.word	buffer_rf
 626 02b4 00000000 		.word	buffer_tx
 627 02b8 00000000 		.word	IDCast
 628 02bc 00000000 		.word	side
 629 02c0 00000000 		.word	digits
 630              	.L42:
 139:.\RFPoll.c    ****                             }
 140:.\RFPoll.c    ****                             for(x =0; x < 4; x++){
 141:.\RFPoll.c    ****                                 buffer_tx[y] = 0x30;y++;
 631              		.loc 1 141 0 is_stmt 1 discriminator 3
 632 02c4 3021     		movs	r1, #48
 633 02c6 AD4A     		ldr	r2, .L97
ARM GAS  C:\Users\RECEPC~1\AppData\Local\Temp\cctZPkat.s 			page 15


 634 02c8 1155     		strb	r1, [r2, r4]
 635 02ca 0134     		adds	r4, r4, #1
 636              	.LVL108:
 637 02cc A4B2     		uxth	r4, r4
 638              	.LVL109:
 140:.\RFPoll.c    ****                                 buffer_tx[y] = 0x30;y++;
 639              		.loc 1 140 0 discriminator 3
 640 02ce 0133     		adds	r3, r3, #1
 641              	.LVL110:
 642 02d0 9BB2     		uxth	r3, r3
 643              	.LVL111:
 644              	.L41:
 140:.\RFPoll.c    ****                                 buffer_tx[y] = 0x30;y++;
 645              		.loc 1 140 0 is_stmt 0 discriminator 1
 646 02d2 032B     		cmp	r3, #3
 647 02d4 F6D9     		bls	.L42
 648              	.LVL112:
 649              	.L34:
 142:.\RFPoll.c    ****                             }
 143:.\RFPoll.c    ****                         }                        
 144:.\RFPoll.c    ****                     }
 145:.\RFPoll.c    ****                     buffer_tx[y] = verificar_check(buffer_tx,y+1);y++;
 650              		.loc 1 145 0 is_stmt 1
 651 02d6 651C     		adds	r5, r4, #1
 652 02d8 ADB2     		uxth	r5, r5
 653 02da A84E     		ldr	r6, .L97
 654 02dc 3046     		mov	r0, r6
 655 02de 2946     		mov	r1, r5
 656 02e0 FFF7FEFF 		bl	verificar_check
 657              	.LVL113:
 658 02e4 3055     		strb	r0, [r6, r4]
 659              	.LVL114:
 146:.\RFPoll.c    ****                     for (x = 0; x < y; x++){
 660              		.loc 1 146 0
 661 02e6 0024     		movs	r4, #0
 662 02e8 05E0     		b	.L43
 663              	.LVL115:
 664              	.L44:
 147:.\RFPoll.c    ****                         RF_Connection_PutChar(buffer_tx[x]);
 665              		.loc 1 147 0 discriminator 3
 666 02ea A44B     		ldr	r3, .L97
 667 02ec 185D     		ldrb	r0, [r3, r4]	@ zero_extendqisi2
 668 02ee FFF7FEFF 		bl	RF_Connection_PutChar
 669              	.LVL116:
 146:.\RFPoll.c    ****                     for (x = 0; x < y; x++){
 670              		.loc 1 146 0 discriminator 3
 671 02f2 0134     		adds	r4, r4, #1
 672              	.LVL117:
 673 02f4 A4B2     		uxth	r4, r4
 674              	.LVL118:
 675              	.L43:
 146:.\RFPoll.c    ****                     for (x = 0; x < y; x++){
 676              		.loc 1 146 0 is_stmt 0 discriminator 1
 677 02f6 AC42     		cmp	r4, r5
 678 02f8 F7D3     		bcc	.L44
 679 02fa CEE1     		b	.L9
 680              	.LVL119:
ARM GAS  C:\Users\RECEPC~1\AppData\Local\Temp\cctZPkat.s 			page 16


 681              	.L12:
 148:.\RFPoll.c    ****                     }
 149:.\RFPoll.c    ****                    break;
 150:.\RFPoll.c    ****                     
 151:.\RFPoll.c    ****                    case 0xA6:               //Envio de precios
 152:.\RFPoll.c    ****                     if(buffer_rf[5] == side.a.dir){
 682              		.loc 1 152 0 is_stmt 1
 683 02fc A04B     		ldr	r3, .L97+4
 684 02fe 5A79     		ldrb	r2, [r3, #5]	@ zero_extendqisi2
 685 0300 A04B     		ldr	r3, .L97+8
 686 0302 1878     		ldrb	r0, [r3]	@ zero_extendqisi2
 687 0304 8242     		cmp	r2, r0
 688 0306 0DD0     		beq	.L89
  71:.\RFPoll.c    ****             if((buffer_rf[0]==0xBC)&&(buffer_rf[1]==0xBB)&&(buffer_rf[2]==0xB8)&&(buffer_rf[3]==IDC
 689              		.loc 1 71 0
 690 0308 0524     		movs	r4, #5
 691              	.LVL120:
 692 030a 1DE0     		b	.L46
 693              	.LVL121:
 694              	.L47:
 153:.\RFPoll.c    ****                         for(x=9;x < 14 ; x++ ){
 154:.\RFPoll.c    ****                             side.a.ppuAuthorized[buffer_rf[8]][x-9] = buffer_rf[x];
 695              		.loc 1 154 0 discriminator 3
 696 030c 9C4C     		ldr	r4, .L97+4
 697 030e 257A     		ldrb	r5, [r4, #8]	@ zero_extendqisi2
 698 0310 E45C     		ldrb	r4, [r4, r3]	@ zero_extendqisi2
 699 0312 9C49     		ldr	r1, .L97+8
 700 0314 01EBC501 		add	r1, r1, r5, lsl #3
 701 0318 1944     		add	r1, r1, r3
 702 031a 81F8AC40 		strb	r4, [r1, #172]
 153:.\RFPoll.c    ****                         for(x=9;x < 14 ; x++ ){
 703              		.loc 1 153 0 discriminator 3
 704 031e 0133     		adds	r3, r3, #1
 705              	.LVL122:
 706 0320 9BB2     		uxth	r3, r3
 707              	.LVL123:
 708 0322 00E0     		b	.L45
 709              	.LVL124:
 710              	.L89:
 711 0324 0923     		movs	r3, #9
 712              	.LVL125:
 713              	.L45:
 153:.\RFPoll.c    ****                         for(x=9;x < 14 ; x++ ){
 714              		.loc 1 153 0 is_stmt 0 discriminator 1
 715 0326 0D2B     		cmp	r3, #13
 716 0328 F0D9     		bls	.L47
 155:.\RFPoll.c    ****                         }
 156:.\RFPoll.c    ****                         side.a.changePPU = true;
 717              		.loc 1 156 0 is_stmt 1
 718 032a 0121     		movs	r1, #1
 719 032c 954B     		ldr	r3, .L97+8
 720              	.LVL126:
 721 032e 83F80511 		strb	r1, [r3, #261]
 157:.\RFPoll.c    ****                         CGrade = buffer_rf[8];
 722              		.loc 1 157 0
 723 0332 934B     		ldr	r3, .L97+4
 724 0334 197A     		ldrb	r1, [r3, #8]	@ zero_extendqisi2
ARM GAS  C:\Users\RECEPC~1\AppData\Local\Temp\cctZPkat.s 			page 17


 725 0336 944B     		ldr	r3, .L97+12
 726 0338 1970     		strb	r1, [r3]
 158:.\RFPoll.c    ****                         buffer_tx[5] = side.a.dir;y++;
 727              		.loc 1 158 0
 728 033a 904B     		ldr	r3, .L97
 729 033c 5871     		strb	r0, [r3, #5]
 730              	.LVL127:
 159:.\RFPoll.c    ****                         buffer_tx[y] = 0xA6;y++;
 731              		.loc 1 159 0
 732 033e A621     		movs	r1, #166
 733 0340 9971     		strb	r1, [r3, #6]
 734              	.LVL128:
 160:.\RFPoll.c    ****                         buffer_tx[y] = 0x03;y++;
 735              		.loc 1 160 0
 736 0342 0321     		movs	r1, #3
 737 0344 D971     		strb	r1, [r3, #7]
 738              	.LVL129:
 739 0346 0824     		movs	r4, #8
 740              	.LVL130:
 741              	.L46:
 161:.\RFPoll.c    ****                     } 
 162:.\RFPoll.c    ****                     if(buffer_rf[5] == side.b.dir){
 742              		.loc 1 162 0
 743 0348 8E4B     		ldr	r3, .L97+8
 744 034a 93F80601 		ldrb	r0, [r3, #262]	@ zero_extendqisi2
 745 034e 8242     		cmp	r2, r0
 746 0350 23D1     		bne	.L49
 747 0352 0BE0     		b	.L90
 748              	.LVL131:
 749              	.L50:
 163:.\RFPoll.c    ****                         for(x=9;x < 14 ; x++ ){
 164:.\RFPoll.c    ****                             side.b.ppuAuthorized[buffer_rf[8]][x-9] = buffer_rf[x];
 750              		.loc 1 164 0 discriminator 3
 751 0354 8A4D     		ldr	r5, .L97+4
 752 0356 2E7A     		ldrb	r6, [r5, #8]	@ zero_extendqisi2
 753 0358 ED5C     		ldrb	r5, [r5, r3]	@ zero_extendqisi2
 754 035a 8A49     		ldr	r1, .L97+8
 755 035c 01EBC601 		add	r1, r1, r6, lsl #3
 756 0360 1944     		add	r1, r1, r3
 757 0362 81F8B251 		strb	r5, [r1, #434]
 163:.\RFPoll.c    ****                         for(x=9;x < 14 ; x++ ){
 758              		.loc 1 163 0 discriminator 3
 759 0366 0133     		adds	r3, r3, #1
 760              	.LVL132:
 761 0368 9BB2     		uxth	r3, r3
 762              	.LVL133:
 763 036a 00E0     		b	.L48
 764              	.LVL134:
 765              	.L90:
 766 036c 0923     		movs	r3, #9
 767              	.L48:
 768              	.LVL135:
 163:.\RFPoll.c    ****                         for(x=9;x < 14 ; x++ ){
 769              		.loc 1 163 0 is_stmt 0 discriminator 1
 770 036e 0D2B     		cmp	r3, #13
 771 0370 F0D9     		bls	.L50
 165:.\RFPoll.c    ****                         }
ARM GAS  C:\Users\RECEPC~1\AppData\Local\Temp\cctZPkat.s 			page 18


 166:.\RFPoll.c    ****                         side.b.changePPU = true;
 772              		.loc 1 166 0 is_stmt 1
 773 0372 0121     		movs	r1, #1
 774 0374 834B     		ldr	r3, .L97+8
 775              	.LVL136:
 776 0376 83F80B12 		strb	r1, [r3, #523]
 167:.\RFPoll.c    ****                         CGrade = buffer_rf[8];
 777              		.loc 1 167 0
 778 037a 814B     		ldr	r3, .L97+4
 779 037c 197A     		ldrb	r1, [r3, #8]	@ zero_extendqisi2
 780 037e 824B     		ldr	r3, .L97+12
 781 0380 1970     		strb	r1, [r3]
 168:.\RFPoll.c    ****                         buffer_tx[5] = side.b.dir; y++;
 782              		.loc 1 168 0
 783 0382 7E49     		ldr	r1, .L97
 784 0384 4871     		strb	r0, [r1, #5]
 785 0386 631C     		adds	r3, r4, #1
 786 0388 9BB2     		uxth	r3, r3
 787              	.LVL137:
 169:.\RFPoll.c    ****                         buffer_tx[y] = 0xA6;y++;
 788              		.loc 1 169 0
 789 038a A620     		movs	r0, #166
 790 038c C854     		strb	r0, [r1, r3]
 791 038e 0133     		adds	r3, r3, #1
 792              	.LVL138:
 793 0390 9BB2     		uxth	r3, r3
 794              	.LVL139:
 170:.\RFPoll.c    ****                         buffer_tx[y] = 0x03;y++;
 795              		.loc 1 170 0
 796 0392 0320     		movs	r0, #3
 797 0394 C854     		strb	r0, [r1, r3]
 798 0396 0133     		adds	r3, r3, #1
 799              	.LVL140:
 800 0398 9CB2     		uxth	r4, r3
 801              	.LVL141:
 802              	.L49:
 171:.\RFPoll.c    ****                     } 
 172:.\RFPoll.c    ****                     if(buffer_rf[5] == side.c.dir){
 803              		.loc 1 172 0
 804 039a 7A4B     		ldr	r3, .L97+8
 805 039c 93F80C02 		ldrb	r0, [r3, #524]	@ zero_extendqisi2
 806 03a0 8242     		cmp	r2, r0
 807 03a2 23D1     		bne	.L52
 808 03a4 0BE0     		b	.L91
 809              	.LVL142:
 810              	.L53:
 173:.\RFPoll.c    ****                         for(x=9;x < 14 ; x++ ){
 174:.\RFPoll.c    ****                             side.c.ppuAuthorized[buffer_rf[8]][x-9] = buffer_rf[x];
 811              		.loc 1 174 0 discriminator 3
 812 03a6 764D     		ldr	r5, .L97+4
 813 03a8 2E7A     		ldrb	r6, [r5, #8]	@ zero_extendqisi2
 814 03aa ED5C     		ldrb	r5, [r5, r3]	@ zero_extendqisi2
 815 03ac 7549     		ldr	r1, .L97+8
 816 03ae 01EBC601 		add	r1, r1, r6, lsl #3
 817 03b2 1944     		add	r1, r1, r3
 818 03b4 81F8B852 		strb	r5, [r1, #696]
 173:.\RFPoll.c    ****                         for(x=9;x < 14 ; x++ ){
ARM GAS  C:\Users\RECEPC~1\AppData\Local\Temp\cctZPkat.s 			page 19


 819              		.loc 1 173 0 discriminator 3
 820 03b8 0133     		adds	r3, r3, #1
 821              	.LVL143:
 822 03ba 9BB2     		uxth	r3, r3
 823              	.LVL144:
 824 03bc 00E0     		b	.L51
 825              	.LVL145:
 826              	.L91:
 827 03be 0923     		movs	r3, #9
 828              	.L51:
 829              	.LVL146:
 173:.\RFPoll.c    ****                         for(x=9;x < 14 ; x++ ){
 830              		.loc 1 173 0 is_stmt 0 discriminator 1
 831 03c0 0D2B     		cmp	r3, #13
 832 03c2 F0D9     		bls	.L53
 175:.\RFPoll.c    ****                         }
 176:.\RFPoll.c    ****                         side.c.changePPU = true;
 833              		.loc 1 176 0 is_stmt 1
 834 03c4 0121     		movs	r1, #1
 835 03c6 6F4B     		ldr	r3, .L97+8
 836              	.LVL147:
 837 03c8 83F81113 		strb	r1, [r3, #785]
 177:.\RFPoll.c    ****                         CGrade = buffer_rf[8];
 838              		.loc 1 177 0
 839 03cc 6C4B     		ldr	r3, .L97+4
 840 03ce 197A     		ldrb	r1, [r3, #8]	@ zero_extendqisi2
 841 03d0 6D4B     		ldr	r3, .L97+12
 842 03d2 1970     		strb	r1, [r3]
 178:.\RFPoll.c    ****                         buffer_tx[5] = side.c.dir; y++;
 843              		.loc 1 178 0
 844 03d4 6949     		ldr	r1, .L97
 845 03d6 4871     		strb	r0, [r1, #5]
 846 03d8 631C     		adds	r3, r4, #1
 847 03da 9BB2     		uxth	r3, r3
 848              	.LVL148:
 179:.\RFPoll.c    ****                         buffer_tx[y] = 0xA6;y++;
 849              		.loc 1 179 0
 850 03dc A620     		movs	r0, #166
 851 03de C854     		strb	r0, [r1, r3]
 852 03e0 0133     		adds	r3, r3, #1
 853              	.LVL149:
 854 03e2 9BB2     		uxth	r3, r3
 855              	.LVL150:
 180:.\RFPoll.c    ****                         buffer_tx[y] = 0x03;y++;
 856              		.loc 1 180 0
 857 03e4 0320     		movs	r0, #3
 858 03e6 C854     		strb	r0, [r1, r3]
 859 03e8 0133     		adds	r3, r3, #1
 860              	.LVL151:
 861 03ea 9CB2     		uxth	r4, r3
 862              	.LVL152:
 863              	.L52:
 181:.\RFPoll.c    ****                     } 
 182:.\RFPoll.c    ****                     if(buffer_rf[5] == side.d.dir){
 864              		.loc 1 182 0
 865 03ec 654B     		ldr	r3, .L97+8
 866 03ee 93F81213 		ldrb	r1, [r3, #786]	@ zero_extendqisi2
ARM GAS  C:\Users\RECEPC~1\AppData\Local\Temp\cctZPkat.s 			page 20


 867 03f2 8A42     		cmp	r2, r1
 868 03f4 1FD1     		bne	.L55
 869 03f6 0BE0     		b	.L92
 870              	.LVL153:
 871              	.L56:
 183:.\RFPoll.c    ****                         for(x=9;x < 14 ; x++ ){
 184:.\RFPoll.c    ****                             side.d.ppuAuthorized[buffer_rf[8]][x-9] = buffer_rf[x];
 872              		.loc 1 184 0 discriminator 3
 873 03f8 6148     		ldr	r0, .L97+4
 874 03fa 057A     		ldrb	r5, [r0, #8]	@ zero_extendqisi2
 875 03fc C05C     		ldrb	r0, [r0, r3]	@ zero_extendqisi2
 876 03fe 614A     		ldr	r2, .L97+8
 877 0400 02EBC502 		add	r2, r2, r5, lsl #3
 878 0404 1A44     		add	r2, r2, r3
 879 0406 82F8BE03 		strb	r0, [r2, #958]
 183:.\RFPoll.c    ****                         for(x=9;x < 14 ; x++ ){
 880              		.loc 1 183 0 discriminator 3
 881 040a 0133     		adds	r3, r3, #1
 882              	.LVL154:
 883 040c 9BB2     		uxth	r3, r3
 884              	.LVL155:
 885 040e 00E0     		b	.L54
 886              	.LVL156:
 887              	.L92:
 888 0410 0923     		movs	r3, #9
 889              	.L54:
 890              	.LVL157:
 183:.\RFPoll.c    ****                         for(x=9;x < 14 ; x++ ){
 891              		.loc 1 183 0 is_stmt 0 discriminator 1
 892 0412 0D2B     		cmp	r3, #13
 893 0414 F0D9     		bls	.L56
 185:.\RFPoll.c    ****                         }
 186:.\RFPoll.c    ****                         side.d.changePPU = true;
 894              		.loc 1 186 0 is_stmt 1
 895 0416 0122     		movs	r2, #1
 896 0418 5A4B     		ldr	r3, .L97+8
 897              	.LVL158:
 898 041a 83F81724 		strb	r2, [r3, #1047]
 187:.\RFPoll.c    ****                         buffer_tx[5] = side.d.dir; y++;
 899              		.loc 1 187 0
 900 041e 574A     		ldr	r2, .L97
 901 0420 5171     		strb	r1, [r2, #5]
 902 0422 631C     		adds	r3, r4, #1
 903 0424 9BB2     		uxth	r3, r3
 904              	.LVL159:
 188:.\RFPoll.c    ****                         buffer_tx[y] = 0xA6;y++;
 905              		.loc 1 188 0
 906 0426 A621     		movs	r1, #166
 907 0428 D154     		strb	r1, [r2, r3]
 908 042a 0133     		adds	r3, r3, #1
 909              	.LVL160:
 910 042c 9BB2     		uxth	r3, r3
 911              	.LVL161:
 189:.\RFPoll.c    ****                         buffer_tx[y] = 0x03;y++;
 912              		.loc 1 189 0
 913 042e 0321     		movs	r1, #3
 914 0430 D154     		strb	r1, [r2, r3]
ARM GAS  C:\Users\RECEPC~1\AppData\Local\Temp\cctZPkat.s 			page 21


 915 0432 0133     		adds	r3, r3, #1
 916              	.LVL162:
 917 0434 9CB2     		uxth	r4, r3
 918              	.LVL163:
 919              	.L55:
 190:.\RFPoll.c    ****                     }
 191:.\RFPoll.c    ****                     buffer_tx[y] = verificar_check(buffer_tx,y+1);y++;
 920              		.loc 1 191 0
 921 0436 651C     		adds	r5, r4, #1
 922 0438 ADB2     		uxth	r5, r5
 923 043a 504E     		ldr	r6, .L97
 924 043c 3046     		mov	r0, r6
 925 043e 2946     		mov	r1, r5
 926 0440 FFF7FEFF 		bl	verificar_check
 927              	.LVL164:
 928 0444 3055     		strb	r0, [r6, r4]
 929              	.LVL165:
 192:.\RFPoll.c    ****                     for (x = 0; x < y; x++){
 930              		.loc 1 192 0
 931 0446 0024     		movs	r4, #0
 932 0448 05E0     		b	.L57
 933              	.LVL166:
 934              	.L58:
 193:.\RFPoll.c    ****                         RF_Connection_PutChar(buffer_tx[x]);
 935              		.loc 1 193 0 discriminator 3
 936 044a 4C4B     		ldr	r3, .L97
 937 044c 185D     		ldrb	r0, [r3, r4]	@ zero_extendqisi2
 938 044e FFF7FEFF 		bl	RF_Connection_PutChar
 939              	.LVL167:
 192:.\RFPoll.c    ****                     for (x = 0; x < y; x++){
 940              		.loc 1 192 0 discriminator 3
 941 0452 0134     		adds	r4, r4, #1
 942              	.LVL168:
 943 0454 A4B2     		uxth	r4, r4
 944              	.LVL169:
 945              	.L57:
 192:.\RFPoll.c    ****                     for (x = 0; x < y; x++){
 946              		.loc 1 192 0 is_stmt 0 discriminator 1
 947 0456 AC42     		cmp	r4, r5
 948 0458 F7D3     		bcc	.L58
 949 045a 1EE1     		b	.L9
 950              	.LVL170:
 951              	.L18:
 194:.\RFPoll.c    ****                     }
 195:.\RFPoll.c    ****                    break;
 196:.\RFPoll.c    ****                     
 197:.\RFPoll.c    ****                    case 0xA7:               //Impresion general
 198:.\RFPoll.c    ****                     
 199:.\RFPoll.c    ****                     if(buffer_rf[5] == side.a.dir){
 952              		.loc 1 199 0 is_stmt 1
 953 045c 484B     		ldr	r3, .L97+4
 954 045e 5B79     		ldrb	r3, [r3, #5]	@ zero_extendqisi2
 955 0460 484A     		ldr	r2, .L97+8
 956 0462 1178     		ldrb	r1, [r2]	@ zero_extendqisi2
 957 0464 8B42     		cmp	r3, r1
 958 0466 07D1     		bne	.L59
 200:.\RFPoll.c    ****                         buffer_tx[5] = side.a.dir;
ARM GAS  C:\Users\RECEPC~1\AppData\Local\Temp\cctZPkat.s 			page 22


 959              		.loc 1 200 0
 960 0468 444A     		ldr	r2, .L97
 961 046a 5171     		strb	r1, [r2, #5]
 201:.\RFPoll.c    ****                         buffer_tx[6] = 0xA7;
 962              		.loc 1 201 0
 963 046c A721     		movs	r1, #167
 964 046e 9171     		strb	r1, [r2, #6]
 202:.\RFPoll.c    ****                         buffer_tx[7] = side.a.rfState;
 965              		.loc 1 202 0
 966 0470 4449     		ldr	r1, .L97+8
 967 0472 91F80311 		ldrb	r1, [r1, #259]	@ zero_extendqisi2
 968 0476 D171     		strb	r1, [r2, #7]
 969              	.L59:
 203:.\RFPoll.c    ****                     }  
 204:.\RFPoll.c    ****                     if(buffer_rf[5] == side.b.dir){
 970              		.loc 1 204 0
 971 0478 424A     		ldr	r2, .L97+8
 972 047a 92F80611 		ldrb	r1, [r2, #262]	@ zero_extendqisi2
 973 047e 8B42     		cmp	r3, r1
 974 0480 07D1     		bne	.L60
 205:.\RFPoll.c    ****                         buffer_tx[5] = side.b.dir;
 975              		.loc 1 205 0
 976 0482 3E4A     		ldr	r2, .L97
 977 0484 5171     		strb	r1, [r2, #5]
 206:.\RFPoll.c    ****                         buffer_tx[6] = 0xA7;
 978              		.loc 1 206 0
 979 0486 A721     		movs	r1, #167
 980 0488 9171     		strb	r1, [r2, #6]
 207:.\RFPoll.c    ****                         buffer_tx[7] = side.b.rfState;
 981              		.loc 1 207 0
 982 048a 3E49     		ldr	r1, .L97+8
 983 048c 91F80912 		ldrb	r1, [r1, #521]	@ zero_extendqisi2
 984 0490 D171     		strb	r1, [r2, #7]
 985              	.L60:
 208:.\RFPoll.c    ****                     }
 209:.\RFPoll.c    ****                     if(buffer_rf[5] == side.c.dir){
 986              		.loc 1 209 0
 987 0492 3C4A     		ldr	r2, .L97+8
 988 0494 92F80C12 		ldrb	r1, [r2, #524]	@ zero_extendqisi2
 989 0498 8B42     		cmp	r3, r1
 990 049a 07D1     		bne	.L61
 210:.\RFPoll.c    ****                         buffer_tx[5] = side.c.dir;
 991              		.loc 1 210 0
 992 049c 374A     		ldr	r2, .L97
 993 049e 5171     		strb	r1, [r2, #5]
 211:.\RFPoll.c    ****                         buffer_tx[6] = 0xA7;
 994              		.loc 1 211 0
 995 04a0 A721     		movs	r1, #167
 996 04a2 9171     		strb	r1, [r2, #6]
 212:.\RFPoll.c    ****                         buffer_tx[7] = side.c.rfState;
 997              		.loc 1 212 0
 998 04a4 3749     		ldr	r1, .L97+8
 999 04a6 91F80F13 		ldrb	r1, [r1, #783]	@ zero_extendqisi2
 1000 04aa D171     		strb	r1, [r2, #7]
 1001              	.L61:
 213:.\RFPoll.c    ****                     }
 214:.\RFPoll.c    ****                     if(buffer_rf[5] == side.d.dir){
ARM GAS  C:\Users\RECEPC~1\AppData\Local\Temp\cctZPkat.s 			page 23


 1002              		.loc 1 214 0
 1003 04ac 354A     		ldr	r2, .L97+8
 1004 04ae 92F81223 		ldrb	r2, [r2, #786]	@ zero_extendqisi2
 1005 04b2 9342     		cmp	r3, r2
 1006 04b4 07D1     		bne	.L62
 215:.\RFPoll.c    ****                         buffer_tx[5] = side.d.dir;
 1007              		.loc 1 215 0
 1008 04b6 314B     		ldr	r3, .L97
 1009 04b8 5A71     		strb	r2, [r3, #5]
 216:.\RFPoll.c    ****                         buffer_tx[6] = 0xA7;
 1010              		.loc 1 216 0
 1011 04ba A722     		movs	r2, #167
 1012 04bc 9A71     		strb	r2, [r3, #6]
 217:.\RFPoll.c    ****                         buffer_tx[7] = side.d.rfState;
 1013              		.loc 1 217 0
 1014 04be 314A     		ldr	r2, .L97+8
 1015 04c0 92F81524 		ldrb	r2, [r2, #1045]	@ zero_extendqisi2
 1016 04c4 DA71     		strb	r2, [r3, #7]
 1017              	.L62:
 218:.\RFPoll.c    ****                     }
 219:.\RFPoll.c    ****                     buffer_tx[8] = verificar_check(buffer_tx,9);
 1018              		.loc 1 219 0
 1019 04c6 2D4C     		ldr	r4, .L97
 1020              	.LVL171:
 1021 04c8 2046     		mov	r0, r4
 1022 04ca 0921     		movs	r1, #9
 1023 04cc FFF7FEFF 		bl	verificar_check
 1024              	.LVL172:
 1025 04d0 2072     		strb	r0, [r4, #8]
 1026              	.LVL173:
 220:.\RFPoll.c    ****                     for (x = 0; x < 9; x++){
 1027              		.loc 1 220 0
 1028 04d2 0024     		movs	r4, #0
 1029 04d4 05E0     		b	.L63
 1030              	.LVL174:
 1031              	.L64:
 221:.\RFPoll.c    ****                         RF_Connection_PutChar(buffer_tx[x]);
 1032              		.loc 1 221 0 discriminator 3
 1033 04d6 294B     		ldr	r3, .L97
 1034 04d8 185D     		ldrb	r0, [r3, r4]	@ zero_extendqisi2
 1035 04da FFF7FEFF 		bl	RF_Connection_PutChar
 1036              	.LVL175:
 220:.\RFPoll.c    ****                     for (x = 0; x < 9; x++){
 1037              		.loc 1 220 0 discriminator 3
 1038 04de 0134     		adds	r4, r4, #1
 1039              	.LVL176:
 1040 04e0 A4B2     		uxth	r4, r4
 1041              	.LVL177:
 1042              	.L63:
 220:.\RFPoll.c    ****                     for (x = 0; x < 9; x++){
 1043              		.loc 1 220 0 is_stmt 0 discriminator 1
 1044 04e2 082C     		cmp	r4, #8
 1045 04e4 F7D9     		bls	.L64
 1046 04e6 D8E0     		b	.L9
 1047              	.LVL178:
 1048              	.L16:
 222:.\RFPoll.c    ****                     }
ARM GAS  C:\Users\RECEPC~1\AppData\Local\Temp\cctZPkat.s 			page 24


 223:.\RFPoll.c    ****                     
 224:.\RFPoll.c    ****                    break;
 225:.\RFPoll.c    ****                    case 0xAB:
 226:.\RFPoll.c    ****                     buffer_tx[0] = 0xBC;
 227:.\RFPoll.c    ****                    break;
 228:.\RFPoll.c    ****                     
 229:.\RFPoll.c    ****                    case 0xE1:               //Configuracion de la estacion
 230:.\RFPoll.c    ****                     symbols[1] = buffer_rf[8];
 1049              		.loc 1 230 0 is_stmt 1
 1050 04e8 254B     		ldr	r3, .L97+4
 1051 04ea 197A     		ldrb	r1, [r3, #8]	@ zero_extendqisi2
 1052 04ec 274A     		ldr	r2, .L97+16
 1053 04ee 5170     		strb	r1, [r2, #1]
 231:.\RFPoll.c    ****                     date[0]    = buffer_rf[9];
 1054              		.loc 1 231 0
 1055 04f0 597A     		ldrb	r1, [r3, #9]	@ zero_extendqisi2
 1056 04f2 274A     		ldr	r2, .L97+20
 1057 04f4 1170     		strb	r1, [r2]
 232:.\RFPoll.c    ****                     date[1]    = buffer_rf[10];
 1058              		.loc 1 232 0
 1059 04f6 997A     		ldrb	r1, [r3, #10]	@ zero_extendqisi2
 1060 04f8 5170     		strb	r1, [r2, #1]
 233:.\RFPoll.c    ****                     date[2]    = buffer_rf[11];
 1061              		.loc 1 233 0
 1062 04fa D97A     		ldrb	r1, [r3, #11]	@ zero_extendqisi2
 1063 04fc 9170     		strb	r1, [r2, #2]
 234:.\RFPoll.c    ****                     time[1]    = buffer_rf[12];
 1064              		.loc 1 234 0
 1065 04fe 197B     		ldrb	r1, [r3, #12]	@ zero_extendqisi2
 1066 0500 244A     		ldr	r2, .L97+24
 1067 0502 5170     		strb	r1, [r2, #1]
 235:.\RFPoll.c    ****                     time[0]    = buffer_rf[13];
 1068              		.loc 1 235 0
 1069 0504 5B7B     		ldrb	r3, [r3, #13]	@ zero_extendqisi2
 1070 0506 1370     		strb	r3, [r2]
 1071              	.LVL179:
 236:.\RFPoll.c    ****                     for(x = 17; x < 47; x++){
 1072              		.loc 1 236 0
 1073 0508 1123     		movs	r3, #17
 1074 050a 07E0     		b	.L65
 1075              	.LVL180:
 1076              	.L66:
 237:.\RFPoll.c    ****                         Encabezado1[x-17] = buffer_rf[x];
 1077              		.loc 1 237 0 discriminator 3
 1078 050c A3F11102 		sub	r2, r3, #17
 1079 0510 1B49     		ldr	r1, .L97+4
 1080 0512 C85C     		ldrb	r0, [r1, r3]	@ zero_extendqisi2
 1081 0514 2049     		ldr	r1, .L97+28
 1082 0516 8854     		strb	r0, [r1, r2]
 236:.\RFPoll.c    ****                     for(x = 17; x < 47; x++){
 1083              		.loc 1 236 0 discriminator 3
 1084 0518 0133     		adds	r3, r3, #1
 1085              	.LVL181:
 1086 051a 9BB2     		uxth	r3, r3
 1087              	.LVL182:
 1088              	.L65:
 236:.\RFPoll.c    ****                     for(x = 17; x < 47; x++){
ARM GAS  C:\Users\RECEPC~1\AppData\Local\Temp\cctZPkat.s 			page 25


 1089              		.loc 1 236 0 is_stmt 0 discriminator 1
 1090 051c 2E2B     		cmp	r3, #46
 1091 051e F5D9     		bls	.L66
 1092 0520 2F23     		movs	r3, #47
 1093              	.LVL183:
 1094 0522 07E0     		b	.L67
 1095              	.LVL184:
 1096              	.L68:
 238:.\RFPoll.c    ****                     }
 239:.\RFPoll.c    ****                     for(x = 47; x < 77; x++){
 240:.\RFPoll.c    ****                         Encabezado2[x-47] = buffer_rf[x];
 1097              		.loc 1 240 0 is_stmt 1 discriminator 3
 1098 0524 A3F12F02 		sub	r2, r3, #47
 1099 0528 1549     		ldr	r1, .L97+4
 1100 052a C85C     		ldrb	r0, [r1, r3]	@ zero_extendqisi2
 1101 052c 1B49     		ldr	r1, .L97+32
 1102 052e 8854     		strb	r0, [r1, r2]
 239:.\RFPoll.c    ****                         Encabezado2[x-47] = buffer_rf[x];
 1103              		.loc 1 239 0 discriminator 3
 1104 0530 0133     		adds	r3, r3, #1
 1105              	.LVL185:
 1106 0532 9BB2     		uxth	r3, r3
 1107              	.LVL186:
 1108              	.L67:
 239:.\RFPoll.c    ****                         Encabezado2[x-47] = buffer_rf[x];
 1109              		.loc 1 239 0 is_stmt 0 discriminator 1
 1110 0534 4C2B     		cmp	r3, #76
 1111 0536 F5D9     		bls	.L68
 1112 0538 4D23     		movs	r3, #77
 1113              	.LVL187:
 1114 053a 07E0     		b	.L69
 1115              	.LVL188:
 1116              	.L70:
 241:.\RFPoll.c    ****                     }
 242:.\RFPoll.c    ****                     for(x = 77; x < 107; x++){
 243:.\RFPoll.c    ****                         Encabezado3[x-77] = buffer_rf[x];
 1117              		.loc 1 243 0 is_stmt 1 discriminator 3
 1118 053c A3F14D02 		sub	r2, r3, #77
 1119 0540 0F49     		ldr	r1, .L97+4
 1120 0542 C85C     		ldrb	r0, [r1, r3]	@ zero_extendqisi2
 1121 0544 1649     		ldr	r1, .L97+36
 1122 0546 8854     		strb	r0, [r1, r2]
 242:.\RFPoll.c    ****                         Encabezado3[x-77] = buffer_rf[x];
 1123              		.loc 1 242 0 discriminator 3
 1124 0548 0133     		adds	r3, r3, #1
 1125              	.LVL189:
 1126 054a 9BB2     		uxth	r3, r3
 1127              	.LVL190:
 1128              	.L69:
 242:.\RFPoll.c    ****                         Encabezado3[x-77] = buffer_rf[x];
 1129              		.loc 1 242 0 is_stmt 0 discriminator 1
 1130 054c 6A2B     		cmp	r3, #106
 1131 054e F5D9     		bls	.L70
 1132 0550 6B23     		movs	r3, #107
 1133              	.LVL191:
 1134 0552 07E0     		b	.L71
 1135              	.LVL192:
ARM GAS  C:\Users\RECEPC~1\AppData\Local\Temp\cctZPkat.s 			page 26


 1136              	.L72:
 244:.\RFPoll.c    ****                     }
 245:.\RFPoll.c    ****                     for(x = 107; x < 137; x++){
 246:.\RFPoll.c    ****                         Encabezado4[x-77] = buffer_rf[x];
 1137              		.loc 1 246 0 is_stmt 1 discriminator 3
 1138 0554 A3F14D02 		sub	r2, r3, #77
 1139 0558 0949     		ldr	r1, .L97+4
 1140 055a C85C     		ldrb	r0, [r1, r3]	@ zero_extendqisi2
 1141 055c 1149     		ldr	r1, .L97+40
 1142 055e 8854     		strb	r0, [r1, r2]
 245:.\RFPoll.c    ****                         Encabezado4[x-77] = buffer_rf[x];
 1143              		.loc 1 245 0 discriminator 3
 1144 0560 0133     		adds	r3, r3, #1
 1145              	.LVL193:
 1146 0562 9BB2     		uxth	r3, r3
 1147              	.LVL194:
 1148              	.L71:
 245:.\RFPoll.c    ****                         Encabezado4[x-77] = buffer_rf[x];
 1149              		.loc 1 245 0 is_stmt 0 discriminator 1
 1150 0564 882B     		cmp	r3, #136
 1151 0566 F5D9     		bls	.L72
 247:.\RFPoll.c    ****                     }
 248:.\RFPoll.c    ****                     CopiasCredito = buffer_rf[16];
 1152              		.loc 1 248 0 is_stmt 1
 1153 0568 054B     		ldr	r3, .L97+4
 1154              	.LVL195:
 1155 056a 1A7C     		ldrb	r2, [r3, #16]	@ zero_extendqisi2
 1156 056c 0E4B     		ldr	r3, .L97+44
 1157 056e 1A70     		strb	r2, [r3]
 249:.\RFPoll.c    ****                     write_hora();
 1158              		.loc 1 249 0
 1159 0570 FFF7FEFF 		bl	write_hora
 1160              	.LVL196:
 250:.\RFPoll.c    ****                     write_fecha(); 
 1161              		.loc 1 250 0
 1162 0574 FFF7FEFF 		bl	write_fecha
 1163              	.LVL197:
 251:.\RFPoll.c    ****                     for(x =0 ; x <30; x++){
 1164              		.loc 1 251 0
 1165 0578 0024     		movs	r4, #0
 1166              	.LVL198:
 1167 057a 20E0     		b	.L73
 1168              	.L98:
 1169              		.align	2
 1170              	.L97:
 1171 057c 00000000 		.word	buffer_tx
 1172 0580 00000000 		.word	buffer_rf
 1173 0584 00000000 		.word	side
 1174 0588 00000000 		.word	CGrade
 1175 058c 00000000 		.word	symbols
 1176 0590 00000000 		.word	date
 1177 0594 00000000 		.word	time
 1178 0598 00000000 		.word	Encabezado1
 1179 059c 00000000 		.word	Encabezado2
 1180 05a0 00000000 		.word	Encabezado3
 1181 05a4 00000000 		.word	Encabezado4
 1182 05a8 00000000 		.word	CopiasCredito
ARM GAS  C:\Users\RECEPC~1\AppData\Local\Temp\cctZPkat.s 			page 27


 1183              	.LVL199:
 1184              	.L74:
 252:.\RFPoll.c    ****                         EEPROM_1_WriteByte(Encabezado1[x],16+x);
 1185              		.loc 1 252 0 discriminator 3
 1186 05ac 04F11001 		add	r1, r4, #16
 1187 05b0 3E4B     		ldr	r3, .L99
 1188 05b2 185D     		ldrb	r0, [r3, r4]	@ zero_extendqisi2
 1189 05b4 89B2     		uxth	r1, r1
 1190 05b6 FFF7FEFF 		bl	EEPROM_1_WriteByte
 1191              	.LVL200:
 251:.\RFPoll.c    ****                     for(x =0 ; x <30; x++){
 1192              		.loc 1 251 0 discriminator 3
 1193 05ba 0134     		adds	r4, r4, #1
 1194              	.LVL201:
 1195 05bc A4B2     		uxth	r4, r4
 1196              	.LVL202:
 1197              	.L73:
 251:.\RFPoll.c    ****                     for(x =0 ; x <30; x++){
 1198              		.loc 1 251 0 is_stmt 0 discriminator 1
 1199 05be 1D2C     		cmp	r4, #29
 1200 05c0 F4D9     		bls	.L74
 1201 05c2 1E24     		movs	r4, #30
 1202              	.LVL203:
 1203 05c4 0AE0     		b	.L75
 1204              	.LVL204:
 1205              	.L76:
 253:.\RFPoll.c    ****                     }
 254:.\RFPoll.c    ****                     for(x =30 ; x <60; x++){
 255:.\RFPoll.c    ****                         EEPROM_1_WriteByte(Encabezado2[x-30],16+x);
 1206              		.loc 1 255 0 is_stmt 1 discriminator 3
 1207 05c6 A4F11E03 		sub	r3, r4, #30
 1208 05ca 04F11001 		add	r1, r4, #16
 1209 05ce 384A     		ldr	r2, .L99+4
 1210 05d0 D05C     		ldrb	r0, [r2, r3]	@ zero_extendqisi2
 1211 05d2 89B2     		uxth	r1, r1
 1212 05d4 FFF7FEFF 		bl	EEPROM_1_WriteByte
 1213              	.LVL205:
 254:.\RFPoll.c    ****                         EEPROM_1_WriteByte(Encabezado2[x-30],16+x);
 1214              		.loc 1 254 0 discriminator 3
 1215 05d8 0134     		adds	r4, r4, #1
 1216              	.LVL206:
 1217 05da A4B2     		uxth	r4, r4
 1218              	.LVL207:
 1219              	.L75:
 254:.\RFPoll.c    ****                         EEPROM_1_WriteByte(Encabezado2[x-30],16+x);
 1220              		.loc 1 254 0 is_stmt 0 discriminator 1
 1221 05dc 3B2C     		cmp	r4, #59
 1222 05de F2D9     		bls	.L76
 1223 05e0 3C24     		movs	r4, #60
 1224              	.LVL208:
 1225 05e2 0AE0     		b	.L77
 1226              	.LVL209:
 1227              	.L78:
 256:.\RFPoll.c    ****                     }
 257:.\RFPoll.c    ****                     for(x =60 ; x <90; x++){
 258:.\RFPoll.c    ****                         EEPROM_1_WriteByte(Encabezado3[x-30],16+x);
 1228              		.loc 1 258 0 is_stmt 1 discriminator 3
ARM GAS  C:\Users\RECEPC~1\AppData\Local\Temp\cctZPkat.s 			page 28


 1229 05e4 A4F11E03 		sub	r3, r4, #30
 1230 05e8 04F11001 		add	r1, r4, #16
 1231 05ec 314A     		ldr	r2, .L99+8
 1232 05ee D05C     		ldrb	r0, [r2, r3]	@ zero_extendqisi2
 1233 05f0 89B2     		uxth	r1, r1
 1234 05f2 FFF7FEFF 		bl	EEPROM_1_WriteByte
 1235              	.LVL210:
 257:.\RFPoll.c    ****                         EEPROM_1_WriteByte(Encabezado3[x-30],16+x);
 1236              		.loc 1 257 0 discriminator 3
 1237 05f6 0134     		adds	r4, r4, #1
 1238              	.LVL211:
 1239 05f8 A4B2     		uxth	r4, r4
 1240              	.LVL212:
 1241              	.L77:
 257:.\RFPoll.c    ****                         EEPROM_1_WriteByte(Encabezado3[x-30],16+x);
 1242              		.loc 1 257 0 is_stmt 0 discriminator 1
 1243 05fa 592C     		cmp	r4, #89
 1244 05fc F2D9     		bls	.L78
 1245 05fe 5A24     		movs	r4, #90
 1246              	.LVL213:
 1247 0600 0AE0     		b	.L79
 1248              	.LVL214:
 1249              	.L80:
 259:.\RFPoll.c    ****                     }
 260:.\RFPoll.c    ****                     for(x =90 ; x <120; x++){
 261:.\RFPoll.c    ****                         EEPROM_1_WriteByte(Encabezado4[x-30],16+x);
 1250              		.loc 1 261 0 is_stmt 1 discriminator 3
 1251 0602 A4F11E03 		sub	r3, r4, #30
 1252 0606 04F11001 		add	r1, r4, #16
 1253 060a 2B4A     		ldr	r2, .L99+12
 1254 060c D05C     		ldrb	r0, [r2, r3]	@ zero_extendqisi2
 1255 060e 89B2     		uxth	r1, r1
 1256 0610 FFF7FEFF 		bl	EEPROM_1_WriteByte
 1257              	.LVL215:
 260:.\RFPoll.c    ****                         EEPROM_1_WriteByte(Encabezado4[x-30],16+x);
 1258              		.loc 1 260 0 discriminator 3
 1259 0614 0134     		adds	r4, r4, #1
 1260              	.LVL216:
 1261 0616 A4B2     		uxth	r4, r4
 1262              	.LVL217:
 1263              	.L79:
 260:.\RFPoll.c    ****                         EEPROM_1_WriteByte(Encabezado4[x-30],16+x);
 1264              		.loc 1 260 0 is_stmt 0 discriminator 1
 1265 0618 772C     		cmp	r4, #119
 1266 061a F2D9     		bls	.L80
 262:.\RFPoll.c    ****                     }
 263:.\RFPoll.c    ****                     side.a.dir = EEPROM_1_ReadByte(12);
 1267              		.loc 1 263 0 is_stmt 1
 1268 061c 0C20     		movs	r0, #12
 1269 061e FFF7FEFF 		bl	EEPROM_1_ReadByte
 1270              	.LVL218:
 1271 0622 264C     		ldr	r4, .L99+16
 1272              	.LVL219:
 1273 0624 2070     		strb	r0, [r4]
 264:.\RFPoll.c    ****                     side.b.dir = EEPROM_1_ReadByte(13);
 1274              		.loc 1 264 0
 1275 0626 0D20     		movs	r0, #13
ARM GAS  C:\Users\RECEPC~1\AppData\Local\Temp\cctZPkat.s 			page 29


 1276 0628 FFF7FEFF 		bl	EEPROM_1_ReadByte
 1277              	.LVL220:
 1278 062c 84F80601 		strb	r0, [r4, #262]
 265:.\RFPoll.c    ****                     side.c.dir = EEPROM_1_ReadByte(14);
 1279              		.loc 1 265 0
 1280 0630 0E20     		movs	r0, #14
 1281 0632 FFF7FEFF 		bl	EEPROM_1_ReadByte
 1282              	.LVL221:
 1283 0636 84F80C02 		strb	r0, [r4, #524]
 266:.\RFPoll.c    ****                     side.d.dir = EEPROM_1_ReadByte(15);
 1284              		.loc 1 266 0
 1285 063a 0F20     		movs	r0, #15
 1286 063c FFF7FEFF 		bl	EEPROM_1_ReadByte
 1287              	.LVL222:
 1288 0640 84F81203 		strb	r0, [r4, #786]
 267:.\RFPoll.c    ****                     imprimir(printPortA,side.a.dir);
 1289              		.loc 1 267 0
 1290 0644 1E4B     		ldr	r3, .L99+20
 1291 0646 1878     		ldrb	r0, [r3]	@ zero_extendqisi2
 1292 0648 2178     		ldrb	r1, [r4]	@ zero_extendqisi2
 1293 064a FFF7FEFF 		bl	imprimir
 1294              	.LVL223:
 268:.\RFPoll.c    ****                    break;
 1295              		.loc 1 268 0
 1296 064e 24E0     		b	.L9
 1297              	.LVL224:
 1298              	.L17:
 269:.\RFPoll.c    ****                    
 270:.\RFPoll.c    ****                    case 0xE2:               //Configuracion de la posicion                         
 271:.\RFPoll.c    ****                     buffer_tx[5] = buffer_rf[5];
 1299              		.loc 1 271 0
 1300 0650 1C4B     		ldr	r3, .L99+24
 1301 0652 5B79     		ldrb	r3, [r3, #5]	@ zero_extendqisi2
 1302 0654 1C4C     		ldr	r4, .L99+28
 1303              	.LVL225:
 1304 0656 6371     		strb	r3, [r4, #5]
 272:.\RFPoll.c    ****                     buffer_tx[6] = 0xE2;
 1305              		.loc 1 272 0
 1306 0658 E223     		movs	r3, #226
 1307 065a A371     		strb	r3, [r4, #6]
 273:.\RFPoll.c    ****                     buffer_tx[7] = 0x08;
 1308              		.loc 1 273 0
 1309 065c 0823     		movs	r3, #8
 1310 065e E371     		strb	r3, [r4, #7]
 274:.\RFPoll.c    ****                     buffer_tx[8] = 0x03;
 1311              		.loc 1 274 0
 1312 0660 0323     		movs	r3, #3
 1313 0662 2372     		strb	r3, [r4, #8]
 275:.\RFPoll.c    ****                     buffer_tx[9] = verificar_check(buffer_tx,10);
 1314              		.loc 1 275 0
 1315 0664 2046     		mov	r0, r4
 1316 0666 0A21     		movs	r1, #10
 1317 0668 FFF7FEFF 		bl	verificar_check
 1318              	.LVL226:
 1319 066c 6072     		strb	r0, [r4, #9]
 1320              	.LVL227:
 276:.\RFPoll.c    ****                     for (x = 0; x < 10; x++){
ARM GAS  C:\Users\RECEPC~1\AppData\Local\Temp\cctZPkat.s 			page 30


 1321              		.loc 1 276 0
 1322 066e 0024     		movs	r4, #0
 1323 0670 05E0     		b	.L81
 1324              	.LVL228:
 1325              	.L82:
 277:.\RFPoll.c    ****                         RF_Connection_PutChar(buffer_tx[x]);
 1326              		.loc 1 277 0 discriminator 3
 1327 0672 154B     		ldr	r3, .L99+28
 1328 0674 185D     		ldrb	r0, [r3, r4]	@ zero_extendqisi2
 1329 0676 FFF7FEFF 		bl	RF_Connection_PutChar
 1330              	.LVL229:
 276:.\RFPoll.c    ****                     for (x = 0; x < 10; x++){
 1331              		.loc 1 276 0 discriminator 3
 1332 067a 0134     		adds	r4, r4, #1
 1333              	.LVL230:
 1334 067c A4B2     		uxth	r4, r4
 1335              	.LVL231:
 1336              	.L81:
 276:.\RFPoll.c    ****                     for (x = 0; x < 10; x++){
 1337              		.loc 1 276 0 is_stmt 0 discriminator 1
 1338 067e 092C     		cmp	r4, #9
 1339 0680 F7D9     		bls	.L82
 1340 0682 0823     		movs	r3, #8
 1341 0684 07E0     		b	.L83
 1342              	.LVL232:
 1343              	.L84:
 278:.\RFPoll.c    ****                     }
 279:.\RFPoll.c    ****                     for(x = 8; x < 14; x++){
 280:.\RFPoll.c    ****                         GradesHose[8-x] = buffer_rf[x];
 1344              		.loc 1 280 0 is_stmt 1 discriminator 3
 1345 0686 C3F10802 		rsb	r2, r3, #8
 1346 068a 0E49     		ldr	r1, .L99+24
 1347 068c C85C     		ldrb	r0, [r1, r3]	@ zero_extendqisi2
 1348 068e 0F49     		ldr	r1, .L99+32
 1349 0690 8854     		strb	r0, [r1, r2]
 279:.\RFPoll.c    ****                         GradesHose[8-x] = buffer_rf[x];
 1350              		.loc 1 279 0 discriminator 3
 1351 0692 0133     		adds	r3, r3, #1
 1352              	.LVL233:
 1353 0694 9BB2     		uxth	r3, r3
 1354              	.LVL234:
 1355              	.L83:
 279:.\RFPoll.c    ****                         GradesHose[8-x] = buffer_rf[x];
 1356              		.loc 1 279 0 is_stmt 0 discriminator 1
 1357 0696 0D2B     		cmp	r3, #13
 1358 0698 F5D9     		bls	.L84
 1359              	.LVL235:
 1360              	.L9:
 281:.\RFPoll.c    ****                     }
 282:.\RFPoll.c    ****                    break;
 283:.\RFPoll.c    ****                }                       
 284:.\RFPoll.c    ****             }                       
 285:.\RFPoll.c    ****         }       
 286:.\RFPoll.c    ****         RF_Connection_ClearRxBuffer();
 1361              		.loc 1 286 0 is_stmt 1
 1362 069a FFF7FEFF 		bl	RF_Connection_ClearRxBuffer
 1363              	.LVL236:
ARM GAS  C:\Users\RECEPC~1\AppData\Local\Temp\cctZPkat.s 			page 31


 287:.\RFPoll.c    ****         countRX = 0;
 1364              		.loc 1 287 0
 1365 069e 0020     		movs	r0, #0
 1366 06a0 0021     		movs	r1, #0
 1367 06a2 0B4B     		ldr	r3, .L99+36
 1368 06a4 C3E90001 		strd	r0, [r3]
 1369 06a8 70BD     		pop	{r4, r5, r6, pc}
 1370              	.L94:
 1371              		.cfi_def_cfa_offset 0
 1372              		.cfi_restore 4
 1373              		.cfi_restore 5
 1374              		.cfi_restore 6
 1375              		.cfi_restore 14
 1376 06aa 7047     		bx	lr
 1377              	.L100:
 1378              		.align	2
 1379              	.L99:
 1380 06ac 00000000 		.word	Encabezado1
 1381 06b0 00000000 		.word	Encabezado2
 1382 06b4 00000000 		.word	Encabezado3
 1383 06b8 00000000 		.word	Encabezado4
 1384 06bc 00000000 		.word	side
 1385 06c0 00000000 		.word	printPortA
 1386 06c4 00000000 		.word	buffer_rf
 1387 06c8 00000000 		.word	buffer_tx
 1388 06cc 00000000 		.word	GradesHose
 1389 06d0 00000000 		.word	countRX
 1390              		.cfi_endproc
 1391              	.LFE64:
 1392              		.size	pollingRF_Rx, .-pollingRF_Rx
 1393              		.section	.text.pollingRF_Tx,"ax",%progbits
 1394              		.align	2
 1395              		.global	pollingRF_Tx
 1396              		.thumb
 1397              		.thumb_func
 1398              		.type	pollingRF_Tx, %function
 1399              	pollingRF_Tx:
 1400              	.LFB65:
 288:.\RFPoll.c    ****     }
 289:.\RFPoll.c    **** }
 290:.\RFPoll.c    **** 
 291:.\RFPoll.c    **** void pollingRF_Tx(){
 1401              		.loc 1 291 0
 1402              		.cfi_startproc
 1403              		@ args = 0, pretend = 0, frame = 0
 1404              		@ frame_needed = 0, uses_anonymous_args = 0
 1405 0000 38B5     		push	{r3, r4, r5, lr}
 1406              		.cfi_def_cfa_offset 16
 1407              		.cfi_offset 3, -16
 1408              		.cfi_offset 4, -12
 1409              		.cfi_offset 5, -8
 1410              		.cfi_offset 14, -4
 292:.\RFPoll.c    ****     if(countTX > 50){
 1411              		.loc 1 292 0
 1412 0002 AF4B     		ldr	r3, .L149
 1413 0004 D3E90023 		ldrd	r2, [r3]
 1414 0008 002B     		cmp	r3, #0
ARM GAS  C:\Users\RECEPC~1\AppData\Local\Temp\cctZPkat.s 			page 32


 1415 000a 08BF     		it	eq
 1416 000c 332A     		cmpeq	r2, #51
 1417 000e C0F00382 		bcc	.L101
 1418              	.LBB2:
 293:.\RFPoll.c    ****     uint8 x;
 294:.\RFPoll.c    ****     /////////////// COPIA DE RECIBO //////////////////
 295:.\RFPoll.c    ****     if(side.a.rfState == RF_COPY_RECEIPT){
 1419              		.loc 1 295 0
 1420 0012 AC4B     		ldr	r3, .L149+4
 1421 0014 93F80331 		ldrb	r3, [r3, #259]	@ zero_extendqisi2
 1422 0018 0B2B     		cmp	r3, #11
 1423 001a 21D1     		bne	.L103
 296:.\RFPoll.c    ****         buffer_txDisplay[0] = 0xBC;
 1424              		.loc 1 296 0
 1425 001c AA4C     		ldr	r4, .L149+8
 1426 001e BC23     		movs	r3, #188
 1427 0020 2370     		strb	r3, [r4]
 297:.\RFPoll.c    ****         buffer_txDisplay[1] = 0xCB;
 1428              		.loc 1 297 0
 1429 0022 CB23     		movs	r3, #203
 1430 0024 6370     		strb	r3, [r4, #1]
 298:.\RFPoll.c    ****         buffer_txDisplay[2] = 0xC8;
 1431              		.loc 1 298 0
 1432 0026 C823     		movs	r3, #200
 1433 0028 A370     		strb	r3, [r4, #2]
 299:.\RFPoll.c    ****         buffer_txDisplay[3] = IDCast[0];
 1434              		.loc 1 299 0
 1435 002a A84B     		ldr	r3, .L149+12
 1436 002c 1A78     		ldrb	r2, [r3]	@ zero_extendqisi2
 1437 002e E270     		strb	r2, [r4, #3]
 300:.\RFPoll.c    ****         buffer_txDisplay[4] = IDCast[1];
 1438              		.loc 1 300 0
 1439 0030 5B78     		ldrb	r3, [r3, #1]	@ zero_extendqisi2
 1440 0032 2371     		strb	r3, [r4, #4]
 301:.\RFPoll.c    ****         buffer_txDisplay[5] = side.a.dir;
 1441              		.loc 1 301 0
 1442 0034 A34B     		ldr	r3, .L149+4
 1443 0036 1B78     		ldrb	r3, [r3]	@ zero_extendqisi2
 1444 0038 6371     		strb	r3, [r4, #5]
 302:.\RFPoll.c    ****         buffer_txDisplay[6] = 0xE6;
 1445              		.loc 1 302 0
 1446 003a E623     		movs	r3, #230
 1447 003c A371     		strb	r3, [r4, #6]
 303:.\RFPoll.c    ****         buffer_txDisplay[7] = RF_COPY_RECEIPT;
 1448              		.loc 1 303 0
 1449 003e 0B23     		movs	r3, #11
 1450 0040 E371     		strb	r3, [r4, #7]
 304:.\RFPoll.c    ****         buffer_txDisplay[8] = verificar_check(buffer_txDisplay,9);
 1451              		.loc 1 304 0
 1452 0042 2046     		mov	r0, r4
 1453 0044 0921     		movs	r1, #9
 1454 0046 FFF7FEFF 		bl	verificar_check
 1455              	.LVL237:
 1456 004a 2072     		strb	r0, [r4, #8]
 1457              	.LVL238:
 305:.\RFPoll.c    ****         for (x = 0; x < 9; x++){
 1458              		.loc 1 305 0
ARM GAS  C:\Users\RECEPC~1\AppData\Local\Temp\cctZPkat.s 			page 33


 1459 004c 0024     		movs	r4, #0
 1460 004e 05E0     		b	.L104
 1461              	.LVL239:
 1462              	.L105:
 306:.\RFPoll.c    ****             RF_Connection_PutChar(buffer_txDisplay[x]);
 1463              		.loc 1 306 0 discriminator 3
 1464 0050 9D4B     		ldr	r3, .L149+8
 1465 0052 185D     		ldrb	r0, [r3, r4]	@ zero_extendqisi2
 1466 0054 FFF7FEFF 		bl	RF_Connection_PutChar
 1467              	.LVL240:
 305:.\RFPoll.c    ****         for (x = 0; x < 9; x++){
 1468              		.loc 1 305 0 discriminator 3
 1469 0058 0134     		adds	r4, r4, #1
 1470              	.LVL241:
 1471 005a E4B2     		uxtb	r4, r4
 1472              	.LVL242:
 1473              	.L104:
 305:.\RFPoll.c    ****         for (x = 0; x < 9; x++){
 1474              		.loc 1 305 0 is_stmt 0 discriminator 1
 1475 005c 082C     		cmp	r4, #8
 1476 005e F7D9     		bls	.L105
 1477              	.LVL243:
 1478              	.L103:
 307:.\RFPoll.c    ****         }
 308:.\RFPoll.c    ****     }
 309:.\RFPoll.c    ****     if(side.b.rfState == RF_COPY_RECEIPT){
 1479              		.loc 1 309 0 is_stmt 1
 1480 0060 984B     		ldr	r3, .L149+4
 1481 0062 93F80932 		ldrb	r3, [r3, #521]	@ zero_extendqisi2
 1482 0066 0B2B     		cmp	r3, #11
 1483 0068 22D1     		bne	.L106
 310:.\RFPoll.c    ****         buffer_txDisplay[0] = 0xBC;
 1484              		.loc 1 310 0
 1485 006a 974C     		ldr	r4, .L149+8
 1486 006c BC23     		movs	r3, #188
 1487 006e 2370     		strb	r3, [r4]
 311:.\RFPoll.c    ****         buffer_txDisplay[1] = 0xCB;
 1488              		.loc 1 311 0
 1489 0070 CB23     		movs	r3, #203
 1490 0072 6370     		strb	r3, [r4, #1]
 312:.\RFPoll.c    ****         buffer_txDisplay[2] = 0xC8;
 1491              		.loc 1 312 0
 1492 0074 C823     		movs	r3, #200
 1493 0076 A370     		strb	r3, [r4, #2]
 313:.\RFPoll.c    ****         buffer_txDisplay[3] = IDCast[0];
 1494              		.loc 1 313 0
 1495 0078 944B     		ldr	r3, .L149+12
 1496 007a 1A78     		ldrb	r2, [r3]	@ zero_extendqisi2
 1497 007c E270     		strb	r2, [r4, #3]
 314:.\RFPoll.c    ****         buffer_txDisplay[4] = IDCast[1];
 1498              		.loc 1 314 0
 1499 007e 5B78     		ldrb	r3, [r3, #1]	@ zero_extendqisi2
 1500 0080 2371     		strb	r3, [r4, #4]
 315:.\RFPoll.c    ****         buffer_txDisplay[5] = side.b.dir;
 1501              		.loc 1 315 0
 1502 0082 904B     		ldr	r3, .L149+4
 1503 0084 93F80631 		ldrb	r3, [r3, #262]	@ zero_extendqisi2
ARM GAS  C:\Users\RECEPC~1\AppData\Local\Temp\cctZPkat.s 			page 34


 1504 0088 6371     		strb	r3, [r4, #5]
 316:.\RFPoll.c    ****         buffer_txDisplay[6] = 0xE6;
 1505              		.loc 1 316 0
 1506 008a E623     		movs	r3, #230
 1507 008c A371     		strb	r3, [r4, #6]
 317:.\RFPoll.c    ****         buffer_txDisplay[7] = RF_COPY_RECEIPT;
 1508              		.loc 1 317 0
 1509 008e 0B23     		movs	r3, #11
 1510 0090 E371     		strb	r3, [r4, #7]
 318:.\RFPoll.c    ****         buffer_txDisplay[8] = verificar_check(buffer_txDisplay,9);
 1511              		.loc 1 318 0
 1512 0092 2046     		mov	r0, r4
 1513 0094 0921     		movs	r1, #9
 1514 0096 FFF7FEFF 		bl	verificar_check
 1515              	.LVL244:
 1516 009a 2072     		strb	r0, [r4, #8]
 1517              	.LVL245:
 319:.\RFPoll.c    ****         for (x = 0; x < 9; x++){
 1518              		.loc 1 319 0
 1519 009c 0024     		movs	r4, #0
 1520 009e 05E0     		b	.L107
 1521              	.LVL246:
 1522              	.L108:
 320:.\RFPoll.c    ****             RF_Connection_PutChar(buffer_txDisplay[x]);
 1523              		.loc 1 320 0 discriminator 3
 1524 00a0 894B     		ldr	r3, .L149+8
 1525 00a2 185D     		ldrb	r0, [r3, r4]	@ zero_extendqisi2
 1526 00a4 FFF7FEFF 		bl	RF_Connection_PutChar
 1527              	.LVL247:
 319:.\RFPoll.c    ****         for (x = 0; x < 9; x++){
 1528              		.loc 1 319 0 discriminator 3
 1529 00a8 0134     		adds	r4, r4, #1
 1530              	.LVL248:
 1531 00aa E4B2     		uxtb	r4, r4
 1532              	.LVL249:
 1533              	.L107:
 319:.\RFPoll.c    ****         for (x = 0; x < 9; x++){
 1534              		.loc 1 319 0 is_stmt 0 discriminator 1
 1535 00ac 082C     		cmp	r4, #8
 1536 00ae F7D9     		bls	.L108
 1537              	.LVL250:
 1538              	.L106:
 321:.\RFPoll.c    ****         }
 322:.\RFPoll.c    ****     }
 323:.\RFPoll.c    ****     if(side.a.rfState == RF_COPY_RECEIPT){
 1539              		.loc 1 323 0 is_stmt 1
 1540 00b0 844B     		ldr	r3, .L149+4
 1541 00b2 93F80331 		ldrb	r3, [r3, #259]	@ zero_extendqisi2
 1542 00b6 0B2B     		cmp	r3, #11
 1543 00b8 21D1     		bne	.L109
 324:.\RFPoll.c    ****         buffer_txDisplay[0] = 0xBC;
 1544              		.loc 1 324 0
 1545 00ba 834C     		ldr	r4, .L149+8
 1546 00bc BC23     		movs	r3, #188
 1547 00be 2370     		strb	r3, [r4]
 325:.\RFPoll.c    ****         buffer_txDisplay[1] = 0xCB;
 1548              		.loc 1 325 0
ARM GAS  C:\Users\RECEPC~1\AppData\Local\Temp\cctZPkat.s 			page 35


 1549 00c0 CB23     		movs	r3, #203
 1550 00c2 6370     		strb	r3, [r4, #1]
 326:.\RFPoll.c    ****         buffer_txDisplay[2] = 0xC8;
 1551              		.loc 1 326 0
 1552 00c4 C823     		movs	r3, #200
 1553 00c6 A370     		strb	r3, [r4, #2]
 327:.\RFPoll.c    ****         buffer_txDisplay[3] = IDCast[0];
 1554              		.loc 1 327 0
 1555 00c8 804B     		ldr	r3, .L149+12
 1556 00ca 1A78     		ldrb	r2, [r3]	@ zero_extendqisi2
 1557 00cc E270     		strb	r2, [r4, #3]
 328:.\RFPoll.c    ****         buffer_txDisplay[4] = IDCast[1];
 1558              		.loc 1 328 0
 1559 00ce 5B78     		ldrb	r3, [r3, #1]	@ zero_extendqisi2
 1560 00d0 2371     		strb	r3, [r4, #4]
 329:.\RFPoll.c    ****         buffer_txDisplay[5] = side.a.dir;
 1561              		.loc 1 329 0
 1562 00d2 7C4B     		ldr	r3, .L149+4
 1563 00d4 1B78     		ldrb	r3, [r3]	@ zero_extendqisi2
 1564 00d6 6371     		strb	r3, [r4, #5]
 330:.\RFPoll.c    ****         buffer_txDisplay[6] = 0xE6;
 1565              		.loc 1 330 0
 1566 00d8 E623     		movs	r3, #230
 1567 00da A371     		strb	r3, [r4, #6]
 331:.\RFPoll.c    ****         buffer_txDisplay[7] = RF_COPY_RECEIPT;
 1568              		.loc 1 331 0
 1569 00dc 0B23     		movs	r3, #11
 1570 00de E371     		strb	r3, [r4, #7]
 332:.\RFPoll.c    ****         buffer_txDisplay[8] = verificar_check(buffer_txDisplay,9);
 1571              		.loc 1 332 0
 1572 00e0 2046     		mov	r0, r4
 1573 00e2 0921     		movs	r1, #9
 1574 00e4 FFF7FEFF 		bl	verificar_check
 1575              	.LVL251:
 1576 00e8 2072     		strb	r0, [r4, #8]
 1577              	.LVL252:
 333:.\RFPoll.c    ****         for (x = 0; x < 9; x++){
 1578              		.loc 1 333 0
 1579 00ea 0024     		movs	r4, #0
 1580 00ec 05E0     		b	.L110
 1581              	.LVL253:
 1582              	.L111:
 334:.\RFPoll.c    ****             RF_Connection_PutChar(buffer_txDisplay[x]);
 1583              		.loc 1 334 0 discriminator 3
 1584 00ee 764B     		ldr	r3, .L149+8
 1585 00f0 185D     		ldrb	r0, [r3, r4]	@ zero_extendqisi2
 1586 00f2 FFF7FEFF 		bl	RF_Connection_PutChar
 1587              	.LVL254:
 333:.\RFPoll.c    ****         for (x = 0; x < 9; x++){
 1588              		.loc 1 333 0 discriminator 3
 1589 00f6 0134     		adds	r4, r4, #1
 1590              	.LVL255:
 1591 00f8 E4B2     		uxtb	r4, r4
 1592              	.LVL256:
 1593              	.L110:
 333:.\RFPoll.c    ****         for (x = 0; x < 9; x++){
 1594              		.loc 1 333 0 is_stmt 0 discriminator 1
ARM GAS  C:\Users\RECEPC~1\AppData\Local\Temp\cctZPkat.s 			page 36


 1595 00fa 082C     		cmp	r4, #8
 1596 00fc F7D9     		bls	.L111
 1597              	.LVL257:
 1598              	.L109:
 335:.\RFPoll.c    ****         }
 336:.\RFPoll.c    ****     }
 337:.\RFPoll.c    ****     if(side.b.rfState == RF_COPY_RECEIPT){
 1599              		.loc 1 337 0 is_stmt 1
 1600 00fe 714B     		ldr	r3, .L149+4
 1601 0100 93F80932 		ldrb	r3, [r3, #521]	@ zero_extendqisi2
 1602 0104 0B2B     		cmp	r3, #11
 1603 0106 22D1     		bne	.L112
 338:.\RFPoll.c    ****         buffer_txDisplay[0] = 0xBC;
 1604              		.loc 1 338 0
 1605 0108 6F4C     		ldr	r4, .L149+8
 1606 010a BC23     		movs	r3, #188
 1607 010c 2370     		strb	r3, [r4]
 339:.\RFPoll.c    ****         buffer_txDisplay[1] = 0xCB;
 1608              		.loc 1 339 0
 1609 010e CB23     		movs	r3, #203
 1610 0110 6370     		strb	r3, [r4, #1]
 340:.\RFPoll.c    ****         buffer_txDisplay[2] = 0xC8;
 1611              		.loc 1 340 0
 1612 0112 C823     		movs	r3, #200
 1613 0114 A370     		strb	r3, [r4, #2]
 341:.\RFPoll.c    ****         buffer_txDisplay[3] = IDCast[0];
 1614              		.loc 1 341 0
 1615 0116 6D4B     		ldr	r3, .L149+12
 1616 0118 1A78     		ldrb	r2, [r3]	@ zero_extendqisi2
 1617 011a E270     		strb	r2, [r4, #3]
 342:.\RFPoll.c    ****         buffer_txDisplay[4] = IDCast[1];
 1618              		.loc 1 342 0
 1619 011c 5B78     		ldrb	r3, [r3, #1]	@ zero_extendqisi2
 1620 011e 2371     		strb	r3, [r4, #4]
 343:.\RFPoll.c    ****         buffer_txDisplay[5] = side.b.dir;
 1621              		.loc 1 343 0
 1622 0120 684B     		ldr	r3, .L149+4
 1623 0122 93F80631 		ldrb	r3, [r3, #262]	@ zero_extendqisi2
 1624 0126 6371     		strb	r3, [r4, #5]
 344:.\RFPoll.c    ****         buffer_txDisplay[6] = 0xE6;
 1625              		.loc 1 344 0
 1626 0128 E623     		movs	r3, #230
 1627 012a A371     		strb	r3, [r4, #6]
 345:.\RFPoll.c    ****         buffer_txDisplay[7] = RF_COPY_RECEIPT;
 1628              		.loc 1 345 0
 1629 012c 0B23     		movs	r3, #11
 1630 012e E371     		strb	r3, [r4, #7]
 346:.\RFPoll.c    ****         buffer_txDisplay[8] = verificar_check(buffer_txDisplay,9);
 1631              		.loc 1 346 0
 1632 0130 2046     		mov	r0, r4
 1633 0132 0921     		movs	r1, #9
 1634 0134 FFF7FEFF 		bl	verificar_check
 1635              	.LVL258:
 1636 0138 2072     		strb	r0, [r4, #8]
 1637              	.LVL259:
 347:.\RFPoll.c    ****         for (x = 0; x < 9; x++){
 1638              		.loc 1 347 0
ARM GAS  C:\Users\RECEPC~1\AppData\Local\Temp\cctZPkat.s 			page 37


 1639 013a 0024     		movs	r4, #0
 1640 013c 05E0     		b	.L113
 1641              	.LVL260:
 1642              	.L114:
 348:.\RFPoll.c    ****             RF_Connection_PutChar(buffer_txDisplay[x]);
 1643              		.loc 1 348 0 discriminator 3
 1644 013e 624B     		ldr	r3, .L149+8
 1645 0140 185D     		ldrb	r0, [r3, r4]	@ zero_extendqisi2
 1646 0142 FFF7FEFF 		bl	RF_Connection_PutChar
 1647              	.LVL261:
 347:.\RFPoll.c    ****         for (x = 0; x < 9; x++){
 1648              		.loc 1 347 0 discriminator 3
 1649 0146 0134     		adds	r4, r4, #1
 1650              	.LVL262:
 1651 0148 E4B2     		uxtb	r4, r4
 1652              	.LVL263:
 1653              	.L113:
 347:.\RFPoll.c    ****         for (x = 0; x < 9; x++){
 1654              		.loc 1 347 0 is_stmt 0 discriminator 1
 1655 014a 082C     		cmp	r4, #8
 1656 014c F7D9     		bls	.L114
 1657              	.LVL264:
 1658              	.L112:
 349:.\RFPoll.c    ****         }
 350:.\RFPoll.c    ****     }
 351:.\RFPoll.c    ****     ////////////// DISPENSANDO ////////////////////////////////////
 352:.\RFPoll.c    ****     if((side.a.pumpState == PUMP_BUSY) && RFstateReport == 1){
 1659              		.loc 1 352 0 is_stmt 1
 1660 014e 5D4B     		ldr	r3, .L149+4
 1661 0150 93F80431 		ldrb	r3, [r3, #260]	@ zero_extendqisi2
 1662 0154 092B     		cmp	r3, #9
 1663 0156 40F08980 		bne	.L115
 1664              		.loc 1 352 0 is_stmt 0 discriminator 1
 1665 015a 5D4B     		ldr	r3, .L149+16
 1666 015c 1B78     		ldrb	r3, [r3]	@ zero_extendqisi2
 1667 015e 012B     		cmp	r3, #1
 1668 0160 40F08480 		bne	.L115
 353:.\RFPoll.c    ****         RFstateReport = 0;
 1669              		.loc 1 353 0 is_stmt 1
 1670 0164 0022     		movs	r2, #0
 1671 0166 5A4B     		ldr	r3, .L149+16
 1672 0168 1A70     		strb	r2, [r3]
 354:.\RFPoll.c    ****         buffer_txDisplay[0]  = 0xBC;
 1673              		.loc 1 354 0
 1674 016a 574B     		ldr	r3, .L149+8
 1675 016c BC22     		movs	r2, #188
 1676 016e 1A70     		strb	r2, [r3]
 355:.\RFPoll.c    ****         buffer_txDisplay[1]  = 0xCB;
 1677              		.loc 1 355 0
 1678 0170 CB22     		movs	r2, #203
 1679 0172 5A70     		strb	r2, [r3, #1]
 356:.\RFPoll.c    ****         buffer_txDisplay[2]  = 0xC8;
 1680              		.loc 1 356 0
 1681 0174 C822     		movs	r2, #200
 1682 0176 9A70     		strb	r2, [r3, #2]
 357:.\RFPoll.c    ****         buffer_txDisplay[3]  = IDCast[0];
 1683              		.loc 1 357 0
ARM GAS  C:\Users\RECEPC~1\AppData\Local\Temp\cctZPkat.s 			page 38


 1684 0178 544A     		ldr	r2, .L149+12
 1685 017a 1178     		ldrb	r1, [r2]	@ zero_extendqisi2
 1686 017c D970     		strb	r1, [r3, #3]
 358:.\RFPoll.c    ****         buffer_txDisplay[4]  = IDCast[1];
 1687              		.loc 1 358 0
 1688 017e 5278     		ldrb	r2, [r2, #1]	@ zero_extendqisi2
 1689 0180 1A71     		strb	r2, [r3, #4]
 359:.\RFPoll.c    ****         buffer_txDisplay[5]  = side.a.dir;
 1690              		.loc 1 359 0
 1691 0182 504A     		ldr	r2, .L149+4
 1692 0184 1178     		ldrb	r1, [r2]	@ zero_extendqisi2
 1693 0186 5971     		strb	r1, [r3, #5]
 360:.\RFPoll.c    ****         buffer_txDisplay[6]  = 0xAA;
 1694              		.loc 1 360 0
 1695 0188 AA21     		movs	r1, #170
 1696 018a 9971     		strb	r1, [r3, #6]
 361:.\RFPoll.c    ****         buffer_txDisplay[7]  = RF_DELIVERING;
 1697              		.loc 1 361 0
 1698 018c 0121     		movs	r1, #1
 1699 018e D971     		strb	r1, [r3, #7]
 362:.\RFPoll.c    ****         buffer_txDisplay[8]  = side.a.activeHose;
 1700              		.loc 1 362 0
 1701 0190 92F80021 		ldrb	r2, [r2, #256]	@ zero_extendqisi2
 1702 0194 1A72     		strb	r2, [r3, #8]
 363:.\RFPoll.c    ****         buffer_txDisplay[9]  = bufferDisplay1.presetType[0]&0x03;
 1703              		.loc 1 363 0
 1704 0196 4F49     		ldr	r1, .L149+20
 1705 0198 91F86320 		ldrb	r2, [r1, #99]	@ zero_extendqisi2
 1706 019c 02F00302 		and	r2, r2, #3
 1707 01a0 5A72     		strb	r2, [r3, #9]
 364:.\RFPoll.c    ****         for(x = bufferDisplay1.presetValue[0][0] ; x > 0; x--){
 1708              		.loc 1 364 0
 1709 01a2 91F86500 		ldrb	r0, [r1, #101]	@ zero_extendqisi2
 1710              	.LVL265:
 1711 01a6 0446     		mov	r4, r0
 1712 01a8 08E0     		b	.L116
 1713              	.LVL266:
 1714              	.L117:
 365:.\RFPoll.c    ****             tempPreset[bufferDisplay1.presetValue[0][0]-x] = (bufferDisplay1.presetValue[0][x]); 
 1715              		.loc 1 365 0 discriminator 3
 1716 01aa 021B     		subs	r2, r0, r4
 1717 01ac 494B     		ldr	r3, .L149+20
 1718 01ae 2344     		add	r3, r3, r4
 1719 01b0 93F86510 		ldrb	r1, [r3, #101]	@ zero_extendqisi2
 1720 01b4 484B     		ldr	r3, .L149+24
 1721 01b6 9954     		strb	r1, [r3, r2]
 364:.\RFPoll.c    ****         for(x = bufferDisplay1.presetValue[0][0] ; x > 0; x--){
 1722              		.loc 1 364 0 discriminator 3
 1723 01b8 013C     		subs	r4, r4, #1
 1724              	.LVL267:
 1725 01ba E4B2     		uxtb	r4, r4
 1726              	.LVL268:
 1727              	.L116:
 364:.\RFPoll.c    ****         for(x = bufferDisplay1.presetValue[0][0] ; x > 0; x--){
 1728              		.loc 1 364 0 is_stmt 0 discriminator 1
 1729 01bc 002C     		cmp	r4, #0
 1730 01be F4D1     		bne	.L117
ARM GAS  C:\Users\RECEPC~1\AppData\Local\Temp\cctZPkat.s 			page 39


 1731 01c0 0A23     		movs	r3, #10
 1732 01c2 07E0     		b	.L118
 1733              	.LVL269:
 1734              	.L119:
 366:.\RFPoll.c    ****         }
 367:.\RFPoll.c    ****         for(x = 10; x<=17; x++){
 368:.\RFPoll.c    ****             buffer_txDisplay[x] = tempPreset[x-10]; 
 1735              		.loc 1 368 0 is_stmt 1 discriminator 3
 1736 01c4 A3F10A02 		sub	r2, r3, #10
 1737 01c8 4349     		ldr	r1, .L149+24
 1738 01ca 895C     		ldrb	r1, [r1, r2]	@ zero_extendqisi2
 1739 01cc 3E4A     		ldr	r2, .L149+8
 1740 01ce D154     		strb	r1, [r2, r3]
 367:.\RFPoll.c    ****             buffer_txDisplay[x] = tempPreset[x-10]; 
 1741              		.loc 1 367 0 discriminator 3
 1742 01d0 0133     		adds	r3, r3, #1
 1743              	.LVL270:
 1744 01d2 DBB2     		uxtb	r3, r3
 1745              	.LVL271:
 1746              	.L118:
 367:.\RFPoll.c    ****             buffer_txDisplay[x] = tempPreset[x-10]; 
 1747              		.loc 1 367 0 is_stmt 0 discriminator 1
 1748 01d4 112B     		cmp	r3, #17
 1749 01d6 F5D9     		bls	.L119
 1750 01d8 0A23     		movs	r3, #10
 1751              	.LVL272:
 1752 01da 07E0     		b	.L120
 1753              	.LVL273:
 1754              	.L122:
 369:.\RFPoll.c    ****         }
 370:.\RFPoll.c    ****         for(x = 10; x <= 17; x++){
 371:.\RFPoll.c    ****             if(buffer_txDisplay[x]== 0x00)
 1755              		.loc 1 371 0 is_stmt 1
 1756 01dc 3A4A     		ldr	r2, .L149+8
 1757 01de D25C     		ldrb	r2, [r2, r3]	@ zero_extendqisi2
 1758 01e0 12B9     		cbnz	r2, .L121
 372:.\RFPoll.c    ****                 buffer_txDisplay[x] = 0x30;
 1759              		.loc 1 372 0
 1760 01e2 3021     		movs	r1, #48
 1761 01e4 384A     		ldr	r2, .L149+8
 1762 01e6 D154     		strb	r1, [r2, r3]
 1763              	.L121:
 370:.\RFPoll.c    ****             if(buffer_txDisplay[x]== 0x00)
 1764              		.loc 1 370 0 discriminator 2
 1765 01e8 0133     		adds	r3, r3, #1
 1766              	.LVL274:
 1767 01ea DBB2     		uxtb	r3, r3
 1768              	.LVL275:
 1769              	.L120:
 370:.\RFPoll.c    ****             if(buffer_txDisplay[x]== 0x00)
 1770              		.loc 1 370 0 is_stmt 0 discriminator 1
 1771 01ec 112B     		cmp	r3, #17
 1772 01ee F5D9     		bls	.L122
 373:.\RFPoll.c    ****         }
 374:.\RFPoll.c    ****         
 375:.\RFPoll.c    ****         buffer_txDisplay[18]  = 0x00;
 1773              		.loc 1 375 0 is_stmt 1
ARM GAS  C:\Users\RECEPC~1\AppData\Local\Temp\cctZPkat.s 			page 40


 1774 01f0 0022     		movs	r2, #0
 1775 01f2 354B     		ldr	r3, .L149+8
 1776              	.LVL276:
 1777 01f4 9A74     		strb	r2, [r3, #18]
 376:.\RFPoll.c    ****         if(bufferDisplay1.flagPrint == 0){
 1778              		.loc 1 376 0
 1779 01f6 374B     		ldr	r3, .L149+20
 1780 01f8 93F83431 		ldrb	r3, [r3, #308]	@ zero_extendqisi2
 1781 01fc 4BB1     		cbz	r3, .L147
 1782 01fe 2346     		mov	r3, r4
 1783 0200 15E0     		b	.L124
 1784              	.LVL277:
 1785              	.L125:
 377:.\RFPoll.c    ****             for(x = 0; x <8 ; x++){
 378:.\RFPoll.c    ****                 buffer_txDisplay[19+x]=0x20;
 1786              		.loc 1 378 0 discriminator 3
 1787 0202 03F11302 		add	r2, r3, #19
 1788 0206 2020     		movs	r0, #32
 1789 0208 2F49     		ldr	r1, .L149+8
 1790 020a 8854     		strb	r0, [r1, r2]
 377:.\RFPoll.c    ****             for(x = 0; x <8 ; x++){
 1791              		.loc 1 377 0 discriminator 3
 1792 020c 0133     		adds	r3, r3, #1
 1793              	.LVL278:
 1794 020e DBB2     		uxtb	r3, r3
 1795              	.LVL279:
 1796 0210 00E0     		b	.L123
 1797              	.LVL280:
 1798              	.L147:
 1799 0212 2346     		mov	r3, r4
 1800              	.L123:
 1801              	.LVL281:
 377:.\RFPoll.c    ****             for(x = 0; x <8 ; x++){
 1802              		.loc 1 377 0 is_stmt 0 discriminator 1
 1803 0214 072B     		cmp	r3, #7
 1804 0216 F4D9     		bls	.L125
 1805 0218 0BE0     		b	.L126
 1806              	.L127:
 379:.\RFPoll.c    ****             }
 380:.\RFPoll.c    ****         }else{
 381:.\RFPoll.c    ****             for(x = 0; x <8 ; x++){
 382:.\RFPoll.c    ****                 buffer_txDisplay[19+x]=bufferDisplay1.licenceSale[x+1];
 1807              		.loc 1 382 0 is_stmt 1 discriminator 3
 1808 021a 03F11301 		add	r1, r3, #19
 1809 021e 0133     		adds	r3, r3, #1
 1810              	.LVL282:
 1811 0220 2C4A     		ldr	r2, .L149+20
 1812 0222 1A44     		add	r2, r2, r3
 1813 0224 92F8DF00 		ldrb	r0, [r2, #223]	@ zero_extendqisi2
 1814 0228 274A     		ldr	r2, .L149+8
 1815 022a 5054     		strb	r0, [r2, r1]
 381:.\RFPoll.c    ****                 buffer_txDisplay[19+x]=bufferDisplay1.licenceSale[x+1];
 1816              		.loc 1 381 0 discriminator 3
 1817 022c DBB2     		uxtb	r3, r3
 1818              	.LVL283:
 1819              	.L124:
 381:.\RFPoll.c    ****                 buffer_txDisplay[19+x]=bufferDisplay1.licenceSale[x+1];
ARM GAS  C:\Users\RECEPC~1\AppData\Local\Temp\cctZPkat.s 			page 41


 1820              		.loc 1 381 0 is_stmt 0 discriminator 1
 1821 022e 072B     		cmp	r3, #7
 1822 0230 F3D9     		bls	.L127
 1823              	.L126:
 1824 0232 1B23     		movs	r3, #27
 1825              	.LVL284:
 1826 0234 04E0     		b	.L128
 1827              	.LVL285:
 1828              	.L129:
 383:.\RFPoll.c    ****             }
 384:.\RFPoll.c    ****         }
 385:.\RFPoll.c    ****         for(x=27; x<37;x++){
 386:.\RFPoll.c    ****             buffer_txDisplay[x]= 0x30;
 1829              		.loc 1 386 0 is_stmt 1 discriminator 3
 1830 0236 3021     		movs	r1, #48
 1831 0238 234A     		ldr	r2, .L149+8
 1832 023a D154     		strb	r1, [r2, r3]
 385:.\RFPoll.c    ****             buffer_txDisplay[x]= 0x30;
 1833              		.loc 1 385 0 discriminator 3
 1834 023c 0133     		adds	r3, r3, #1
 1835              	.LVL286:
 1836 023e DBB2     		uxtb	r3, r3
 1837              	.LVL287:
 1838              	.L128:
 385:.\RFPoll.c    ****             buffer_txDisplay[x]= 0x30;
 1839              		.loc 1 385 0 is_stmt 0 discriminator 1
 1840 0240 242B     		cmp	r3, #36
 1841 0242 F8D9     		bls	.L129
 387:.\RFPoll.c    ****         }
 388:.\RFPoll.c    ****         buffer_txDisplay[37] = verificar_check(buffer_txDisplay,38);
 1842              		.loc 1 388 0 is_stmt 1
 1843 0244 204D     		ldr	r5, .L149+8
 1844 0246 2846     		mov	r0, r5
 1845 0248 2621     		movs	r1, #38
 1846 024a FFF7FEFF 		bl	verificar_check
 1847              	.LVL288:
 1848 024e 85F82500 		strb	r0, [r5, #37]
 1849              	.LVL289:
 389:.\RFPoll.c    ****         for (x = 0; x < 39; x++){
 1850              		.loc 1 389 0
 1851 0252 05E0     		b	.L130
 1852              	.LVL290:
 1853              	.L131:
 390:.\RFPoll.c    ****             RF_Connection_PutChar(buffer_txDisplay[x]);
 1854              		.loc 1 390 0 discriminator 3
 1855 0254 1C4B     		ldr	r3, .L149+8
 1856 0256 185D     		ldrb	r0, [r3, r4]	@ zero_extendqisi2
 1857 0258 FFF7FEFF 		bl	RF_Connection_PutChar
 1858              	.LVL291:
 389:.\RFPoll.c    ****         for (x = 0; x < 39; x++){
 1859              		.loc 1 389 0 discriminator 3
 1860 025c 0134     		adds	r4, r4, #1
 1861              	.LVL292:
 1862 025e E4B2     		uxtb	r4, r4
 1863              	.LVL293:
 1864              	.L130:
 389:.\RFPoll.c    ****         for (x = 0; x < 39; x++){
ARM GAS  C:\Users\RECEPC~1\AppData\Local\Temp\cctZPkat.s 			page 42


 1865              		.loc 1 389 0 is_stmt 0 discriminator 1
 1866 0260 262C     		cmp	r4, #38
 1867 0262 F7D9     		bls	.L131
 391:.\RFPoll.c    ****         }
 392:.\RFPoll.c    ****         side.a.rfState = RF_DELIVERING;
 1868              		.loc 1 392 0 is_stmt 1
 1869 0264 0122     		movs	r2, #1
 1870 0266 174B     		ldr	r3, .L149+4
 1871 0268 83F80321 		strb	r2, [r3, #259]
 1872              	.LVL294:
 1873              	.L115:
 393:.\RFPoll.c    ****     }
 394:.\RFPoll.c    ****     ////////////// FIN VENTA ////////////////////////////////////
 395:.\RFPoll.c    ****     if((side.a.pumpState == PUMP_PEOT || side.a.pumpState == PUMP_PEOT) && RFstateReport == 1){    
 1874              		.loc 1 395 0
 1875 026c 154B     		ldr	r3, .L149+4
 1876 026e 93F80431 		ldrb	r3, [r3, #260]	@ zero_extendqisi2
 1877 0272 0A2B     		cmp	r3, #10
 1878 0274 40F0A380 		bne	.L132
 1879              		.loc 1 395 0 is_stmt 0 discriminator 1
 1880 0278 154B     		ldr	r3, .L149+16
 1881 027a 1B78     		ldrb	r3, [r3]	@ zero_extendqisi2
 1882 027c 012B     		cmp	r3, #1
 1883 027e 40F09E80 		bne	.L132
 396:.\RFPoll.c    ****         RFstateReport = 0;            
 1884              		.loc 1 396 0 is_stmt 1
 1885 0282 0023     		movs	r3, #0
 1886 0284 124A     		ldr	r2, .L149+16
 1887 0286 1370     		strb	r3, [r2]
 397:.\RFPoll.c    ****         bufferDisplay1.flagActiveSale = false;
 1888              		.loc 1 397 0
 1889 0288 124A     		ldr	r2, .L149+20
 1890 028a 82F83531 		strb	r3, [r2, #309]
 398:.\RFPoll.c    ****         buffer_txDisplay[0]  = 0xBC;
 1891              		.loc 1 398 0
 1892 028e 0E4B     		ldr	r3, .L149+8
 1893 0290 BC22     		movs	r2, #188
 1894 0292 1A70     		strb	r2, [r3]
 399:.\RFPoll.c    ****         buffer_txDisplay[1]  = 0xCB;
 1895              		.loc 1 399 0
 1896 0294 CB22     		movs	r2, #203
 1897 0296 5A70     		strb	r2, [r3, #1]
 400:.\RFPoll.c    ****         buffer_txDisplay[2]  = 0xC8;
 1898              		.loc 1 400 0
 1899 0298 C822     		movs	r2, #200
 1900 029a 9A70     		strb	r2, [r3, #2]
 401:.\RFPoll.c    ****         buffer_txDisplay[3]  = IDCast[0];
 1901              		.loc 1 401 0
 1902 029c 0B4A     		ldr	r2, .L149+12
 1903 029e 1178     		ldrb	r1, [r2]	@ zero_extendqisi2
 1904 02a0 D970     		strb	r1, [r3, #3]
 402:.\RFPoll.c    ****         buffer_txDisplay[4]  = IDCast[1];
 1905              		.loc 1 402 0
 1906 02a2 5278     		ldrb	r2, [r2, #1]	@ zero_extendqisi2
 1907 02a4 1A71     		strb	r2, [r3, #4]
 403:.\RFPoll.c    ****         buffer_txDisplay[5]  = side.a.dir;
 1908              		.loc 1 403 0
ARM GAS  C:\Users\RECEPC~1\AppData\Local\Temp\cctZPkat.s 			page 43


 1909 02a6 074A     		ldr	r2, .L149+4
 1910 02a8 1178     		ldrb	r1, [r2]	@ zero_extendqisi2
 1911 02aa 5971     		strb	r1, [r3, #5]
 404:.\RFPoll.c    ****         buffer_txDisplay[6]  = 0xA4;
 1912              		.loc 1 404 0
 1913 02ac A421     		movs	r1, #164
 1914 02ae 9971     		strb	r1, [r3, #6]
 405:.\RFPoll.c    ****         buffer_txDisplay[7]  = RF_CASHSALEREPORT;
 1915              		.loc 1 405 0
 1916 02b0 0221     		movs	r1, #2
 1917 02b2 D971     		strb	r1, [r3, #7]
 406:.\RFPoll.c    ****         buffer_txDisplay[8]  = side.a.activeHose;
 1918              		.loc 1 406 0
 1919 02b4 92F80021 		ldrb	r2, [r2, #256]	@ zero_extendqisi2
 1920 02b8 1A72     		strb	r2, [r3, #8]
 1921              	.LVL295:
 407:.\RFPoll.c    ****         for(x=1;x <= side.a.ppuSale[0];x++){						   							
 1922              		.loc 1 407 0
 1923 02ba 0123     		movs	r3, #1
 1924 02bc 18E0     		b	.L133
 1925              	.L150:
 1926 02be 00BF     		.align	2
 1927              	.L149:
 1928 02c0 00000000 		.word	countTX
 1929 02c4 00000000 		.word	side
 1930 02c8 00000000 		.word	buffer_txDisplay
 1931 02cc 00000000 		.word	IDCast
 1932 02d0 00000000 		.word	RFstateReport
 1933 02d4 00000000 		.word	bufferDisplay1
 1934 02d8 00000000 		.word	tempPreset
 1935              	.LVL296:
 1936              	.L134:
 408:.\RFPoll.c    ****     		buffer_txDisplay[x+8]= side.a.ppuSale[x];
 1937              		.loc 1 408 0 discriminator 3
 1938 02dc 03F10801 		add	r1, r3, #8
 1939 02e0 4E4A     		ldr	r2, .L151
 1940 02e2 1A44     		add	r2, r2, r3
 1941 02e4 92F8F100 		ldrb	r0, [r2, #241]	@ zero_extendqisi2
 1942 02e8 4D4A     		ldr	r2, .L151+4
 1943 02ea 5054     		strb	r0, [r2, r1]
 407:.\RFPoll.c    ****         for(x=1;x <= side.a.ppuSale[0];x++){						   							
 1944              		.loc 1 407 0 discriminator 3
 1945 02ec 0133     		adds	r3, r3, #1
 1946              	.LVL297:
 1947 02ee DBB2     		uxtb	r3, r3
 1948              	.LVL298:
 1949              	.L133:
 407:.\RFPoll.c    ****         for(x=1;x <= side.a.ppuSale[0];x++){						   							
 1950              		.loc 1 407 0 is_stmt 0 discriminator 1
 1951 02f0 4A4A     		ldr	r2, .L151
 1952 02f2 92F8F120 		ldrb	r2, [r2, #241]	@ zero_extendqisi2
 1953 02f6 9A42     		cmp	r2, r3
 1954 02f8 F0D2     		bcs	.L134
 409:.\RFPoll.c    ****     	}
 410:.\RFPoll.c    ****         ///////////////////////////////////////////////////////////////
 411:.\RFPoll.c    ****         if(side.a.volumeSale[1] == 0x30)
 1955              		.loc 1 411 0 is_stmt 1
ARM GAS  C:\Users\RECEPC~1\AppData\Local\Temp\cctZPkat.s 			page 44


 1956 02fa 484B     		ldr	r3, .L151
 1957              	.LVL299:
 1958 02fc 93F8E430 		ldrb	r3, [r3, #228]	@ zero_extendqisi2
 1959 0300 302B     		cmp	r3, #48
 1960 0302 03D1     		bne	.L135
 412:.\RFPoll.c    ****             side.a.volumeSale[1] = 0x00;
 1961              		.loc 1 412 0
 1962 0304 0022     		movs	r2, #0
 1963 0306 454B     		ldr	r3, .L151
 1964 0308 83F8E420 		strb	r2, [r3, #228]
 1965              	.L135:
 413:.\RFPoll.c    ****         if(side.a.volumeSale[1] == 0x00 && side.a.volumeSale[2] ==0x30)
 1966              		.loc 1 413 0
 1967 030c 434B     		ldr	r3, .L151
 1968 030e 93F8E430 		ldrb	r3, [r3, #228]	@ zero_extendqisi2
 1969 0312 43B9     		cbnz	r3, .L136
 1970              		.loc 1 413 0 is_stmt 0 discriminator 1
 1971 0314 414B     		ldr	r3, .L151
 1972 0316 93F8E530 		ldrb	r3, [r3, #229]	@ zero_extendqisi2
 1973 031a 302B     		cmp	r3, #48
 1974 031c 03D1     		bne	.L136
 414:.\RFPoll.c    ****             side.a.volumeSale[2] = 0x00;
 1975              		.loc 1 414 0 is_stmt 1
 1976 031e 0022     		movs	r2, #0
 1977 0320 3E4B     		ldr	r3, .L151
 1978 0322 83F8E520 		strb	r2, [r3, #229]
 1979              	.L136:
 407:.\RFPoll.c    ****     		buffer_txDisplay[x+8]= side.a.ppuSale[x];
 1980              		.loc 1 407 0 discriminator 1
 1981 0326 0123     		movs	r3, #1
 1982 0328 09E0     		b	.L137
 1983              	.LVL300:
 1984              	.L138:
 415:.\RFPoll.c    ****         ///////////////////////////////////////////////////////////////
 416:.\RFPoll.c    ****         for(x=1;x <= side.a.volumeSale[0];x++){						   							
 417:.\RFPoll.c    ****             buffer_txDisplay[x+16]=side.a.volumeSale[x];                
 1985              		.loc 1 417 0 discriminator 3
 1986 032a 03F11001 		add	r1, r3, #16
 1987 032e 3B4A     		ldr	r2, .L151
 1988 0330 1A44     		add	r2, r2, r3
 1989 0332 92F8E300 		ldrb	r0, [r2, #227]	@ zero_extendqisi2
 1990 0336 3A4A     		ldr	r2, .L151+4
 1991 0338 5054     		strb	r0, [r2, r1]
 416:.\RFPoll.c    ****             buffer_txDisplay[x+16]=side.a.volumeSale[x];                
 1992              		.loc 1 416 0 discriminator 3
 1993 033a 0133     		adds	r3, r3, #1
 1994              	.LVL301:
 1995 033c DBB2     		uxtb	r3, r3
 1996              	.LVL302:
 1997              	.L137:
 416:.\RFPoll.c    ****             buffer_txDisplay[x+16]=side.a.volumeSale[x];                
 1998              		.loc 1 416 0 is_stmt 0 discriminator 1
 1999 033e 374A     		ldr	r2, .L151
 2000 0340 92F8E320 		ldrb	r2, [r2, #227]	@ zero_extendqisi2
 2001 0344 9A42     		cmp	r2, r3
 2002 0346 F0D2     		bcs	.L138
 418:.\RFPoll.c    ****     	}
ARM GAS  C:\Users\RECEPC~1\AppData\Local\Temp\cctZPkat.s 			page 45


 419:.\RFPoll.c    ****         /////////////////////////////////////////////////////////////
 420:.\RFPoll.c    ****         if(side.a.moneySale[1] ==0x30)
 2003              		.loc 1 420 0 is_stmt 1
 2004 0348 344B     		ldr	r3, .L151
 2005              	.LVL303:
 2006 034a 93F8D630 		ldrb	r3, [r3, #214]	@ zero_extendqisi2
 2007 034e 302B     		cmp	r3, #48
 2008 0350 03D1     		bne	.L139
 421:.\RFPoll.c    ****             side.a.moneySale[1] = 0x00;
 2009              		.loc 1 421 0
 2010 0352 0022     		movs	r2, #0
 2011 0354 314B     		ldr	r3, .L151
 2012 0356 83F8D620 		strb	r2, [r3, #214]
 2013              	.L139:
 422:.\RFPoll.c    ****         if(side.a.moneySale[1] ==0x00 && side.a.moneySale[2] ==0x30)
 2014              		.loc 1 422 0
 2015 035a 304B     		ldr	r3, .L151
 2016 035c 93F8D630 		ldrb	r3, [r3, #214]	@ zero_extendqisi2
 2017 0360 43B9     		cbnz	r3, .L140
 2018              		.loc 1 422 0 is_stmt 0 discriminator 1
 2019 0362 2E4B     		ldr	r3, .L151
 2020 0364 93F8D730 		ldrb	r3, [r3, #215]	@ zero_extendqisi2
 2021 0368 302B     		cmp	r3, #48
 2022 036a 03D1     		bne	.L140
 423:.\RFPoll.c    ****             side.a.moneySale[2] = 0x00;
 2023              		.loc 1 423 0 is_stmt 1
 2024 036c 0022     		movs	r2, #0
 2025 036e 2B4B     		ldr	r3, .L151
 2026 0370 83F8D720 		strb	r2, [r3, #215]
 2027              	.L140:
 407:.\RFPoll.c    ****     		buffer_txDisplay[x+8]= side.a.ppuSale[x];
 2028              		.loc 1 407 0 discriminator 1
 2029 0374 0123     		movs	r3, #1
 2030 0376 09E0     		b	.L141
 2031              	.LVL304:
 2032              	.L142:
 424:.\RFPoll.c    ****         /////////////////////////////////////////////////////////////
 425:.\RFPoll.c    ****         for(x=1;x <= side.a.moneySale[0];x++){						   							
 426:.\RFPoll.c    ****     		buffer_txDisplay[x+24]=side.a.moneySale[x];                
 2033              		.loc 1 426 0 discriminator 3
 2034 0378 03F11801 		add	r1, r3, #24
 2035 037c 274A     		ldr	r2, .L151
 2036 037e 1A44     		add	r2, r2, r3
 2037 0380 92F8D500 		ldrb	r0, [r2, #213]	@ zero_extendqisi2
 2038 0384 264A     		ldr	r2, .L151+4
 2039 0386 5054     		strb	r0, [r2, r1]
 425:.\RFPoll.c    ****     		buffer_txDisplay[x+24]=side.a.moneySale[x];                
 2040              		.loc 1 425 0 discriminator 3
 2041 0388 0133     		adds	r3, r3, #1
 2042              	.LVL305:
 2043 038a DBB2     		uxtb	r3, r3
 2044              	.LVL306:
 2045              	.L141:
 425:.\RFPoll.c    ****     		buffer_txDisplay[x+24]=side.a.moneySale[x];                
 2046              		.loc 1 425 0 is_stmt 0 discriminator 1
 2047 038c 234A     		ldr	r2, .L151
 2048 038e 92F8D520 		ldrb	r2, [r2, #213]	@ zero_extendqisi2
ARM GAS  C:\Users\RECEPC~1\AppData\Local\Temp\cctZPkat.s 			page 46


 2049 0392 9A42     		cmp	r2, r3
 2050 0394 F0D2     		bcs	.L142
 427:.\RFPoll.c    ****     	}                                                                                            
 428:.\RFPoll.c    ****         buffer_txDisplay[29] = verificar_check(buffer_txDisplay,30);
 2051              		.loc 1 428 0 is_stmt 1
 2052 0396 224C     		ldr	r4, .L151+4
 2053 0398 2046     		mov	r0, r4
 2054 039a 1E21     		movs	r1, #30
 2055 039c FFF7FEFF 		bl	verificar_check
 2056              	.LVL307:
 2057 03a0 6077     		strb	r0, [r4, #29]
 2058              	.LVL308:
 429:.\RFPoll.c    ****         for (x = 0; x < 30; x++){
 2059              		.loc 1 429 0
 2060 03a2 0024     		movs	r4, #0
 2061 03a4 05E0     		b	.L143
 2062              	.LVL309:
 2063              	.L144:
 430:.\RFPoll.c    ****             RF_Connection_PutChar(buffer_txDisplay[x]);
 2064              		.loc 1 430 0 discriminator 3
 2065 03a6 1E4B     		ldr	r3, .L151+4
 2066 03a8 185D     		ldrb	r0, [r3, r4]	@ zero_extendqisi2
 2067 03aa FFF7FEFF 		bl	RF_Connection_PutChar
 2068              	.LVL310:
 429:.\RFPoll.c    ****         for (x = 0; x < 30; x++){
 2069              		.loc 1 429 0 discriminator 3
 2070 03ae 0134     		adds	r4, r4, #1
 2071              	.LVL311:
 2072 03b0 E4B2     		uxtb	r4, r4
 2073              	.LVL312:
 2074              	.L143:
 429:.\RFPoll.c    ****         for (x = 0; x < 30; x++){
 2075              		.loc 1 429 0 is_stmt 0 discriminator 1
 2076 03b2 1D2C     		cmp	r4, #29
 2077 03b4 F7D9     		bls	.L144
 431:.\RFPoll.c    ****         }
 432:.\RFPoll.c    ****         side.a.rfState = RF_IDLE;
 2078              		.loc 1 432 0 is_stmt 1
 2079 03b6 0822     		movs	r2, #8
 2080 03b8 184B     		ldr	r3, .L151
 2081 03ba 83F80321 		strb	r2, [r3, #259]
 2082              	.LVL313:
 2083              	.L132:
 433:.\RFPoll.c    ****     }
 434:.\RFPoll.c    ****     if(side.a.changePPU){
 2084              		.loc 1 434 0
 2085 03be 174B     		ldr	r3, .L151
 2086 03c0 93F80531 		ldrb	r3, [r3, #261]	@ zero_extendqisi2
 2087 03c4 73B1     		cbz	r3, .L145
 435:.\RFPoll.c    ****         if(priceChange(side.a.dir,CGrade,side.a.ppuAuthorized[CGrade]))
 2088              		.loc 1 435 0
 2089 03c6 174B     		ldr	r3, .L151+8
 2090 03c8 1978     		ldrb	r1, [r3]	@ zero_extendqisi2
 2091 03ca 1A78     		ldrb	r2, [r3]	@ zero_extendqisi2
 2092 03cc 134B     		ldr	r3, .L151
 2093 03ce 03EBC202 		add	r2, r3, r2, lsl #3
 2094 03d2 1878     		ldrb	r0, [r3]	@ zero_extendqisi2
ARM GAS  C:\Users\RECEPC~1\AppData\Local\Temp\cctZPkat.s 			page 47


 2095 03d4 B532     		adds	r2, r2, #181
 2096 03d6 FFF7FEFF 		bl	priceChange
 2097              	.LVL314:
 2098 03da 18B1     		cbz	r0, .L145
 436:.\RFPoll.c    ****             side.a.changePPU = false;          
 2099              		.loc 1 436 0
 2100 03dc 0022     		movs	r2, #0
 2101 03de 0F4B     		ldr	r3, .L151
 2102 03e0 83F80521 		strb	r2, [r3, #261]
 2103              	.L145:
 437:.\RFPoll.c    ****     }
 438:.\RFPoll.c    ****     if(side.b.changePPU){
 2104              		.loc 1 438 0
 2105 03e4 0D4B     		ldr	r3, .L151
 2106 03e6 93F80B32 		ldrb	r3, [r3, #523]	@ zero_extendqisi2
 2107 03ea 83B1     		cbz	r3, .L146
 439:.\RFPoll.c    ****         if(priceChange(side.b.dir,CGrade,side.b.ppuAuthorized[CGrade]))
 2108              		.loc 1 439 0
 2109 03ec 0D4B     		ldr	r3, .L151+8
 2110 03ee 1978     		ldrb	r1, [r3]	@ zero_extendqisi2
 2111 03f0 1A78     		ldrb	r2, [r3]	@ zero_extendqisi2
 2112 03f2 0A4B     		ldr	r3, .L151
 2113 03f4 03EBC202 		add	r2, r3, r2, lsl #3
 2114 03f8 93F80601 		ldrb	r0, [r3, #262]	@ zero_extendqisi2
 2115 03fc 02F2BB12 		addw	r2, r2, #443
 2116 0400 FFF7FEFF 		bl	priceChange
 2117              	.LVL315:
 2118 0404 18B1     		cbz	r0, .L146
 440:.\RFPoll.c    ****             side.b.changePPU = false;
 2119              		.loc 1 440 0
 2120 0406 0022     		movs	r2, #0
 2121 0408 044B     		ldr	r3, .L151
 2122 040a 83F80B22 		strb	r2, [r3, #523]
 2123              	.L146:
 441:.\RFPoll.c    ****     }
 442:.\RFPoll.c    ****         
 443:.\RFPoll.c    ****     countTX=0;
 2124              		.loc 1 443 0
 2125 040e 0020     		movs	r0, #0
 2126 0410 0021     		movs	r1, #0
 2127 0412 054B     		ldr	r3, .L151+12
 2128 0414 C3E90001 		strd	r0, [r3]
 2129              	.L101:
 2130 0418 38BD     		pop	{r3, r4, r5, pc}
 2131              	.L152:
 2132 041a 00BF     		.align	2
 2133              	.L151:
 2134 041c 00000000 		.word	side
 2135 0420 00000000 		.word	buffer_txDisplay
 2136 0424 00000000 		.word	CGrade
 2137 0428 00000000 		.word	countTX
 2138              	.LBE2:
 2139              		.cfi_endproc
 2140              	.LFE65:
 2141              		.size	pollingRF_Tx, .-pollingRF_Tx
 2142              		.comm	side,1048,4
 2143              		.comm	bufferDisplay4,332,4
ARM GAS  C:\Users\RECEPC~1\AppData\Local\Temp\cctZPkat.s 			page 48


 2144              		.comm	bufferDisplay3,332,4
 2145              		.comm	bufferDisplay2,332,4
 2146              		.comm	bufferDisplay1,332,4
 2147              		.comm	RFstateReport,1,1
 2148              		.comm	GradesHose,5,4
 2149              		.comm	CopiasCredito,1,1
 2150              		.comm	Encabezado4,30,4
 2151              		.comm	Encabezado3,30,4
 2152              		.comm	Encabezado2,30,4
 2153              		.comm	Encabezado1,30,4
 2154              		.comm	intIDStation,2,2
 2155              		.comm	buffer_txDisplay,512,4
 2156              		.comm	buffer_tx,512,4
 2157              		.comm	buffer_rf,512,4
 2158              		.comm	printPortB,1,1
 2159              		.comm	printPortA,1,1
 2160              		.comm	pumpGap,3,4
 2161              		.comm	idStation,5,4
 2162              		.comm	controlChar,1,1
 2163              		.comm	configAccess,5,4
 2164              		.comm	count_protector2,1,1
 2165              		.comm	count_protector,1,1
 2166              		.comm	timeDownHandle,2,4
 2167              		.comm	dateDownHandle,3,4
 2168              		.comm	VolUnit,6,4
 2169              		.comm	PrinterType,1,1
 2170              		.comm	hiddenKeys,1,1
 2171              		.comm	digits,1,1
 2172              		.comm	lockTurn,1,1
 2173              		.comm	NumPositions,1,1
 2174              		.comm	statePump,4,4
 2175              		.comm	DDMode,1,1
 2176              		.comm	PPUDec,1,1
 2177              		.comm	VolDec,1,1
 2178              		.comm	MoneyDec,1,1
 2179              		.comm	ConversionFactor,1,1
 2180              		.comm	UnitType,1,1
 2181              		.comm	CGrade,1,1
 2182              		.comm	tempPreset,8,4
 2183              		.comm	temporal,30,4
 2184              		.comm	counterRF,1,1
 2185              		.comm	ActiveRF,1,1
 2186              		.comm	IDCast,2,4
 2187              		.comm	PlateRequest,1,1
 2188              		.comm	PrevStatePump,4,4
 2189              		.comm	stateBeagleSoft,1,1
 2190              		.comm	flagResetMux,1,1
 2191              		.comm	passwordSeller,8,4
 2192              		.comm	typeIdSeller,1,1
 2193              		.comm	idSeller,25,4
 2194              		.comm	residue,14,4
 2195              		.comm	screen,2,4
 2196              		.comm	date,3,4
 2197              		.comm	time,3,4
 2198              		.comm	symbols,2,4
 2199              		.comm	decimalVolume,1,1
 2200              		.comm	decimalMoney,1,1
ARM GAS  C:\Users\RECEPC~1\AppData\Local\Temp\cctZPkat.s 			page 49


 2201              		.comm	ppux10,1,1
 2202              		.comm	delayPicture2,4,4
 2203              		.comm	delayPicture1,4,4
 2204              		.comm	productNumber,1,1
 2205              		.comm	flagPoint2,1,1
 2206              		.comm	flagPoint1,1,1
 2207              		.comm	numberKeys2,1,1
 2208              		.comm	numberKeys1,1,1
 2209              		.comm	flowDisplay4,4,4
 2210              		.comm	flowDisplay3,4,4
 2211              		.comm	flowDisplay2,4,4
 2212              		.comm	flowDisplay1,4,4
 2213              		.comm	countLCD,8,8
 2214              		.comm	countPump,8,8
 2215              		.comm	countTX,8,8
 2216              		.comm	countRX,8,8
 2217              		.comm	countAnimation2,8,8
 2218              		.comm	countAnimation1,8,8
 2219              		.section	.rodata
 2220              		.align	2
 2221              		.set	.LANCHOR0,. + 0
 2222              	.LC0:
 2223 0000 00       		.byte	0
 2224 0001 5E       		.byte	94
 2225 0002 BC       		.byte	-68
 2226 0003 E2       		.byte	-30
 2227 0004 61       		.byte	97
 2228 0005 3F       		.byte	63
 2229 0006 DD       		.byte	-35
 2230 0007 83       		.byte	-125
 2231 0008 C2       		.byte	-62
 2232 0009 9C       		.byte	-100
 2233 000a 7E       		.byte	126
 2234 000b 20       		.byte	32
 2235 000c A3       		.byte	-93
 2236 000d FD       		.byte	-3
 2237 000e 1F       		.byte	31
 2238 000f 41       		.byte	65
 2239 0010 9D       		.byte	-99
 2240 0011 C3       		.byte	-61
 2241 0012 21       		.byte	33
 2242 0013 7F       		.byte	127
 2243 0014 FC       		.byte	-4
 2244 0015 A2       		.byte	-94
 2245 0016 40       		.byte	64
 2246 0017 1E       		.byte	30
 2247 0018 5F       		.byte	95
 2248 0019 01       		.byte	1
 2249 001a E3       		.byte	-29
 2250 001b BD       		.byte	-67
 2251 001c 3E       		.byte	62
 2252 001d 60       		.byte	96
 2253 001e 82       		.byte	-126
 2254 001f DC       		.byte	-36
 2255 0020 23       		.byte	35
 2256 0021 7D       		.byte	125
 2257 0022 9F       		.byte	-97
ARM GAS  C:\Users\RECEPC~1\AppData\Local\Temp\cctZPkat.s 			page 50


 2258 0023 C1       		.byte	-63
 2259 0024 42       		.byte	66
 2260 0025 1C       		.byte	28
 2261 0026 FE       		.byte	-2
 2262 0027 A0       		.byte	-96
 2263 0028 E1       		.byte	-31
 2264 0029 BF       		.byte	-65
 2265 002a 5D       		.byte	93
 2266 002b 03       		.byte	3
 2267 002c 80       		.byte	-128
 2268 002d DE       		.byte	-34
 2269 002e 3C       		.byte	60
 2270 002f 62       		.byte	98
 2271 0030 BE       		.byte	-66
 2272 0031 E0       		.byte	-32
 2273 0032 02       		.byte	2
 2274 0033 5C       		.byte	92
 2275 0034 DF       		.byte	-33
 2276 0035 81       		.byte	-127
 2277 0036 63       		.byte	99
 2278 0037 3D       		.byte	61
 2279 0038 7C       		.byte	124
 2280 0039 22       		.byte	34
 2281 003a C0       		.byte	-64
 2282 003b 9E       		.byte	-98
 2283 003c 1D       		.byte	29
 2284 003d 43       		.byte	67
 2285 003e A1       		.byte	-95
 2286 003f FF       		.byte	-1
 2287 0040 46       		.byte	70
 2288 0041 18       		.byte	24
 2289 0042 FA       		.byte	-6
 2290 0043 A4       		.byte	-92
 2291 0044 27       		.byte	39
 2292 0045 79       		.byte	121
 2293 0046 9B       		.byte	-101
 2294 0047 C5       		.byte	-59
 2295 0048 84       		.byte	-124
 2296 0049 DA       		.byte	-38
 2297 004a 38       		.byte	56
 2298 004b 66       		.byte	102
 2299 004c E5       		.byte	-27
 2300 004d BB       		.byte	-69
 2301 004e 59       		.byte	89
 2302 004f 07       		.byte	7
 2303 0050 DB       		.byte	-37
 2304 0051 85       		.byte	-123
 2305 0052 67       		.byte	103
 2306 0053 39       		.byte	57
 2307 0054 BA       		.byte	-70
 2308 0055 E4       		.byte	-28
 2309 0056 06       		.byte	6
 2310 0057 58       		.byte	88
 2311 0058 19       		.byte	25
 2312 0059 47       		.byte	71
 2313 005a A5       		.byte	-91
 2314 005b FB       		.byte	-5
ARM GAS  C:\Users\RECEPC~1\AppData\Local\Temp\cctZPkat.s 			page 51


 2315 005c 78       		.byte	120
 2316 005d 26       		.byte	38
 2317 005e C4       		.byte	-60
 2318 005f 9A       		.byte	-102
 2319 0060 65       		.byte	101
 2320 0061 3B       		.byte	59
 2321 0062 D9       		.byte	-39
 2322 0063 87       		.byte	-121
 2323 0064 04       		.byte	4
 2324 0065 5A       		.byte	90
 2325 0066 B8       		.byte	-72
 2326 0067 E6       		.byte	-26
 2327 0068 A7       		.byte	-89
 2328 0069 F9       		.byte	-7
 2329 006a 1B       		.byte	27
 2330 006b 45       		.byte	69
 2331 006c C6       		.byte	-58
 2332 006d 98       		.byte	-104
 2333 006e 7A       		.byte	122
 2334 006f 24       		.byte	36
 2335 0070 F8       		.byte	-8
 2336 0071 A6       		.byte	-90
 2337 0072 44       		.byte	68
 2338 0073 1A       		.byte	26
 2339 0074 99       		.byte	-103
 2340 0075 C7       		.byte	-57
 2341 0076 25       		.byte	37
 2342 0077 7B       		.byte	123
 2343 0078 3A       		.byte	58
 2344 0079 64       		.byte	100
 2345 007a 86       		.byte	-122
 2346 007b D8       		.byte	-40
 2347 007c 5B       		.byte	91
 2348 007d 05       		.byte	5
 2349 007e E7       		.byte	-25
 2350 007f B9       		.byte	-71
 2351 0080 8C       		.byte	-116
 2352 0081 D2       		.byte	-46
 2353 0082 30       		.byte	48
 2354 0083 6E       		.byte	110
 2355 0084 ED       		.byte	-19
 2356 0085 B3       		.byte	-77
 2357 0086 51       		.byte	81
 2358 0087 0F       		.byte	15
 2359 0088 4E       		.byte	78
 2360 0089 10       		.byte	16
 2361 008a F2       		.byte	-14
 2362 008b AC       		.byte	-84
 2363 008c 2F       		.byte	47
 2364 008d 71       		.byte	113
 2365 008e 93       		.byte	-109
 2366 008f CD       		.byte	-51
 2367 0090 11       		.byte	17
 2368 0091 4F       		.byte	79
 2369 0092 AD       		.byte	-83
 2370 0093 F3       		.byte	-13
 2371 0094 70       		.byte	112
ARM GAS  C:\Users\RECEPC~1\AppData\Local\Temp\cctZPkat.s 			page 52


 2372 0095 2E       		.byte	46
 2373 0096 CC       		.byte	-52
 2374 0097 92       		.byte	-110
 2375 0098 D3       		.byte	-45
 2376 0099 8D       		.byte	-115
 2377 009a 6F       		.byte	111
 2378 009b 31       		.byte	49
 2379 009c B2       		.byte	-78
 2380 009d EC       		.byte	-20
 2381 009e 0E       		.byte	14
 2382 009f 50       		.byte	80
 2383 00a0 AF       		.byte	-81
 2384 00a1 F1       		.byte	-15
 2385 00a2 13       		.byte	19
 2386 00a3 4D       		.byte	77
 2387 00a4 CE       		.byte	-50
 2388 00a5 90       		.byte	-112
 2389 00a6 72       		.byte	114
 2390 00a7 2C       		.byte	44
 2391 00a8 6D       		.byte	109
 2392 00a9 33       		.byte	51
 2393 00aa D1       		.byte	-47
 2394 00ab 8F       		.byte	-113
 2395 00ac 0C       		.byte	12
 2396 00ad 52       		.byte	82
 2397 00ae B0       		.byte	-80
 2398 00af EE       		.byte	-18
 2399 00b0 32       		.byte	50
 2400 00b1 6C       		.byte	108
 2401 00b2 8E       		.byte	-114
 2402 00b3 D0       		.byte	-48
 2403 00b4 53       		.byte	83
 2404 00b5 0D       		.byte	13
 2405 00b6 EF       		.byte	-17
 2406 00b7 B1       		.byte	-79
 2407 00b8 F0       		.byte	-16
 2408 00b9 AE       		.byte	-82
 2409 00ba 4C       		.byte	76
 2410 00bb 12       		.byte	18
 2411 00bc 91       		.byte	-111
 2412 00bd CF       		.byte	-49
 2413 00be 2D       		.byte	45
 2414 00bf 73       		.byte	115
 2415 00c0 CA       		.byte	-54
 2416 00c1 94       		.byte	-108
 2417 00c2 76       		.byte	118
 2418 00c3 28       		.byte	40
 2419 00c4 AB       		.byte	-85
 2420 00c5 F5       		.byte	-11
 2421 00c6 17       		.byte	23
 2422 00c7 49       		.byte	73
 2423 00c8 08       		.byte	8
 2424 00c9 56       		.byte	86
 2425 00ca B4       		.byte	-76
 2426 00cb EA       		.byte	-22
 2427 00cc 69       		.byte	105
 2428 00cd 37       		.byte	55
ARM GAS  C:\Users\RECEPC~1\AppData\Local\Temp\cctZPkat.s 			page 53


 2429 00ce D5       		.byte	-43
 2430 00cf 8B       		.byte	-117
 2431 00d0 57       		.byte	87
 2432 00d1 09       		.byte	9
 2433 00d2 EB       		.byte	-21
 2434 00d3 B5       		.byte	-75
 2435 00d4 36       		.byte	54
 2436 00d5 68       		.byte	104
 2437 00d6 8A       		.byte	-118
 2438 00d7 D4       		.byte	-44
 2439 00d8 95       		.byte	-107
 2440 00d9 CB       		.byte	-53
 2441 00da 29       		.byte	41
 2442 00db 77       		.byte	119
 2443 00dc F4       		.byte	-12
 2444 00dd AA       		.byte	-86
 2445 00de 48       		.byte	72
 2446 00df 16       		.byte	22
 2447 00e0 E9       		.byte	-23
 2448 00e1 B7       		.byte	-73
 2449 00e2 55       		.byte	85
 2450 00e3 0B       		.byte	11
 2451 00e4 88       		.byte	-120
 2452 00e5 D6       		.byte	-42
 2453 00e6 34       		.byte	52
 2454 00e7 6A       		.byte	106
 2455 00e8 2B       		.byte	43
 2456 00e9 75       		.byte	117
 2457 00ea 97       		.byte	-105
 2458 00eb C9       		.byte	-55
 2459 00ec 4A       		.byte	74
 2460 00ed 14       		.byte	20
 2461 00ee F6       		.byte	-10
 2462 00ef A8       		.byte	-88
 2463 00f0 74       		.byte	116
 2464 00f1 2A       		.byte	42
 2465 00f2 C8       		.byte	-56
 2466 00f3 96       		.byte	-106
 2467 00f4 15       		.byte	21
 2468 00f5 4B       		.byte	75
 2469 00f6 A9       		.byte	-87
 2470 00f7 F7       		.byte	-9
 2471 00f8 B6       		.byte	-74
 2472 00f9 E8       		.byte	-24
 2473 00fa 0A       		.byte	10
 2474 00fb 54       		.byte	84
 2475 00fc D7       		.byte	-41
 2476 00fd 89       		.byte	-119
 2477 00fe 6B       		.byte	107
 2478 00ff 35       		.byte	53
 2479              		.text
 2480              	.Letext0:
 2481              		.file 2 "c:\\program files (x86)\\cypress\\psoc creator\\3.3\\psoc creator\\import\\gnu\\arm\\4.9.
 2482              		.file 3 "c:\\program files (x86)\\cypress\\psoc creator\\3.3\\psoc creator\\import\\gnu\\arm\\4.9.
 2483              		.file 4 "Generated_Source\\PSoC5/cytypes.h"
 2484              		.file 5 "./variables.h"
 2485              		.file 6 "Generated_Source\\PSoC5/core_cm3.h"
ARM GAS  C:\Users\RECEPC~1\AppData\Local\Temp\cctZPkat.s 			page 54


 2486              		.file 7 "Generated_Source\\PSoC5/RF_Connection.h"
 2487              		.file 8 "Generated_Source\\PSoC5/CyLib.h"
 2488              		.file 9 "./I2C.h"
 2489              		.file 10 "Generated_Source\\PSoC5/EEPROM_1.h"
 2490              		.file 11 "./Print.h"
 2491              		.file 12 "./protocol.h"
 2492              		.section	.debug_info,"",%progbits
 2493              	.Ldebug_info0:
 2494 0000 880F0000 		.4byte	0xf88
 2495 0004 0400     		.2byte	0x4
 2496 0006 00000000 		.4byte	.Ldebug_abbrev0
 2497 000a 04       		.byte	0x4
 2498 000b 01       		.uleb128 0x1
 2499 000c D1070000 		.4byte	.LASF193
 2500 0010 01       		.byte	0x1
 2501 0011 30040000 		.4byte	.LASF194
 2502 0015 90080000 		.4byte	.LASF195
 2503 0019 00000000 		.4byte	.Ldebug_ranges0+0
 2504 001d 00000000 		.4byte	0
 2505 0021 00000000 		.4byte	.Ldebug_line0
 2506 0025 02       		.uleb128 0x2
 2507 0026 01       		.byte	0x1
 2508 0027 06       		.byte	0x6
 2509 0028 20090000 		.4byte	.LASF0
 2510 002c 02       		.uleb128 0x2
 2511 002d 01       		.byte	0x1
 2512 002e 08       		.byte	0x8
 2513 002f C3070000 		.4byte	.LASF1
 2514 0033 02       		.uleb128 0x2
 2515 0034 02       		.byte	0x2
 2516 0035 05       		.byte	0x5
 2517 0036 0F060000 		.4byte	.LASF2
 2518 003a 02       		.uleb128 0x2
 2519 003b 02       		.byte	0x2
 2520 003c 07       		.byte	0x7
 2521 003d 3C090000 		.4byte	.LASF3
 2522 0041 03       		.uleb128 0x3
 2523 0042 EB000000 		.4byte	.LASF9
 2524 0046 02       		.byte	0x2
 2525 0047 3F       		.byte	0x3f
 2526 0048 4C000000 		.4byte	0x4c
 2527 004c 02       		.uleb128 0x2
 2528 004d 04       		.byte	0x4
 2529 004e 05       		.byte	0x5
 2530 004f 19060000 		.4byte	.LASF4
 2531 0053 02       		.uleb128 0x2
 2532 0054 04       		.byte	0x4
 2533 0055 07       		.byte	0x7
 2534 0056 52070000 		.4byte	.LASF5
 2535 005a 02       		.uleb128 0x2
 2536 005b 08       		.byte	0x8
 2537 005c 05       		.byte	0x5
 2538 005d 84040000 		.4byte	.LASF6
 2539 0061 02       		.uleb128 0x2
 2540 0062 08       		.byte	0x8
 2541 0063 07       		.byte	0x7
 2542 0064 F4010000 		.4byte	.LASF7
ARM GAS  C:\Users\RECEPC~1\AppData\Local\Temp\cctZPkat.s 			page 55


 2543 0068 04       		.uleb128 0x4
 2544 0069 04       		.byte	0x4
 2545 006a 05       		.byte	0x5
 2546 006b 696E7400 		.ascii	"int\000"
 2547 006f 02       		.uleb128 0x2
 2548 0070 04       		.byte	0x4
 2549 0071 07       		.byte	0x7
 2550 0072 D2000000 		.4byte	.LASF8
 2551 0076 03       		.uleb128 0x3
 2552 0077 8E070000 		.4byte	.LASF10
 2553 007b 03       		.byte	0x3
 2554 007c 2C       		.byte	0x2c
 2555 007d 41000000 		.4byte	0x41
 2556 0081 05       		.uleb128 0x5
 2557 0082 6C090000 		.4byte	.LASF11
 2558 0086 04       		.byte	0x4
 2559 0087 3801     		.2byte	0x138
 2560 0089 2C000000 		.4byte	0x2c
 2561 008d 05       		.uleb128 0x5
 2562 008e DC030000 		.4byte	.LASF12
 2563 0092 04       		.byte	0x4
 2564 0093 3901     		.2byte	0x139
 2565 0095 3A000000 		.4byte	0x3a
 2566 0099 05       		.uleb128 0x5
 2567 009a 35050000 		.4byte	.LASF13
 2568 009e 04       		.byte	0x4
 2569 009f 3A01     		.2byte	0x13a
 2570 00a1 53000000 		.4byte	0x53
 2571 00a5 02       		.uleb128 0x2
 2572 00a6 04       		.byte	0x4
 2573 00a7 04       		.byte	0x4
 2574 00a8 A6010000 		.4byte	.LASF14
 2575 00ac 02       		.uleb128 0x2
 2576 00ad 08       		.byte	0x8
 2577 00ae 04       		.byte	0x4
 2578 00af 72090000 		.4byte	.LASF15
 2579 00b3 05       		.uleb128 0x5
 2580 00b4 ED060000 		.4byte	.LASF16
 2581 00b8 04       		.byte	0x4
 2582 00b9 4401     		.2byte	0x144
 2583 00bb 61000000 		.4byte	0x61
 2584 00bf 05       		.uleb128 0x5
 2585 00c0 FE030000 		.4byte	.LASF17
 2586 00c4 04       		.byte	0x4
 2587 00c5 4901     		.2byte	0x149
 2588 00c7 CB000000 		.4byte	0xcb
 2589 00cb 02       		.uleb128 0x2
 2590 00cc 01       		.byte	0x1
 2591 00cd 08       		.byte	0x8
 2592 00ce 9B030000 		.4byte	.LASF18
 2593 00d2 05       		.uleb128 0x5
 2594 00d3 A8070000 		.4byte	.LASF19
 2595 00d7 04       		.byte	0x4
 2596 00d8 DA01     		.2byte	0x1da
 2597 00da 53000000 		.4byte	0x53
 2598 00de 06       		.uleb128 0x6
 2599 00df 81000000 		.4byte	0x81
ARM GAS  C:\Users\RECEPC~1\AppData\Local\Temp\cctZPkat.s 			page 56


 2600 00e3 06       		.uleb128 0x6
 2601 00e4 99000000 		.4byte	0x99
 2602 00e8 02       		.uleb128 0x2
 2603 00e9 04       		.byte	0x4
 2604 00ea 07       		.byte	0x7
 2605 00eb 49070000 		.4byte	.LASF20
 2606 00ef 07       		.uleb128 0x7
 2607 00f0 04       		.byte	0x4
 2608 00f1 08       		.uleb128 0x8
 2609 00f2 81000000 		.4byte	0x81
 2610 00f6 01010000 		.4byte	0x101
 2611 00fa 09       		.uleb128 0x9
 2612 00fb E8000000 		.4byte	0xe8
 2613 00ff 03       		.byte	0x3
 2614 0100 00       		.byte	0
 2615 0101 0A       		.uleb128 0xa
 2616 0102 A8000000 		.4byte	.LASF63
 2617 0106 4C01     		.2byte	0x14c
 2618 0108 05       		.byte	0x5
 2619 0109 7A       		.byte	0x7a
 2620 010a 15030000 		.4byte	0x315
 2621 010e 0B       		.uleb128 0xb
 2622 010f 21010000 		.4byte	.LASF21
 2623 0113 05       		.byte	0x5
 2624 0114 7B       		.byte	0x7b
 2625 0115 81000000 		.4byte	0x81
 2626 0119 00       		.byte	0
 2627 011a 0B       		.uleb128 0xb
 2628 011b C4020000 		.4byte	.LASF22
 2629 011f 05       		.byte	0x5
 2630 0120 7C       		.byte	0x7c
 2631 0121 15030000 		.4byte	0x315
 2632 0125 01       		.byte	0x1
 2633 0126 0B       		.uleb128 0xb
 2634 0127 79090000 		.4byte	.LASF23
 2635 012b 05       		.byte	0x5
 2636 012c 7D       		.byte	0x7d
 2637 012d 81000000 		.4byte	0x81
 2638 0131 1A       		.byte	0x1a
 2639 0132 0B       		.uleb128 0xb
 2640 0133 B1070000 		.4byte	.LASF24
 2641 0137 05       		.byte	0x5
 2642 0138 7E       		.byte	0x7e
 2643 0139 81000000 		.4byte	0x81
 2644 013d 1B       		.byte	0x1b
 2645 013e 0B       		.uleb128 0xb
 2646 013f 3E010000 		.4byte	.LASF25
 2647 0143 05       		.byte	0x5
 2648 0144 7F       		.byte	0x7f
 2649 0145 25030000 		.4byte	0x325
 2650 0149 1C       		.byte	0x1c
 2651 014a 0B       		.uleb128 0xb
 2652 014b C2050000 		.4byte	.LASF26
 2653 014f 05       		.byte	0x5
 2654 0150 80       		.byte	0x80
 2655 0151 25030000 		.4byte	0x325
 2656 0155 26       		.byte	0x26
ARM GAS  C:\Users\RECEPC~1\AppData\Local\Temp\cctZPkat.s 			page 57


 2657 0156 0B       		.uleb128 0xb
 2658 0157 9F090000 		.4byte	.LASF27
 2659 015b 05       		.byte	0x5
 2660 015c 81       		.byte	0x81
 2661 015d 15030000 		.4byte	0x315
 2662 0161 30       		.byte	0x30
 2663 0162 0B       		.uleb128 0xb
 2664 0163 8C050000 		.4byte	.LASF28
 2665 0167 05       		.byte	0x5
 2666 0168 82       		.byte	0x82
 2667 0169 81000000 		.4byte	0x81
 2668 016d 49       		.byte	0x49
 2669 016e 0B       		.uleb128 0xb
 2670 016f 5F080000 		.4byte	.LASF29
 2671 0173 05       		.byte	0x5
 2672 0174 83       		.byte	0x83
 2673 0175 81000000 		.4byte	0x81
 2674 0179 4A       		.byte	0x4a
 2675 017a 0B       		.uleb128 0xb
 2676 017b 91030000 		.4byte	.LASF30
 2677 017f 05       		.byte	0x5
 2678 0180 84       		.byte	0x84
 2679 0181 35030000 		.4byte	0x335
 2680 0185 4B       		.byte	0x4b
 2681 0186 0B       		.uleb128 0xb
 2682 0187 0A050000 		.4byte	.LASF31
 2683 018b 05       		.byte	0x5
 2684 018c 85       		.byte	0x85
 2685 018d 81000000 		.4byte	0x81
 2686 0191 60       		.byte	0x60
 2687 0192 0B       		.uleb128 0xb
 2688 0193 7E030000 		.4byte	.LASF32
 2689 0197 05       		.byte	0x5
 2690 0198 86       		.byte	0x86
 2691 0199 81000000 		.4byte	0x81
 2692 019d 61       		.byte	0x61
 2693 019e 0B       		.uleb128 0xb
 2694 019f C6000000 		.4byte	.LASF33
 2695 01a3 05       		.byte	0x5
 2696 01a4 87       		.byte	0x87
 2697 01a5 81000000 		.4byte	0x81
 2698 01a9 62       		.byte	0x62
 2699 01aa 0B       		.uleb128 0xb
 2700 01ab E6080000 		.4byte	.LASF34
 2701 01af 05       		.byte	0x5
 2702 01b0 88       		.byte	0x88
 2703 01b1 45030000 		.4byte	0x345
 2704 01b5 63       		.byte	0x63
 2705 01b6 0B       		.uleb128 0xb
 2706 01b7 55030000 		.4byte	.LASF35
 2707 01bb 05       		.byte	0x5
 2708 01bc 89       		.byte	0x89
 2709 01bd 55030000 		.4byte	0x355
 2710 01c1 65       		.byte	0x65
 2711 01c2 0B       		.uleb128 0xb
 2712 01c3 A1020000 		.4byte	.LASF36
 2713 01c7 05       		.byte	0x5
ARM GAS  C:\Users\RECEPC~1\AppData\Local\Temp\cctZPkat.s 			page 58


 2714 01c8 8A       		.byte	0x8a
 2715 01c9 81000000 		.4byte	0x81
 2716 01cd 79       		.byte	0x79
 2717 01ce 0B       		.uleb128 0xb
 2718 01cf 10070000 		.4byte	.LASF37
 2719 01d3 05       		.byte	0x5
 2720 01d4 8B       		.byte	0x8b
 2721 01d5 6B030000 		.4byte	0x36b
 2722 01d9 7A       		.byte	0x7a
 2723 01da 0B       		.uleb128 0xb
 2724 01db 6A060000 		.4byte	.LASF38
 2725 01df 05       		.byte	0x5
 2726 01e0 8C       		.byte	0x8c
 2727 01e1 7B030000 		.4byte	0x37b
 2728 01e5 7F       		.byte	0x7f
 2729 01e6 0B       		.uleb128 0xb
 2730 01e7 82090000 		.4byte	.LASF39
 2731 01eb 05       		.byte	0x5
 2732 01ec 8D       		.byte	0x8d
 2733 01ed 7B030000 		.4byte	0x37b
 2734 01f1 85       		.byte	0x85
 2735 01f2 0B       		.uleb128 0xb
 2736 01f3 A4050000 		.4byte	.LASF40
 2737 01f7 05       		.byte	0x5
 2738 01f8 8E       		.byte	0x8e
 2739 01f9 8B030000 		.4byte	0x38b
 2740 01fd 8B       		.byte	0x8b
 2741 01fe 0B       		.uleb128 0xb
 2742 01ff 25020000 		.4byte	.LASF41
 2743 0203 05       		.byte	0x5
 2744 0204 8F       		.byte	0x8f
 2745 0205 8B030000 		.4byte	0x38b
 2746 0209 99       		.byte	0x99
 2747 020a 0B       		.uleb128 0xb
 2748 020b DA040000 		.4byte	.LASF42
 2749 020f 05       		.byte	0x5
 2750 0210 90       		.byte	0x90
 2751 0211 8B030000 		.4byte	0x38b
 2752 0215 A7       		.byte	0xa7
 2753 0216 0B       		.uleb128 0xb
 2754 0217 20040000 		.4byte	.LASF43
 2755 021b 05       		.byte	0x5
 2756 021c 91       		.byte	0x91
 2757 021d 8B030000 		.4byte	0x38b
 2758 0221 B5       		.byte	0xb5
 2759 0222 0B       		.uleb128 0xb
 2760 0223 D3060000 		.4byte	.LASF44
 2761 0227 05       		.byte	0x5
 2762 0228 92       		.byte	0x92
 2763 0229 8B030000 		.4byte	0x38b
 2764 022d C3       		.byte	0xc3
 2765 022e 0B       		.uleb128 0xb
 2766 022f 72050000 		.4byte	.LASF45
 2767 0233 05       		.byte	0x5
 2768 0234 93       		.byte	0x93
 2769 0235 8B030000 		.4byte	0x38b
 2770 0239 D1       		.byte	0xd1
ARM GAS  C:\Users\RECEPC~1\AppData\Local\Temp\cctZPkat.s 			page 59


 2771 023a 0B       		.uleb128 0xb
 2772 023b F6050000 		.4byte	.LASF46
 2773 023f 05       		.byte	0x5
 2774 0240 94       		.byte	0x94
 2775 0241 9B030000 		.4byte	0x39b
 2776 0245 DF       		.byte	0xdf
 2777 0246 0B       		.uleb128 0xb
 2778 0247 EB020000 		.4byte	.LASF47
 2779 024b 05       		.byte	0x5
 2780 024c 95       		.byte	0x95
 2781 024d 9B030000 		.4byte	0x39b
 2782 0251 EA       		.byte	0xea
 2783 0252 0B       		.uleb128 0xb
 2784 0253 73030000 		.4byte	.LASF48
 2785 0257 05       		.byte	0x5
 2786 0258 96       		.byte	0x96
 2787 0259 9B030000 		.4byte	0x39b
 2788 025d F5       		.byte	0xf5
 2789 025e 0C       		.uleb128 0xc
 2790 025f 23050000 		.4byte	.LASF49
 2791 0263 05       		.byte	0x5
 2792 0264 97       		.byte	0x97
 2793 0265 81000000 		.4byte	0x81
 2794 0269 0001     		.2byte	0x100
 2795 026b 0C       		.uleb128 0xc
 2796 026c F2030000 		.4byte	.LASF50
 2797 0270 05       		.byte	0x5
 2798 0271 98       		.byte	0x98
 2799 0272 81000000 		.4byte	0x81
 2800 0276 0101     		.2byte	0x101
 2801 0278 0C       		.uleb128 0xc
 2802 0279 F5000000 		.4byte	.LASF51
 2803 027d 05       		.byte	0x5
 2804 027e 99       		.byte	0x99
 2805 027f 81000000 		.4byte	0x81
 2806 0283 0201     		.2byte	0x102
 2807 0285 0C       		.uleb128 0xc
 2808 0286 5E060000 		.4byte	.LASF52
 2809 028a 05       		.byte	0x5
 2810 028b 9A       		.byte	0x9a
 2811 028c 81000000 		.4byte	0x81
 2812 0290 0301     		.2byte	0x103
 2813 0292 0C       		.uleb128 0xc
 2814 0293 3B040000 		.4byte	.LASF53
 2815 0297 05       		.byte	0x5
 2816 0298 9B       		.byte	0x9b
 2817 0299 25030000 		.4byte	0x325
 2818 029d 0401     		.2byte	0x104
 2819 029f 0C       		.uleb128 0xc
 2820 02a0 92000000 		.4byte	.LASF54
 2821 02a4 05       		.byte	0x5
 2822 02a5 9C       		.byte	0x9c
 2823 02a6 25030000 		.4byte	0x325
 2824 02aa 0E01     		.2byte	0x10e
 2825 02ac 0C       		.uleb128 0xc
 2826 02ad 11040000 		.4byte	.LASF55
 2827 02b1 05       		.byte	0x5
ARM GAS  C:\Users\RECEPC~1\AppData\Local\Temp\cctZPkat.s 			page 60


 2828 02b2 9D       		.byte	0x9d
 2829 02b3 25030000 		.4byte	0x325
 2830 02b7 1801     		.2byte	0x118
 2831 02b9 0C       		.uleb128 0xc
 2832 02ba 02060000 		.4byte	.LASF56
 2833 02be 05       		.byte	0x5
 2834 02bf 9E       		.byte	0x9e
 2835 02c0 AB030000 		.4byte	0x3ab
 2836 02c4 2201     		.2byte	0x122
 2837 02c6 0C       		.uleb128 0xc
 2838 02c7 46040000 		.4byte	.LASF57
 2839 02cb 05       		.byte	0x5
 2840 02cc 9F       		.byte	0x9f
 2841 02cd 45030000 		.4byte	0x345
 2842 02d1 3101     		.2byte	0x131
 2843 02d3 0C       		.uleb128 0xc
 2844 02d4 F7020000 		.4byte	.LASF58
 2845 02d8 05       		.byte	0x5
 2846 02d9 A0       		.byte	0xa0
 2847 02da 81000000 		.4byte	0x81
 2848 02de 3301     		.2byte	0x133
 2849 02e0 0C       		.uleb128 0xc
 2850 02e1 84070000 		.4byte	.LASF59
 2851 02e5 05       		.byte	0x5
 2852 02e6 A1       		.byte	0xa1
 2853 02e7 81000000 		.4byte	0x81
 2854 02eb 3401     		.2byte	0x134
 2855 02ed 0C       		.uleb128 0xc
 2856 02ee 05030000 		.4byte	.LASF60
 2857 02f2 05       		.byte	0x5
 2858 02f3 A2       		.byte	0xa2
 2859 02f4 81000000 		.4byte	0x81
 2860 02f8 3501     		.2byte	0x135
 2861 02fa 0C       		.uleb128 0xc
 2862 02fb 49060000 		.4byte	.LASF61
 2863 02ff 05       		.byte	0x5
 2864 0300 A3       		.byte	0xa3
 2865 0301 9B030000 		.4byte	0x39b
 2866 0305 3601     		.2byte	0x136
 2867 0307 0C       		.uleb128 0xc
 2868 0308 12090000 		.4byte	.LASF62
 2869 030c 05       		.byte	0x5
 2870 030d A4       		.byte	0xa4
 2871 030e 9B030000 		.4byte	0x39b
 2872 0312 4101     		.2byte	0x141
 2873 0314 00       		.byte	0
 2874 0315 08       		.uleb128 0x8
 2875 0316 81000000 		.4byte	0x81
 2876 031a 25030000 		.4byte	0x325
 2877 031e 09       		.uleb128 0x9
 2878 031f E8000000 		.4byte	0xe8
 2879 0323 18       		.byte	0x18
 2880 0324 00       		.byte	0
 2881 0325 08       		.uleb128 0x8
 2882 0326 81000000 		.4byte	0x81
 2883 032a 35030000 		.4byte	0x335
 2884 032e 09       		.uleb128 0x9
ARM GAS  C:\Users\RECEPC~1\AppData\Local\Temp\cctZPkat.s 			page 61


 2885 032f E8000000 		.4byte	0xe8
 2886 0333 09       		.byte	0x9
 2887 0334 00       		.byte	0
 2888 0335 08       		.uleb128 0x8
 2889 0336 81000000 		.4byte	0x81
 2890 033a 45030000 		.4byte	0x345
 2891 033e 09       		.uleb128 0x9
 2892 033f E8000000 		.4byte	0xe8
 2893 0343 14       		.byte	0x14
 2894 0344 00       		.byte	0
 2895 0345 08       		.uleb128 0x8
 2896 0346 81000000 		.4byte	0x81
 2897 034a 55030000 		.4byte	0x355
 2898 034e 09       		.uleb128 0x9
 2899 034f E8000000 		.4byte	0xe8
 2900 0353 01       		.byte	0x1
 2901 0354 00       		.byte	0
 2902 0355 08       		.uleb128 0x8
 2903 0356 81000000 		.4byte	0x81
 2904 035a 6B030000 		.4byte	0x36b
 2905 035e 09       		.uleb128 0x9
 2906 035f E8000000 		.4byte	0xe8
 2907 0363 01       		.byte	0x1
 2908 0364 09       		.uleb128 0x9
 2909 0365 E8000000 		.4byte	0xe8
 2910 0369 09       		.byte	0x9
 2911 036a 00       		.byte	0
 2912 036b 08       		.uleb128 0x8
 2913 036c 81000000 		.4byte	0x81
 2914 0370 7B030000 		.4byte	0x37b
 2915 0374 09       		.uleb128 0x9
 2916 0375 E8000000 		.4byte	0xe8
 2917 0379 04       		.byte	0x4
 2918 037a 00       		.byte	0
 2919 037b 08       		.uleb128 0x8
 2920 037c 81000000 		.4byte	0x81
 2921 0380 8B030000 		.4byte	0x38b
 2922 0384 09       		.uleb128 0x9
 2923 0385 E8000000 		.4byte	0xe8
 2924 0389 05       		.byte	0x5
 2925 038a 00       		.byte	0
 2926 038b 08       		.uleb128 0x8
 2927 038c 81000000 		.4byte	0x81
 2928 0390 9B030000 		.4byte	0x39b
 2929 0394 09       		.uleb128 0x9
 2930 0395 E8000000 		.4byte	0xe8
 2931 0399 0D       		.byte	0xd
 2932 039a 00       		.byte	0
 2933 039b 08       		.uleb128 0x8
 2934 039c 81000000 		.4byte	0x81
 2935 03a0 AB030000 		.4byte	0x3ab
 2936 03a4 09       		.uleb128 0x9
 2937 03a5 E8000000 		.4byte	0xe8
 2938 03a9 0A       		.byte	0xa
 2939 03aa 00       		.byte	0
 2940 03ab 08       		.uleb128 0x8
 2941 03ac 81000000 		.4byte	0x81
ARM GAS  C:\Users\RECEPC~1\AppData\Local\Temp\cctZPkat.s 			page 62


 2942 03b0 BB030000 		.4byte	0x3bb
 2943 03b4 09       		.uleb128 0x9
 2944 03b5 E8000000 		.4byte	0xe8
 2945 03b9 0E       		.byte	0xe
 2946 03ba 00       		.byte	0
 2947 03bb 0A       		.uleb128 0xa
 2948 03bc B2090000 		.4byte	.LASF64
 2949 03c0 0601     		.2byte	0x106
 2950 03c2 05       		.byte	0x5
 2951 03c3 B5       		.byte	0xb5
 2952 03c4 6B040000 		.4byte	0x46b
 2953 03c8 0D       		.uleb128 0xd
 2954 03c9 64697200 		.ascii	"dir\000"
 2955 03cd 05       		.byte	0x5
 2956 03ce B6       		.byte	0xb6
 2957 03cf 81000000 		.4byte	0x81
 2958 03d3 00       		.byte	0
 2959 03d4 0B       		.uleb128 0xb
 2960 03d5 48030000 		.4byte	.LASF65
 2961 03d9 05       		.byte	0x5
 2962 03da B7       		.byte	0xb7
 2963 03db 6B040000 		.4byte	0x46b
 2964 03df 01       		.byte	0x1
 2965 03e0 0B       		.uleb128 0xb
 2966 03e1 91090000 		.4byte	.LASF66
 2967 03e5 05       		.byte	0x5
 2968 03e6 B8       		.byte	0xb8
 2969 03e7 87040000 		.4byte	0x487
 2970 03eb B5       		.byte	0xb5
 2971 03ec 0B       		.uleb128 0xb
 2972 03ed 7A040000 		.4byte	.LASF67
 2973 03f1 05       		.byte	0x5
 2974 03f2 B9       		.byte	0xb9
 2975 03f3 8B030000 		.4byte	0x38b
 2976 03f7 D5       		.byte	0xd5
 2977 03f8 0B       		.uleb128 0xb
 2978 03f9 FA080000 		.4byte	.LASF68
 2979 03fd 05       		.byte	0x5
 2980 03fe BA       		.byte	0xba
 2981 03ff 8B030000 		.4byte	0x38b
 2982 0403 E3       		.byte	0xe3
 2983 0404 0B       		.uleb128 0xb
 2984 0405 A5040000 		.4byte	.LASF69
 2985 0409 05       		.byte	0x5
 2986 040a BB       		.byte	0xbb
 2987 040b 8B030000 		.4byte	0x38b
 2988 040f F1       		.byte	0xf1
 2989 0410 0B       		.uleb128 0xb
 2990 0411 60090000 		.4byte	.LASF70
 2991 0415 05       		.byte	0x5
 2992 0416 BC       		.byte	0xbc
 2993 0417 81000000 		.4byte	0x81
 2994 041b FF       		.byte	0xff
 2995 041c 0C       		.uleb128 0xc
 2996 041d 79070000 		.4byte	.LASF71
 2997 0421 05       		.byte	0x5
 2998 0422 BD       		.byte	0xbd
ARM GAS  C:\Users\RECEPC~1\AppData\Local\Temp\cctZPkat.s 			page 63


 2999 0423 81000000 		.4byte	0x81
 3000 0427 0001     		.2byte	0x100
 3001 0429 0C       		.uleb128 0xc
 3002 042a D7010000 		.4byte	.LASF72
 3003 042e 05       		.byte	0x5
 3004 042f BE       		.byte	0xbe
 3005 0430 81000000 		.4byte	0x81
 3006 0434 0101     		.2byte	0x101
 3007 0436 0C       		.uleb128 0xc
 3008 0437 79060000 		.4byte	.LASF73
 3009 043b 05       		.byte	0x5
 3010 043c BF       		.byte	0xbf
 3011 043d 81000000 		.4byte	0x81
 3012 0441 0201     		.2byte	0x102
 3013 0443 0C       		.uleb128 0xc
 3014 0444 D2090000 		.4byte	.LASF74
 3015 0448 05       		.byte	0x5
 3016 0449 C0       		.byte	0xc0
 3017 044a 81000000 		.4byte	0x81
 3018 044e 0301     		.2byte	0x103
 3019 0450 0C       		.uleb128 0xc
 3020 0451 E8030000 		.4byte	.LASF75
 3021 0455 05       		.byte	0x5
 3022 0456 C1       		.byte	0xc1
 3023 0457 81000000 		.4byte	0x81
 3024 045b 0401     		.2byte	0x104
 3025 045d 0C       		.uleb128 0xc
 3026 045e 5E010000 		.4byte	.LASF76
 3027 0462 05       		.byte	0x5
 3028 0463 C2       		.byte	0xc2
 3029 0464 81000000 		.4byte	0x81
 3030 0468 0501     		.2byte	0x105
 3031 046a 00       		.byte	0
 3032 046b 08       		.uleb128 0x8
 3033 046c 81000000 		.4byte	0x81
 3034 0470 87040000 		.4byte	0x487
 3035 0474 09       		.uleb128 0x9
 3036 0475 E8000000 		.4byte	0xe8
 3037 0479 03       		.byte	0x3
 3038 047a 09       		.uleb128 0x9
 3039 047b E8000000 		.4byte	0xe8
 3040 047f 02       		.byte	0x2
 3041 0480 09       		.uleb128 0x9
 3042 0481 E8000000 		.4byte	0xe8
 3043 0485 0E       		.byte	0xe
 3044 0486 00       		.byte	0
 3045 0487 08       		.uleb128 0x8
 3046 0488 81000000 		.4byte	0x81
 3047 048c 9D040000 		.4byte	0x49d
 3048 0490 09       		.uleb128 0x9
 3049 0491 E8000000 		.4byte	0xe8
 3050 0495 03       		.byte	0x3
 3051 0496 09       		.uleb128 0x9
 3052 0497 E8000000 		.4byte	0xe8
 3053 049b 07       		.byte	0x7
 3054 049c 00       		.byte	0
 3055 049d 0A       		.uleb128 0xa
ARM GAS  C:\Users\RECEPC~1\AppData\Local\Temp\cctZPkat.s 			page 64


 3056 049e 81080000 		.4byte	.LASF77
 3057 04a2 1804     		.2byte	0x418
 3058 04a4 05       		.byte	0x5
 3059 04a5 C5       		.byte	0xc5
 3060 04a6 D6040000 		.4byte	0x4d6
 3061 04aa 0D       		.uleb128 0xd
 3062 04ab 6100     		.ascii	"a\000"
 3063 04ad 05       		.byte	0x5
 3064 04ae C6       		.byte	0xc6
 3065 04af BB030000 		.4byte	0x3bb
 3066 04b3 00       		.byte	0
 3067 04b4 0E       		.uleb128 0xe
 3068 04b5 6200     		.ascii	"b\000"
 3069 04b7 05       		.byte	0x5
 3070 04b8 C7       		.byte	0xc7
 3071 04b9 BB030000 		.4byte	0x3bb
 3072 04bd 0601     		.2byte	0x106
 3073 04bf 0E       		.uleb128 0xe
 3074 04c0 6300     		.ascii	"c\000"
 3075 04c2 05       		.byte	0x5
 3076 04c3 C8       		.byte	0xc8
 3077 04c4 BB030000 		.4byte	0x3bb
 3078 04c8 0C02     		.2byte	0x20c
 3079 04ca 0E       		.uleb128 0xe
 3080 04cb 6400     		.ascii	"d\000"
 3081 04cd 05       		.byte	0x5
 3082 04ce C9       		.byte	0xc9
 3083 04cf BB030000 		.4byte	0x3bb
 3084 04d3 1203     		.2byte	0x312
 3085 04d5 00       		.byte	0
 3086 04d6 0F       		.uleb128 0xf
 3087 04d7 5A020000 		.4byte	.LASF86
 3088 04db 01       		.byte	0x1
 3089 04dc 05       		.byte	0x5
 3090 04dd 2A01     		.2byte	0x12a
 3091 04df 14050000 		.4byte	0x514
 3092 04e3 10       		.uleb128 0x10
 3093 04e4 04010000 		.4byte	.LASF78
 3094 04e8 00       		.sleb128 0
 3095 04e9 10       		.uleb128 0x10
 3096 04ea 9C010000 		.4byte	.LASF79
 3097 04ee 06       		.sleb128 6
 3098 04ef 10       		.uleb128 0x10
 3099 04f0 16050000 		.4byte	.LASF80
 3100 04f4 07       		.sleb128 7
 3101 04f5 10       		.uleb128 0x10
 3102 04f6 3C050000 		.4byte	.LASF81
 3103 04fa 08       		.sleb128 8
 3104 04fb 10       		.uleb128 0x10
 3105 04fc 87030000 		.4byte	.LASF82
 3106 0500 09       		.sleb128 9
 3107 0501 10       		.uleb128 0x10
 3108 0502 86080000 		.4byte	.LASF83
 3109 0506 0A       		.sleb128 10
 3110 0507 10       		.uleb128 0x10
 3111 0508 1B020000 		.4byte	.LASF84
 3112 050c 0B       		.sleb128 11
ARM GAS  C:\Users\RECEPC~1\AppData\Local\Temp\cctZPkat.s 			page 65


 3113 050d 10       		.uleb128 0x10
 3114 050e B1030000 		.4byte	.LASF85
 3115 0512 0C       		.sleb128 12
 3116 0513 00       		.byte	0
 3117 0514 0F       		.uleb128 0xf
 3118 0515 DF020000 		.4byte	.LASF87
 3119 0519 01       		.byte	0x1
 3120 051a 05       		.byte	0x5
 3121 051b 3601     		.2byte	0x136
 3122 051d 58050000 		.4byte	0x558
 3123 0521 10       		.uleb128 0x10
 3124 0522 6A050000 		.4byte	.LASF88
 3125 0526 08       		.sleb128 8
 3126 0527 10       		.uleb128 0x10
 3127 0528 64070000 		.4byte	.LASF89
 3128 052c 01       		.sleb128 1
 3129 052d 10       		.uleb128 0x10
 3130 052e 96070000 		.4byte	.LASF90
 3131 0532 02       		.sleb128 2
 3132 0533 10       		.uleb128 0x10
 3133 0534 58040000 		.4byte	.LASF91
 3134 0538 03       		.sleb128 3
 3135 0539 10       		.uleb128 0x10
 3136 053a 0B020000 		.4byte	.LASF92
 3137 053e 05       		.sleb128 5
 3138 053f 10       		.uleb128 0x10
 3139 0540 93060000 		.4byte	.LASF93
 3140 0544 06       		.sleb128 6
 3141 0545 10       		.uleb128 0x10
 3142 0546 F1080000 		.4byte	.LASF94
 3143 054a 04       		.sleb128 4
 3144 054b 10       		.uleb128 0x10
 3145 054c 71080000 		.4byte	.LASF95
 3146 0550 0B       		.sleb128 11
 3147 0551 10       		.uleb128 0x10
 3148 0552 04040000 		.4byte	.LASF96
 3149 0556 0C       		.sleb128 12
 3150 0557 00       		.byte	0
 3151 0558 11       		.uleb128 0x11
 3152 0559 04       		.byte	0x4
 3153 055a 5E050000 		.4byte	0x55e
 3154 055e 12       		.uleb128 0x12
 3155 055f 13       		.uleb128 0x13
 3156 0560 6A040000 		.4byte	.LASF196
 3157 0564 01       		.byte	0x1
 3158 0565 17       		.byte	0x17
 3159 0566 81000000 		.4byte	0x81
 3160 056a 00000000 		.4byte	.LFB63
 3161 056e 34000000 		.4byte	.LFE63-.LFB63
 3162 0572 01       		.uleb128 0x1
 3163 0573 9C       		.byte	0x9c
 3164 0574 F1050000 		.4byte	0x5f1
 3165 0578 14       		.uleb128 0x14
 3166 0579 1A040000 		.4byte	.LASF97
 3167 057d 01       		.byte	0x1
 3168 057e 17       		.byte	0x17
 3169 057f F1050000 		.4byte	0x5f1
ARM GAS  C:\Users\RECEPC~1\AppData\Local\Temp\cctZPkat.s 			page 66


 3170 0583 00000000 		.4byte	.LLST0
 3171 0587 14       		.uleb128 0x14
 3172 0588 30050000 		.4byte	.LASF98
 3173 058c 01       		.byte	0x1
 3174 058d 17       		.byte	0x17
 3175 058e 8D000000 		.4byte	0x8d
 3176 0592 2C000000 		.4byte	.LLST1
 3177 0596 15       		.uleb128 0x15
 3178 0597 AC010000 		.4byte	.LASF99
 3179 059b 01       		.byte	0x1
 3180 059c 18       		.byte	0x18
 3181 059d 81000000 		.4byte	0x81
 3182 05a1 4D000000 		.4byte	.LLST2
 3183 05a5 15       		.uleb128 0x15
 3184 05a6 BC010000 		.4byte	.LASF100
 3185 05aa 01       		.byte	0x1
 3186 05ab 18       		.byte	0x18
 3187 05ac 81000000 		.4byte	0x81
 3188 05b0 77000000 		.4byte	.LLST3
 3189 05b4 16       		.uleb128 0x16
 3190 05b5 6900     		.ascii	"i\000"
 3191 05b7 01       		.byte	0x1
 3192 05b8 19       		.byte	0x19
 3193 05b9 8D000000 		.4byte	0x8d
 3194 05bd 8A000000 		.4byte	.LLST4
 3195 05c1 17       		.uleb128 0x17
 3196 05c2 D6030000 		.4byte	.LASF101
 3197 05c6 01       		.byte	0x1
 3198 05c7 1A       		.byte	0x1a
 3199 05c8 F7050000 		.4byte	0x5f7
 3200 05cc 03       		.uleb128 0x3
 3201 05cd 91       		.byte	0x91
 3202 05ce F07D     		.sleb128 -272
 3203 05d0 18       		.uleb128 0x18
 3204 05d1 14000000 		.4byte	.LVL3
 3205 05d5 B90E0000 		.4byte	0xeb9
 3206 05d9 19       		.uleb128 0x19
 3207 05da 01       		.uleb128 0x1
 3208 05db 52       		.byte	0x52
 3209 05dc 03       		.uleb128 0x3
 3210 05dd 0A       		.byte	0xa
 3211 05de 0001     		.2byte	0x100
 3212 05e0 19       		.uleb128 0x19
 3213 05e1 01       		.uleb128 0x1
 3214 05e2 51       		.byte	0x51
 3215 05e3 05       		.uleb128 0x5
 3216 05e4 03       		.byte	0x3
 3217 05e5 00000000 		.4byte	.LANCHOR0
 3218 05e9 19       		.uleb128 0x19
 3219 05ea 01       		.uleb128 0x1
 3220 05eb 50       		.byte	0x50
 3221 05ec 02       		.uleb128 0x2
 3222 05ed 7D       		.byte	0x7d
 3223 05ee 00       		.sleb128 0
 3224 05ef 00       		.byte	0
 3225 05f0 00       		.byte	0
 3226 05f1 11       		.uleb128 0x11
ARM GAS  C:\Users\RECEPC~1\AppData\Local\Temp\cctZPkat.s 			page 67


 3227 05f2 04       		.byte	0x4
 3228 05f3 81000000 		.4byte	0x81
 3229 05f7 08       		.uleb128 0x8
 3230 05f8 81000000 		.4byte	0x81
 3231 05fc 07060000 		.4byte	0x607
 3232 0600 09       		.uleb128 0x9
 3233 0601 E8000000 		.4byte	0xe8
 3234 0605 FF       		.byte	0xff
 3235 0606 00       		.byte	0
 3236 0607 1A       		.uleb128 0x1a
 3237 0608 37000000 		.4byte	.LASF102
 3238 060c 01       		.byte	0x1
 3239 060d 36       		.byte	0x36
 3240 060e 00000000 		.4byte	.LFB64
 3241 0612 D4060000 		.4byte	.LFE64-.LFB64
 3242 0616 01       		.uleb128 0x1
 3243 0617 9C       		.byte	0x9c
 3244 0618 E0070000 		.4byte	0x7e0
 3245 061c 16       		.uleb128 0x16
 3246 061d 6900     		.ascii	"i\000"
 3247 061f 01       		.byte	0x1
 3248 0620 37       		.byte	0x37
 3249 0621 8D000000 		.4byte	0x8d
 3250 0625 B4000000 		.4byte	.LLST5
 3251 0629 16       		.uleb128 0x16
 3252 062a 7800     		.ascii	"x\000"
 3253 062c 01       		.byte	0x1
 3254 062d 37       		.byte	0x37
 3255 062e 8D000000 		.4byte	0x8d
 3256 0632 41010000 		.4byte	.LLST6
 3257 0636 16       		.uleb128 0x16
 3258 0637 7900     		.ascii	"y\000"
 3259 0639 01       		.byte	0x1
 3260 063a 37       		.byte	0x37
 3261 063b 8D000000 		.4byte	0x8d
 3262 063f EF030000 		.4byte	.LLST7
 3263 0643 1B       		.uleb128 0x1b
 3264 0644 18000000 		.4byte	.LVL10
 3265 0648 D60E0000 		.4byte	0xed6
 3266 064c 57060000 		.4byte	0x657
 3267 0650 19       		.uleb128 0x19
 3268 0651 01       		.uleb128 0x1
 3269 0652 50       		.byte	0x50
 3270 0653 02       		.uleb128 0x2
 3271 0654 08       		.byte	0x8
 3272 0655 64       		.byte	0x64
 3273 0656 00       		.byte	0
 3274 0657 1C       		.uleb128 0x1c
 3275 0658 1C000000 		.4byte	.LVL11
 3276 065c E70E0000 		.4byte	0xee7
 3277 0660 1C       		.uleb128 0x1c
 3278 0661 34000000 		.4byte	.LVL14
 3279 0665 F20E0000 		.4byte	0xef2
 3280 0669 1C       		.uleb128 0x1c
 3281 066a 40000000 		.4byte	.LVL17
 3282 066e E70E0000 		.4byte	0xee7
 3283 0672 1B       		.uleb128 0x1b
ARM GAS  C:\Users\RECEPC~1\AppData\Local\Temp\cctZPkat.s 			page 68


 3284 0673 62010000 		.4byte	.LVL45
 3285 0677 5F050000 		.4byte	0x55f
 3286 067b 8C060000 		.4byte	0x68c
 3287 067f 19       		.uleb128 0x19
 3288 0680 01       		.uleb128 0x1
 3289 0681 51       		.byte	0x51
 3290 0682 02       		.uleb128 0x2
 3291 0683 75       		.byte	0x75
 3292 0684 00       		.sleb128 0
 3293 0685 19       		.uleb128 0x19
 3294 0686 01       		.uleb128 0x1
 3295 0687 50       		.byte	0x50
 3296 0688 02       		.uleb128 0x2
 3297 0689 76       		.byte	0x76
 3298 068a 00       		.sleb128 0
 3299 068b 00       		.byte	0
 3300 068c 1C       		.uleb128 0x1c
 3301 068d 70010000 		.4byte	.LVL48
 3302 0691 FD0E0000 		.4byte	0xefd
 3303 0695 1B       		.uleb128 0x1b
 3304 0696 E4020000 		.4byte	.LVL113
 3305 069a 5F050000 		.4byte	0x55f
 3306 069e AF060000 		.4byte	0x6af
 3307 06a2 19       		.uleb128 0x19
 3308 06a3 01       		.uleb128 0x1
 3309 06a4 51       		.byte	0x51
 3310 06a5 02       		.uleb128 0x2
 3311 06a6 75       		.byte	0x75
 3312 06a7 00       		.sleb128 0
 3313 06a8 19       		.uleb128 0x19
 3314 06a9 01       		.uleb128 0x1
 3315 06aa 50       		.byte	0x50
 3316 06ab 02       		.uleb128 0x2
 3317 06ac 76       		.byte	0x76
 3318 06ad 00       		.sleb128 0
 3319 06ae 00       		.byte	0
 3320 06af 1C       		.uleb128 0x1c
 3321 06b0 F2020000 		.4byte	.LVL116
 3322 06b4 FD0E0000 		.4byte	0xefd
 3323 06b8 1B       		.uleb128 0x1b
 3324 06b9 44040000 		.4byte	.LVL164
 3325 06bd 5F050000 		.4byte	0x55f
 3326 06c1 D2060000 		.4byte	0x6d2
 3327 06c5 19       		.uleb128 0x19
 3328 06c6 01       		.uleb128 0x1
 3329 06c7 51       		.byte	0x51
 3330 06c8 02       		.uleb128 0x2
 3331 06c9 75       		.byte	0x75
 3332 06ca 00       		.sleb128 0
 3333 06cb 19       		.uleb128 0x19
 3334 06cc 01       		.uleb128 0x1
 3335 06cd 50       		.byte	0x50
 3336 06ce 02       		.uleb128 0x2
 3337 06cf 76       		.byte	0x76
 3338 06d0 00       		.sleb128 0
 3339 06d1 00       		.byte	0
 3340 06d2 1C       		.uleb128 0x1c
ARM GAS  C:\Users\RECEPC~1\AppData\Local\Temp\cctZPkat.s 			page 69


 3341 06d3 52040000 		.4byte	.LVL167
 3342 06d7 FD0E0000 		.4byte	0xefd
 3343 06db 1B       		.uleb128 0x1b
 3344 06dc D0040000 		.4byte	.LVL172
 3345 06e0 5F050000 		.4byte	0x55f
 3346 06e4 F4060000 		.4byte	0x6f4
 3347 06e8 19       		.uleb128 0x19
 3348 06e9 01       		.uleb128 0x1
 3349 06ea 51       		.byte	0x51
 3350 06eb 01       		.uleb128 0x1
 3351 06ec 39       		.byte	0x39
 3352 06ed 19       		.uleb128 0x19
 3353 06ee 01       		.uleb128 0x1
 3354 06ef 50       		.byte	0x50
 3355 06f0 02       		.uleb128 0x2
 3356 06f1 74       		.byte	0x74
 3357 06f2 00       		.sleb128 0
 3358 06f3 00       		.byte	0
 3359 06f4 1C       		.uleb128 0x1c
 3360 06f5 DE040000 		.4byte	.LVL175
 3361 06f9 FD0E0000 		.4byte	0xefd
 3362 06fd 1C       		.uleb128 0x1c
 3363 06fe 74050000 		.4byte	.LVL196
 3364 0702 0E0F0000 		.4byte	0xf0e
 3365 0706 1C       		.uleb128 0x1c
 3366 0707 78050000 		.4byte	.LVL197
 3367 070b 190F0000 		.4byte	0xf19
 3368 070f 1B       		.uleb128 0x1b
 3369 0710 BA050000 		.4byte	.LVL200
 3370 0714 240F0000 		.4byte	0xf24
 3371 0718 23070000 		.4byte	0x723
 3372 071c 19       		.uleb128 0x19
 3373 071d 01       		.uleb128 0x1
 3374 071e 51       		.byte	0x51
 3375 071f 02       		.uleb128 0x2
 3376 0720 74       		.byte	0x74
 3377 0721 10       		.sleb128 16
 3378 0722 00       		.byte	0
 3379 0723 1B       		.uleb128 0x1b
 3380 0724 D8050000 		.4byte	.LVL205
 3381 0728 240F0000 		.4byte	0xf24
 3382 072c 37070000 		.4byte	0x737
 3383 0730 19       		.uleb128 0x19
 3384 0731 01       		.uleb128 0x1
 3385 0732 51       		.byte	0x51
 3386 0733 02       		.uleb128 0x2
 3387 0734 74       		.byte	0x74
 3388 0735 10       		.sleb128 16
 3389 0736 00       		.byte	0
 3390 0737 1B       		.uleb128 0x1b
 3391 0738 F6050000 		.4byte	.LVL210
 3392 073c 240F0000 		.4byte	0xf24
 3393 0740 4B070000 		.4byte	0x74b
 3394 0744 19       		.uleb128 0x19
 3395 0745 01       		.uleb128 0x1
 3396 0746 51       		.byte	0x51
 3397 0747 02       		.uleb128 0x2
ARM GAS  C:\Users\RECEPC~1\AppData\Local\Temp\cctZPkat.s 			page 70


 3398 0748 74       		.byte	0x74
 3399 0749 10       		.sleb128 16
 3400 074a 00       		.byte	0
 3401 074b 1B       		.uleb128 0x1b
 3402 074c 14060000 		.4byte	.LVL215
 3403 0750 240F0000 		.4byte	0xf24
 3404 0754 5F070000 		.4byte	0x75f
 3405 0758 19       		.uleb128 0x19
 3406 0759 01       		.uleb128 0x1
 3407 075a 51       		.byte	0x51
 3408 075b 02       		.uleb128 0x2
 3409 075c 74       		.byte	0x74
 3410 075d 10       		.sleb128 16
 3411 075e 00       		.byte	0
 3412 075f 1B       		.uleb128 0x1b
 3413 0760 22060000 		.4byte	.LVL218
 3414 0764 3E0F0000 		.4byte	0xf3e
 3415 0768 72070000 		.4byte	0x772
 3416 076c 19       		.uleb128 0x19
 3417 076d 01       		.uleb128 0x1
 3418 076e 50       		.byte	0x50
 3419 076f 01       		.uleb128 0x1
 3420 0770 3C       		.byte	0x3c
 3421 0771 00       		.byte	0
 3422 0772 1B       		.uleb128 0x1b
 3423 0773 2C060000 		.4byte	.LVL220
 3424 0777 3E0F0000 		.4byte	0xf3e
 3425 077b 85070000 		.4byte	0x785
 3426 077f 19       		.uleb128 0x19
 3427 0780 01       		.uleb128 0x1
 3428 0781 50       		.byte	0x50
 3429 0782 01       		.uleb128 0x1
 3430 0783 3D       		.byte	0x3d
 3431 0784 00       		.byte	0
 3432 0785 1B       		.uleb128 0x1b
 3433 0786 36060000 		.4byte	.LVL221
 3434 078a 3E0F0000 		.4byte	0xf3e
 3435 078e 98070000 		.4byte	0x798
 3436 0792 19       		.uleb128 0x19
 3437 0793 01       		.uleb128 0x1
 3438 0794 50       		.byte	0x50
 3439 0795 01       		.uleb128 0x1
 3440 0796 3E       		.byte	0x3e
 3441 0797 00       		.byte	0
 3442 0798 1B       		.uleb128 0x1b
 3443 0799 40060000 		.4byte	.LVL222
 3444 079d 3E0F0000 		.4byte	0xf3e
 3445 07a1 AB070000 		.4byte	0x7ab
 3446 07a5 19       		.uleb128 0x19
 3447 07a6 01       		.uleb128 0x1
 3448 07a7 50       		.byte	0x50
 3449 07a8 01       		.uleb128 0x1
 3450 07a9 3F       		.byte	0x3f
 3451 07aa 00       		.byte	0
 3452 07ab 1C       		.uleb128 0x1c
 3453 07ac 4E060000 		.4byte	.LVL223
 3454 07b0 530F0000 		.4byte	0xf53
ARM GAS  C:\Users\RECEPC~1\AppData\Local\Temp\cctZPkat.s 			page 71


 3455 07b4 1B       		.uleb128 0x1b
 3456 07b5 6C060000 		.4byte	.LVL226
 3457 07b9 5F050000 		.4byte	0x55f
 3458 07bd CD070000 		.4byte	0x7cd
 3459 07c1 19       		.uleb128 0x19
 3460 07c2 01       		.uleb128 0x1
 3461 07c3 51       		.byte	0x51
 3462 07c4 01       		.uleb128 0x1
 3463 07c5 3A       		.byte	0x3a
 3464 07c6 19       		.uleb128 0x19
 3465 07c7 01       		.uleb128 0x1
 3466 07c8 50       		.byte	0x50
 3467 07c9 02       		.uleb128 0x2
 3468 07ca 74       		.byte	0x74
 3469 07cb 00       		.sleb128 0
 3470 07cc 00       		.byte	0
 3471 07cd 1C       		.uleb128 0x1c
 3472 07ce 7A060000 		.4byte	.LVL229
 3473 07d2 FD0E0000 		.4byte	0xefd
 3474 07d6 1C       		.uleb128 0x1c
 3475 07d7 9E060000 		.4byte	.LVL236
 3476 07db 690F0000 		.4byte	0xf69
 3477 07df 00       		.byte	0
 3478 07e0 1D       		.uleb128 0x1d
 3479 07e1 4D020000 		.4byte	.LASF103
 3480 07e5 01       		.byte	0x1
 3481 07e6 2301     		.2byte	0x123
 3482 07e8 00000000 		.4byte	.LFB65
 3483 07ec 2C040000 		.4byte	.LFE65-.LFB65
 3484 07f0 01       		.uleb128 0x1
 3485 07f1 9C       		.byte	0x9c
 3486 07f2 EE080000 		.4byte	0x8ee
 3487 07f6 1E       		.uleb128 0x1e
 3488 07f7 12000000 		.4byte	.LBB2
 3489 07fb 1A040000 		.4byte	.LBE2-.LBB2
 3490 07ff 1F       		.uleb128 0x1f
 3491 0800 7800     		.ascii	"x\000"
 3492 0802 01       		.byte	0x1
 3493 0803 2501     		.2byte	0x125
 3494 0805 81000000 		.4byte	0x81
 3495 0809 88070000 		.4byte	.LLST8
 3496 080d 1B       		.uleb128 0x1b
 3497 080e 4A000000 		.4byte	.LVL237
 3498 0812 5F050000 		.4byte	0x55f
 3499 0816 26080000 		.4byte	0x826
 3500 081a 19       		.uleb128 0x19
 3501 081b 01       		.uleb128 0x1
 3502 081c 51       		.byte	0x51
 3503 081d 01       		.uleb128 0x1
 3504 081e 39       		.byte	0x39
 3505 081f 19       		.uleb128 0x19
 3506 0820 01       		.uleb128 0x1
 3507 0821 50       		.byte	0x50
 3508 0822 02       		.uleb128 0x2
 3509 0823 74       		.byte	0x74
 3510 0824 00       		.sleb128 0
 3511 0825 00       		.byte	0
ARM GAS  C:\Users\RECEPC~1\AppData\Local\Temp\cctZPkat.s 			page 72


 3512 0826 1C       		.uleb128 0x1c
 3513 0827 58000000 		.4byte	.LVL240
 3514 082b FD0E0000 		.4byte	0xefd
 3515 082f 1B       		.uleb128 0x1b
 3516 0830 9A000000 		.4byte	.LVL244
 3517 0834 5F050000 		.4byte	0x55f
 3518 0838 48080000 		.4byte	0x848
 3519 083c 19       		.uleb128 0x19
 3520 083d 01       		.uleb128 0x1
 3521 083e 51       		.byte	0x51
 3522 083f 01       		.uleb128 0x1
 3523 0840 39       		.byte	0x39
 3524 0841 19       		.uleb128 0x19
 3525 0842 01       		.uleb128 0x1
 3526 0843 50       		.byte	0x50
 3527 0844 02       		.uleb128 0x2
 3528 0845 74       		.byte	0x74
 3529 0846 00       		.sleb128 0
 3530 0847 00       		.byte	0
 3531 0848 1C       		.uleb128 0x1c
 3532 0849 A8000000 		.4byte	.LVL247
 3533 084d FD0E0000 		.4byte	0xefd
 3534 0851 1B       		.uleb128 0x1b
 3535 0852 E8000000 		.4byte	.LVL251
 3536 0856 5F050000 		.4byte	0x55f
 3537 085a 6A080000 		.4byte	0x86a
 3538 085e 19       		.uleb128 0x19
 3539 085f 01       		.uleb128 0x1
 3540 0860 51       		.byte	0x51
 3541 0861 01       		.uleb128 0x1
 3542 0862 39       		.byte	0x39
 3543 0863 19       		.uleb128 0x19
 3544 0864 01       		.uleb128 0x1
 3545 0865 50       		.byte	0x50
 3546 0866 02       		.uleb128 0x2
 3547 0867 74       		.byte	0x74
 3548 0868 00       		.sleb128 0
 3549 0869 00       		.byte	0
 3550 086a 1C       		.uleb128 0x1c
 3551 086b F6000000 		.4byte	.LVL254
 3552 086f FD0E0000 		.4byte	0xefd
 3553 0873 1B       		.uleb128 0x1b
 3554 0874 38010000 		.4byte	.LVL258
 3555 0878 5F050000 		.4byte	0x55f
 3556 087c 8C080000 		.4byte	0x88c
 3557 0880 19       		.uleb128 0x19
 3558 0881 01       		.uleb128 0x1
 3559 0882 51       		.byte	0x51
 3560 0883 01       		.uleb128 0x1
 3561 0884 39       		.byte	0x39
 3562 0885 19       		.uleb128 0x19
 3563 0886 01       		.uleb128 0x1
 3564 0887 50       		.byte	0x50
 3565 0888 02       		.uleb128 0x2
 3566 0889 74       		.byte	0x74
 3567 088a 00       		.sleb128 0
 3568 088b 00       		.byte	0
ARM GAS  C:\Users\RECEPC~1\AppData\Local\Temp\cctZPkat.s 			page 73


 3569 088c 1C       		.uleb128 0x1c
 3570 088d 46010000 		.4byte	.LVL261
 3571 0891 FD0E0000 		.4byte	0xefd
 3572 0895 1B       		.uleb128 0x1b
 3573 0896 4E020000 		.4byte	.LVL288
 3574 089a 5F050000 		.4byte	0x55f
 3575 089e AF080000 		.4byte	0x8af
 3576 08a2 19       		.uleb128 0x19
 3577 08a3 01       		.uleb128 0x1
 3578 08a4 51       		.byte	0x51
 3579 08a5 02       		.uleb128 0x2
 3580 08a6 08       		.byte	0x8
 3581 08a7 26       		.byte	0x26
 3582 08a8 19       		.uleb128 0x19
 3583 08a9 01       		.uleb128 0x1
 3584 08aa 50       		.byte	0x50
 3585 08ab 02       		.uleb128 0x2
 3586 08ac 75       		.byte	0x75
 3587 08ad 00       		.sleb128 0
 3588 08ae 00       		.byte	0
 3589 08af 1C       		.uleb128 0x1c
 3590 08b0 5C020000 		.4byte	.LVL291
 3591 08b4 FD0E0000 		.4byte	0xefd
 3592 08b8 1B       		.uleb128 0x1b
 3593 08b9 A0030000 		.4byte	.LVL307
 3594 08bd 5F050000 		.4byte	0x55f
 3595 08c1 D1080000 		.4byte	0x8d1
 3596 08c5 19       		.uleb128 0x19
 3597 08c6 01       		.uleb128 0x1
 3598 08c7 51       		.byte	0x51
 3599 08c8 01       		.uleb128 0x1
 3600 08c9 4E       		.byte	0x4e
 3601 08ca 19       		.uleb128 0x19
 3602 08cb 01       		.uleb128 0x1
 3603 08cc 50       		.byte	0x50
 3604 08cd 02       		.uleb128 0x2
 3605 08ce 74       		.byte	0x74
 3606 08cf 00       		.sleb128 0
 3607 08d0 00       		.byte	0
 3608 08d1 1C       		.uleb128 0x1c
 3609 08d2 AE030000 		.4byte	.LVL310
 3610 08d6 FD0E0000 		.4byte	0xefd
 3611 08da 1C       		.uleb128 0x1c
 3612 08db DA030000 		.4byte	.LVL314
 3613 08df 700F0000 		.4byte	0xf70
 3614 08e3 1C       		.uleb128 0x1c
 3615 08e4 04040000 		.4byte	.LVL315
 3616 08e8 700F0000 		.4byte	0xf70
 3617 08ec 00       		.byte	0
 3618 08ed 00       		.byte	0
 3619 08ee 20       		.uleb128 0x20
 3620 08ef 31060000 		.4byte	.LASF104
 3621 08f3 06       		.byte	0x6
 3622 08f4 5506     		.2byte	0x655
 3623 08f6 FA080000 		.4byte	0x8fa
 3624 08fa 06       		.uleb128 0x6
 3625 08fb 76000000 		.4byte	0x76
ARM GAS  C:\Users\RECEPC~1\AppData\Local\Temp\cctZPkat.s 			page 74


 3626 08ff 21       		.uleb128 0x21
 3627 0900 AD040000 		.4byte	.LASF105
 3628 0904 05       		.byte	0x5
 3629 0905 2C       		.byte	0x2c
 3630 0906 10090000 		.4byte	0x910
 3631 090a 05       		.uleb128 0x5
 3632 090b 03       		.byte	0x3
 3633 090c 00000000 		.4byte	countAnimation1
 3634 0910 06       		.uleb128 0x6
 3635 0911 B3000000 		.4byte	0xb3
 3636 0915 21       		.uleb128 0x21
 3637 0916 EB040000 		.4byte	.LASF106
 3638 091a 05       		.byte	0x5
 3639 091b 2D       		.byte	0x2d
 3640 091c 10090000 		.4byte	0x910
 3641 0920 05       		.uleb128 0x5
 3642 0921 03       		.byte	0x3
 3643 0922 00000000 		.4byte	countAnimation2
 3644 0926 21       		.uleb128 0x21
 3645 0927 7C000000 		.4byte	.LASF107
 3646 092b 05       		.byte	0x5
 3647 092c 2E       		.byte	0x2e
 3648 092d 10090000 		.4byte	0x910
 3649 0931 05       		.uleb128 0x5
 3650 0932 03       		.byte	0x3
 3651 0933 00000000 		.4byte	countRX
 3652 0937 21       		.uleb128 0x21
 3653 0938 56010000 		.4byte	.LASF108
 3654 093c 05       		.byte	0x5
 3655 093d 2F       		.byte	0x2f
 3656 093e 10090000 		.4byte	0x910
 3657 0942 05       		.uleb128 0x5
 3658 0943 03       		.byte	0x3
 3659 0944 00000000 		.4byte	countTX
 3660 0948 21       		.uleb128 0x21
 3661 0949 4F090000 		.4byte	.LASF109
 3662 094d 05       		.byte	0x5
 3663 094e 30       		.byte	0x30
 3664 094f 10090000 		.4byte	0x910
 3665 0953 05       		.uleb128 0x5
 3666 0954 03       		.byte	0x3
 3667 0955 00000000 		.4byte	countPump
 3668 0959 21       		.uleb128 0x21
 3669 095a D6020000 		.4byte	.LASF110
 3670 095e 05       		.byte	0x5
 3671 095f 31       		.byte	0x31
 3672 0960 10090000 		.4byte	0x910
 3673 0964 05       		.uleb128 0x5
 3674 0965 03       		.byte	0x3
 3675 0966 00000000 		.4byte	countLCD
 3676 096a 21       		.uleb128 0x21
 3677 096b 14030000 		.4byte	.LASF111
 3678 096f 05       		.byte	0x5
 3679 0970 32       		.byte	0x32
 3680 0971 E3000000 		.4byte	0xe3
 3681 0975 05       		.uleb128 0x5
 3682 0976 03       		.byte	0x3
ARM GAS  C:\Users\RECEPC~1\AppData\Local\Temp\cctZPkat.s 			page 75


 3683 0977 00000000 		.4byte	flowDisplay1
 3684 097b 21       		.uleb128 0x21
 3685 097c 21030000 		.4byte	.LASF112
 3686 0980 05       		.byte	0x5
 3687 0981 33       		.byte	0x33
 3688 0982 E3000000 		.4byte	0xe3
 3689 0986 05       		.uleb128 0x5
 3690 0987 03       		.byte	0x3
 3691 0988 00000000 		.4byte	flowDisplay2
 3692 098c 21       		.uleb128 0x21
 3693 098d 2E030000 		.4byte	.LASF113
 3694 0991 05       		.byte	0x5
 3695 0992 34       		.byte	0x34
 3696 0993 E3000000 		.4byte	0xe3
 3697 0997 05       		.uleb128 0x5
 3698 0998 03       		.byte	0x3
 3699 0999 00000000 		.4byte	flowDisplay3
 3700 099d 21       		.uleb128 0x21
 3701 099e 3B030000 		.4byte	.LASF114
 3702 09a2 05       		.byte	0x5
 3703 09a3 35       		.byte	0x35
 3704 09a4 E3000000 		.4byte	0xe3
 3705 09a8 05       		.uleb128 0x5
 3706 09a9 03       		.byte	0x3
 3707 09aa 00000000 		.4byte	flowDisplay4
 3708 09ae 21       		.uleb128 0x21
 3709 09af BE030000 		.4byte	.LASF115
 3710 09b3 05       		.byte	0x5
 3711 09b4 36       		.byte	0x36
 3712 09b5 DE000000 		.4byte	0xde
 3713 09b9 05       		.uleb128 0x5
 3714 09ba 03       		.byte	0x3
 3715 09bb 00000000 		.4byte	numberKeys1
 3716 09bf 21       		.uleb128 0x21
 3717 09c0 CA030000 		.4byte	.LASF116
 3718 09c4 05       		.byte	0x5
 3719 09c5 37       		.byte	0x37
 3720 09c6 DE000000 		.4byte	0xde
 3721 09ca 05       		.uleb128 0x5
 3722 09cb 03       		.byte	0x3
 3723 09cc 00000000 		.4byte	numberKeys2
 3724 09d0 21       		.uleb128 0x21
 3725 09d1 B7050000 		.4byte	.LASF117
 3726 09d5 05       		.byte	0x5
 3727 09d6 38       		.byte	0x38
 3728 09d7 DE000000 		.4byte	0xde
 3729 09db 05       		.uleb128 0x5
 3730 09dc 03       		.byte	0x3
 3731 09dd 00000000 		.4byte	flagPoint1
 3732 09e1 21       		.uleb128 0x21
 3733 09e2 4B010000 		.4byte	.LASF118
 3734 09e6 05       		.byte	0x5
 3735 09e7 39       		.byte	0x39
 3736 09e8 DE000000 		.4byte	0xde
 3737 09ec 05       		.uleb128 0x5
 3738 09ed 03       		.byte	0x3
 3739 09ee 00000000 		.4byte	flagPoint2
ARM GAS  C:\Users\RECEPC~1\AppData\Local\Temp\cctZPkat.s 			page 76


 3740 09f2 21       		.uleb128 0x21
 3741 09f3 AD020000 		.4byte	.LASF119
 3742 09f7 05       		.byte	0x5
 3743 09f8 3A       		.byte	0x3a
 3744 09f9 DE000000 		.4byte	0xde
 3745 09fd 05       		.uleb128 0x5
 3746 09fe 03       		.byte	0x3
 3747 09ff 00000000 		.4byte	productNumber
 3748 0a03 21       		.uleb128 0x21
 3749 0a04 F4060000 		.4byte	.LASF120
 3750 0a08 05       		.byte	0x5
 3751 0a09 3B       		.byte	0x3b
 3752 0a0a E3000000 		.4byte	0xe3
 3753 0a0e 05       		.uleb128 0x5
 3754 0a0f 03       		.byte	0x3
 3755 0a10 00000000 		.4byte	delayPicture1
 3756 0a14 21       		.uleb128 0x21
 3757 0a15 02070000 		.4byte	.LASF121
 3758 0a19 05       		.byte	0x5
 3759 0a1a 3C       		.byte	0x3c
 3760 0a1b E3000000 		.4byte	0xe3
 3761 0a1f 05       		.uleb128 0x5
 3762 0a20 03       		.byte	0x3
 3763 0a21 00000000 		.4byte	delayPicture2
 3764 0a25 21       		.uleb128 0x21
 3765 0a26 9D050000 		.4byte	.LASF122
 3766 0a2a 05       		.byte	0x5
 3767 0a2b 3D       		.byte	0x3d
 3768 0a2c DE000000 		.4byte	0xde
 3769 0a30 05       		.uleb128 0x5
 3770 0a31 03       		.byte	0x3
 3771 0a32 00000000 		.4byte	ppux10
 3772 0a36 21       		.uleb128 0x21
 3773 0a37 B9000000 		.4byte	.LASF123
 3774 0a3b 05       		.byte	0x5
 3775 0a3c 3E       		.byte	0x3e
 3776 0a3d DE000000 		.4byte	0xde
 3777 0a41 05       		.uleb128 0x5
 3778 0a42 03       		.byte	0x3
 3779 0a43 00000000 		.4byte	decimalMoney
 3780 0a47 21       		.uleb128 0x21
 3781 0a48 55000000 		.4byte	.LASF124
 3782 0a4c 05       		.byte	0x5
 3783 0a4d 3F       		.byte	0x3f
 3784 0a4e DE000000 		.4byte	0xde
 3785 0a52 05       		.uleb128 0x5
 3786 0a53 03       		.byte	0x3
 3787 0a54 00000000 		.4byte	decimalVolume
 3788 0a58 21       		.uleb128 0x21
 3789 0a59 D4050000 		.4byte	.LASF125
 3790 0a5d 05       		.byte	0x5
 3791 0a5e 40       		.byte	0x40
 3792 0a5f 690A0000 		.4byte	0xa69
 3793 0a63 05       		.uleb128 0x5
 3794 0a64 03       		.byte	0x3
 3795 0a65 00000000 		.4byte	symbols
 3796 0a69 06       		.uleb128 0x6
ARM GAS  C:\Users\RECEPC~1\AppData\Local\Temp\cctZPkat.s 			page 77


 3797 0a6a 45030000 		.4byte	0x345
 3798 0a6e 08       		.uleb128 0x8
 3799 0a6f 81000000 		.4byte	0x81
 3800 0a73 7E0A0000 		.4byte	0xa7e
 3801 0a77 09       		.uleb128 0x9
 3802 0a78 E8000000 		.4byte	0xe8
 3803 0a7c 02       		.byte	0x2
 3804 0a7d 00       		.byte	0
 3805 0a7e 21       		.uleb128 0x21
 3806 0a7f 68020000 		.4byte	.LASF126
 3807 0a83 05       		.byte	0x5
 3808 0a84 41       		.byte	0x41
 3809 0a85 8F0A0000 		.4byte	0xa8f
 3810 0a89 05       		.uleb128 0x5
 3811 0a8a 03       		.byte	0x3
 3812 0a8b 00000000 		.4byte	time
 3813 0a8f 06       		.uleb128 0x6
 3814 0a90 6E0A0000 		.4byte	0xa6e
 3815 0a94 21       		.uleb128 0x21
 3816 0a95 E3030000 		.4byte	.LASF127
 3817 0a99 05       		.byte	0x5
 3818 0a9a 42       		.byte	0x42
 3819 0a9b A50A0000 		.4byte	0xaa5
 3820 0a9f 05       		.uleb128 0x5
 3821 0aa0 03       		.byte	0x3
 3822 0aa1 00000000 		.4byte	date
 3823 0aa5 06       		.uleb128 0x6
 3824 0aa6 6E0A0000 		.4byte	0xa6e
 3825 0aaa 21       		.uleb128 0x21
 3826 0aab 68010000 		.4byte	.LASF128
 3827 0aaf 05       		.byte	0x5
 3828 0ab0 43       		.byte	0x43
 3829 0ab1 BB0A0000 		.4byte	0xabb
 3830 0ab5 05       		.uleb128 0x5
 3831 0ab6 03       		.byte	0x3
 3832 0ab7 00000000 		.4byte	screen
 3833 0abb 06       		.uleb128 0x6
 3834 0abc 45030000 		.4byte	0x345
 3835 0ac0 21       		.uleb128 0x21
 3836 0ac1 0E010000 		.4byte	.LASF129
 3837 0ac5 05       		.byte	0x5
 3838 0ac6 44       		.byte	0x44
 3839 0ac7 D10A0000 		.4byte	0xad1
 3840 0acb 05       		.uleb128 0x5
 3841 0acc 03       		.byte	0x3
 3842 0acd 00000000 		.4byte	residue
 3843 0ad1 06       		.uleb128 0x6
 3844 0ad2 8B030000 		.4byte	0x38b
 3845 0ad6 21       		.uleb128 0x21
 3846 0ad7 BB020000 		.4byte	.LASF130
 3847 0adb 05       		.byte	0x5
 3848 0adc 45       		.byte	0x45
 3849 0add E70A0000 		.4byte	0xae7
 3850 0ae1 05       		.uleb128 0x5
 3851 0ae2 03       		.byte	0x3
 3852 0ae3 00000000 		.4byte	idSeller
 3853 0ae7 06       		.uleb128 0x6
ARM GAS  C:\Users\RECEPC~1\AppData\Local\Temp\cctZPkat.s 			page 78


 3854 0ae8 15030000 		.4byte	0x315
 3855 0aec 21       		.uleb128 0x21
 3856 0aed 51060000 		.4byte	.LASF131
 3857 0af1 05       		.byte	0x5
 3858 0af2 46       		.byte	0x46
 3859 0af3 DE000000 		.4byte	0xde
 3860 0af7 05       		.uleb128 0x5
 3861 0af8 03       		.byte	0x3
 3862 0af9 00000000 		.4byte	typeIdSeller
 3863 0afd 08       		.uleb128 0x8
 3864 0afe 81000000 		.4byte	0x81
 3865 0b02 0D0B0000 		.4byte	0xb0d
 3866 0b06 09       		.uleb128 0x9
 3867 0b07 E8000000 		.4byte	0xe8
 3868 0b0b 07       		.byte	0x7
 3869 0b0c 00       		.byte	0
 3870 0b0d 21       		.uleb128 0x21
 3871 0b0e C4060000 		.4byte	.LASF132
 3872 0b12 05       		.byte	0x5
 3873 0b13 47       		.byte	0x47
 3874 0b14 1E0B0000 		.4byte	0xb1e
 3875 0b18 05       		.uleb128 0x5
 3876 0b19 03       		.byte	0x3
 3877 0b1a 00000000 		.4byte	passwordSeller
 3878 0b1e 06       		.uleb128 0x6
 3879 0b1f FD0A0000 		.4byte	0xafd
 3880 0b23 21       		.uleb128 0x21
 3881 0b24 4C050000 		.4byte	.LASF133
 3882 0b28 05       		.byte	0x5
 3883 0b29 48       		.byte	0x48
 3884 0b2a DE000000 		.4byte	0xde
 3885 0b2e 05       		.uleb128 0x5
 3886 0b2f 03       		.byte	0x3
 3887 0b30 00000000 		.4byte	flagResetMux
 3888 0b34 21       		.uleb128 0x21
 3889 0b35 CA040000 		.4byte	.LASF134
 3890 0b39 05       		.byte	0x5
 3891 0b3a 49       		.byte	0x49
 3892 0b3b DE000000 		.4byte	0xde
 3893 0b3f 05       		.uleb128 0x5
 3894 0b40 03       		.byte	0x3
 3895 0b41 00000000 		.4byte	stateBeagleSoft
 3896 0b45 21       		.uleb128 0x21
 3897 0b46 63000000 		.4byte	.LASF135
 3898 0b4a 05       		.byte	0x5
 3899 0b4b 4A       		.byte	0x4a
 3900 0b4c 560B0000 		.4byte	0xb56
 3901 0b50 05       		.uleb128 0x5
 3902 0b51 03       		.byte	0x3
 3903 0b52 00000000 		.4byte	PrevStatePump
 3904 0b56 06       		.uleb128 0x6
 3905 0b57 F1000000 		.4byte	0xf1
 3906 0b5b 21       		.uleb128 0x21
 3907 0b5c 85010000 		.4byte	.LASF136
 3908 0b60 05       		.byte	0x5
 3909 0b61 4B       		.byte	0x4b
 3910 0b62 DE000000 		.4byte	0xde
ARM GAS  C:\Users\RECEPC~1\AppData\Local\Temp\cctZPkat.s 			page 79


 3911 0b66 05       		.uleb128 0x5
 3912 0b67 03       		.byte	0x3
 3913 0b68 00000000 		.4byte	PlateRequest
 3914 0b6c 21       		.uleb128 0x21
 3915 0b6d 2A060000 		.4byte	.LASF137
 3916 0b71 05       		.byte	0x5
 3917 0b72 4C       		.byte	0x4c
 3918 0b73 7D0B0000 		.4byte	0xb7d
 3919 0b77 05       		.uleb128 0x5
 3920 0b78 03       		.byte	0x3
 3921 0b79 00000000 		.4byte	IDCast
 3922 0b7d 06       		.uleb128 0x6
 3923 0b7e 45030000 		.4byte	0x345
 3924 0b82 21       		.uleb128 0x21
 3925 0b83 4F040000 		.4byte	.LASF138
 3926 0b87 05       		.byte	0x5
 3927 0b88 4D       		.byte	0x4d
 3928 0b89 DE000000 		.4byte	0xde
 3929 0b8d 05       		.uleb128 0x5
 3930 0b8e 03       		.byte	0x3
 3931 0b8f 00000000 		.4byte	ActiveRF
 3932 0b93 21       		.uleb128 0x21
 3933 0b94 7B010000 		.4byte	.LASF139
 3934 0b98 05       		.byte	0x5
 3935 0b99 4E       		.byte	0x4e
 3936 0b9a DE000000 		.4byte	0xde
 3937 0b9e 05       		.uleb128 0x5
 3938 0b9f 03       		.byte	0x3
 3939 0ba0 00000000 		.4byte	counterRF
 3940 0ba4 08       		.uleb128 0x8
 3941 0ba5 81000000 		.4byte	0x81
 3942 0ba9 B40B0000 		.4byte	0xbb4
 3943 0bad 09       		.uleb128 0x9
 3944 0bae E8000000 		.4byte	0xe8
 3945 0bb2 1D       		.byte	0x1d
 3946 0bb3 00       		.byte	0
 3947 0bb4 21       		.uleb128 0x21
 3948 0bb5 D6080000 		.4byte	.LASF140
 3949 0bb9 05       		.byte	0x5
 3950 0bba 4F       		.byte	0x4f
 3951 0bbb C50B0000 		.4byte	0xbc5
 3952 0bbf 05       		.uleb128 0x5
 3953 0bc0 03       		.byte	0x3
 3954 0bc1 00000000 		.4byte	temporal
 3955 0bc5 06       		.uleb128 0x6
 3956 0bc6 A40B0000 		.4byte	0xba4
 3957 0bca 21       		.uleb128 0x21
 3958 0bcb 16010000 		.4byte	.LASF141
 3959 0bcf 05       		.byte	0x5
 3960 0bd0 50       		.byte	0x50
 3961 0bd1 DB0B0000 		.4byte	0xbdb
 3962 0bd5 05       		.uleb128 0x5
 3963 0bd6 03       		.byte	0x3
 3964 0bd7 00000000 		.4byte	tempPreset
 3965 0bdb 06       		.uleb128 0x6
 3966 0bdc FD0A0000 		.4byte	0xafd
 3967 0be0 21       		.uleb128 0x21
ARM GAS  C:\Users\RECEPC~1\AppData\Local\Temp\cctZPkat.s 			page 80


 3968 0be1 B5010000 		.4byte	.LASF142
 3969 0be5 05       		.byte	0x5
 3970 0be6 51       		.byte	0x51
 3971 0be7 DE000000 		.4byte	0xde
 3972 0beb 05       		.uleb128 0x5
 3973 0bec 03       		.byte	0x3
 3974 0bed 00000000 		.4byte	CGrade
 3975 0bf1 21       		.uleb128 0x21
 3976 0bf2 E4060000 		.4byte	.LASF143
 3977 0bf6 05       		.byte	0x5
 3978 0bf7 53       		.byte	0x53
 3979 0bf8 81000000 		.4byte	0x81
 3980 0bfc 05       		.uleb128 0x5
 3981 0bfd 03       		.byte	0x3
 3982 0bfe 00000000 		.4byte	UnitType
 3983 0c02 21       		.uleb128 0x21
 3984 0c03 A0030000 		.4byte	.LASF144
 3985 0c07 05       		.byte	0x5
 3986 0c08 53       		.byte	0x53
 3987 0c09 81000000 		.4byte	0x81
 3988 0c0d 05       		.uleb128 0x5
 3989 0c0e 03       		.byte	0x3
 3990 0c0f 00000000 		.4byte	ConversionFactor
 3991 0c13 21       		.uleb128 0x21
 3992 0c14 CE010000 		.4byte	.LASF145
 3993 0c18 05       		.byte	0x5
 3994 0c19 53       		.byte	0x53
 3995 0c1a 81000000 		.4byte	0x81
 3996 0c1e 05       		.uleb128 0x5
 3997 0c1f 03       		.byte	0x3
 3998 0c20 00000000 		.4byte	MoneyDec
 3999 0c24 21       		.uleb128 0x21
 4000 0c25 DF080000 		.4byte	.LASF146
 4001 0c29 05       		.byte	0x5
 4002 0c2a 53       		.byte	0x53
 4003 0c2b 81000000 		.4byte	0x81
 4004 0c2f 05       		.uleb128 0x5
 4005 0c30 03       		.byte	0x3
 4006 0c31 00000000 		.4byte	VolDec
 4007 0c35 21       		.uleb128 0x21
 4008 0c36 72070000 		.4byte	.LASF147
 4009 0c3a 05       		.byte	0x5
 4010 0c3b 53       		.byte	0x53
 4011 0c3c 81000000 		.4byte	0x81
 4012 0c40 05       		.uleb128 0x5
 4013 0c41 03       		.byte	0x3
 4014 0c42 00000000 		.4byte	PPUDec
 4015 0c46 21       		.uleb128 0x21
 4016 0c47 28010000 		.4byte	.LASF148
 4017 0c4b 05       		.byte	0x5
 4018 0c4c 53       		.byte	0x53
 4019 0c4d 81000000 		.4byte	0x81
 4020 0c51 05       		.uleb128 0x5
 4021 0c52 03       		.byte	0x3
 4022 0c53 00000000 		.4byte	DDMode
 4023 0c57 21       		.uleb128 0x21
 4024 0c58 9E000000 		.4byte	.LASF149
ARM GAS  C:\Users\RECEPC~1\AppData\Local\Temp\cctZPkat.s 			page 81


 4025 0c5c 05       		.byte	0x5
 4026 0c5d 54       		.byte	0x54
 4027 0c5e F1000000 		.4byte	0xf1
 4028 0c62 05       		.uleb128 0x5
 4029 0c63 03       		.byte	0x3
 4030 0c64 00000000 		.4byte	statePump
 4031 0c68 21       		.uleb128 0x21
 4032 0c69 BD040000 		.4byte	.LASF150
 4033 0c6d 05       		.byte	0x5
 4034 0c6e 55       		.byte	0x55
 4035 0c6f 81000000 		.4byte	0x81
 4036 0c73 05       		.uleb128 0x5
 4037 0c74 03       		.byte	0x3
 4038 0c75 00000000 		.4byte	NumPositions
 4039 0c79 21       		.uleb128 0x21
 4040 0c7a CD020000 		.4byte	.LASF151
 4041 0c7e 05       		.byte	0x5
 4042 0c7f 56       		.byte	0x56
 4043 0c80 81000000 		.4byte	0x81
 4044 0c84 05       		.uleb128 0x5
 4045 0c85 03       		.byte	0x3
 4046 0c86 00000000 		.4byte	lockTurn
 4047 0c8a 21       		.uleb128 0x21
 4048 0c8b 46020000 		.4byte	.LASF152
 4049 0c8f 05       		.byte	0x5
 4050 0c90 57       		.byte	0x57
 4051 0c91 81000000 		.4byte	0x81
 4052 0c95 05       		.uleb128 0x5
 4053 0c96 03       		.byte	0x3
 4054 0c97 00000000 		.4byte	digits
 4055 0c9b 21       		.uleb128 0x21
 4056 0c9c 3E060000 		.4byte	.LASF153
 4057 0ca0 05       		.byte	0x5
 4058 0ca1 58       		.byte	0x58
 4059 0ca2 81000000 		.4byte	0x81
 4060 0ca6 05       		.uleb128 0x5
 4061 0ca7 03       		.byte	0x3
 4062 0ca8 00000000 		.4byte	hiddenKeys
 4063 0cac 21       		.uleb128 0x21
 4064 0cad DF000000 		.4byte	.LASF154
 4065 0cb1 05       		.byte	0x5
 4066 0cb2 59       		.byte	0x59
 4067 0cb3 81000000 		.4byte	0x81
 4068 0cb7 05       		.uleb128 0x5
 4069 0cb8 03       		.byte	0x3
 4070 0cb9 00000000 		.4byte	PrinterType
 4071 0cbd 08       		.uleb128 0x8
 4072 0cbe BF000000 		.4byte	0xbf
 4073 0cc2 CD0C0000 		.4byte	0xccd
 4074 0cc6 09       		.uleb128 0x9
 4075 0cc7 E8000000 		.4byte	0xe8
 4076 0ccb 05       		.byte	0x5
 4077 0ccc 00       		.byte	0
 4078 0ccd 21       		.uleb128 0x21
 4079 0cce 22060000 		.4byte	.LASF155
 4080 0cd2 05       		.byte	0x5
 4081 0cd3 5A       		.byte	0x5a
ARM GAS  C:\Users\RECEPC~1\AppData\Local\Temp\cctZPkat.s 			page 82


 4082 0cd4 BD0C0000 		.4byte	0xcbd
 4083 0cd8 05       		.uleb128 0x5
 4084 0cd9 03       		.byte	0x3
 4085 0cda 00000000 		.4byte	VolUnit
 4086 0cde 21       		.uleb128 0x21
 4087 0cdf E7050000 		.4byte	.LASF156
 4088 0ce3 05       		.byte	0x5
 4089 0ce4 5B       		.byte	0x5b
 4090 0ce5 6E0A0000 		.4byte	0xa6e
 4091 0ce9 05       		.uleb128 0x5
 4092 0cea 03       		.byte	0x3
 4093 0ceb 00000000 		.4byte	dateDownHandle
 4094 0cef 21       		.uleb128 0x21
 4095 0cf0 FB040000 		.4byte	.LASF157
 4096 0cf4 05       		.byte	0x5
 4097 0cf5 5C       		.byte	0x5c
 4098 0cf6 45030000 		.4byte	0x345
 4099 0cfa 05       		.uleb128 0x5
 4100 0cfb 03       		.byte	0x3
 4101 0cfc 00000000 		.4byte	timeDownHandle
 4102 0d00 21       		.uleb128 0x21
 4103 0d01 2C090000 		.4byte	.LASF158
 4104 0d05 05       		.byte	0x5
 4105 0d06 5D       		.byte	0x5d
 4106 0d07 81000000 		.4byte	0x81
 4107 0d0b 05       		.uleb128 0x5
 4108 0d0c 03       		.byte	0x3
 4109 0d0d 00000000 		.4byte	count_protector
 4110 0d11 21       		.uleb128 0x21
 4111 0d12 44000000 		.4byte	.LASF159
 4112 0d16 05       		.byte	0x5
 4113 0d17 5D       		.byte	0x5d
 4114 0d18 81000000 		.4byte	0x81
 4115 0d1c 05       		.uleb128 0x5
 4116 0d1d 03       		.byte	0x3
 4117 0d1e 00000000 		.4byte	count_protector2
 4118 0d22 21       		.uleb128 0x21
 4119 0d23 39020000 		.4byte	.LASF160
 4120 0d27 05       		.byte	0x5
 4121 0d28 5E       		.byte	0x5e
 4122 0d29 6B030000 		.4byte	0x36b
 4123 0d2d 05       		.uleb128 0x5
 4124 0d2e 03       		.byte	0x3
 4125 0d2f 00000000 		.4byte	configAccess
 4126 0d33 21       		.uleb128 0x21
 4127 0d34 6F010000 		.4byte	.LASF161
 4128 0d38 05       		.byte	0x5
 4129 0d39 5F       		.byte	0x5f
 4130 0d3a 81000000 		.4byte	0x81
 4131 0d3e 05       		.uleb128 0x5
 4132 0d3f 03       		.byte	0x3
 4133 0d40 00000000 		.4byte	controlChar
 4134 0d44 08       		.uleb128 0x8
 4135 0d45 BF000000 		.4byte	0xbf
 4136 0d49 540D0000 		.4byte	0xd54
 4137 0d4d 09       		.uleb128 0x9
 4138 0d4e E8000000 		.4byte	0xe8
ARM GAS  C:\Users\RECEPC~1\AppData\Local\Temp\cctZPkat.s 			page 83


 4139 0d52 04       		.byte	0x4
 4140 0d53 00       		.byte	0
 4141 0d54 21       		.uleb128 0x21
 4142 0d55 34010000 		.4byte	.LASF162
 4143 0d59 05       		.byte	0x5
 4144 0d5a 60       		.byte	0x60
 4145 0d5b 440D0000 		.4byte	0xd44
 4146 0d5f 05       		.uleb128 0x5
 4147 0d60 03       		.byte	0x3
 4148 0d61 00000000 		.4byte	idStation
 4149 0d65 21       		.uleb128 0x21
 4150 0d66 CA090000 		.4byte	.LASF163
 4151 0d6a 05       		.byte	0x5
 4152 0d6b 61       		.byte	0x61
 4153 0d6c 6E0A0000 		.4byte	0xa6e
 4154 0d70 05       		.uleb128 0x5
 4155 0d71 03       		.byte	0x3
 4156 0d72 00000000 		.4byte	pumpGap
 4157 0d76 21       		.uleb128 0x21
 4158 0d77 8B020000 		.4byte	.LASF164
 4159 0d7b 05       		.byte	0x5
 4160 0d7c 62       		.byte	0x62
 4161 0d7d 81000000 		.4byte	0x81
 4162 0d81 05       		.uleb128 0x5
 4163 0d82 03       		.byte	0x3
 4164 0d83 00000000 		.4byte	printPortA
 4165 0d87 21       		.uleb128 0x21
 4166 0d88 96020000 		.4byte	.LASF165
 4167 0d8c 05       		.byte	0x5
 4168 0d8d 63       		.byte	0x63
 4169 0d8e 81000000 		.4byte	0x81
 4170 0d92 05       		.uleb128 0x5
 4171 0d93 03       		.byte	0x3
 4172 0d94 00000000 		.4byte	printPortB
 4173 0d98 08       		.uleb128 0x8
 4174 0d99 81000000 		.4byte	0x81
 4175 0d9d A90D0000 		.4byte	0xda9
 4176 0da1 22       		.uleb128 0x22
 4177 0da2 E8000000 		.4byte	0xe8
 4178 0da6 FF01     		.2byte	0x1ff
 4179 0da8 00       		.byte	0
 4180 0da9 21       		.uleb128 0x21
 4181 0daa AF000000 		.4byte	.LASF166
 4182 0dae 05       		.byte	0x5
 4183 0daf 64       		.byte	0x64
 4184 0db0 980D0000 		.4byte	0xd98
 4185 0db4 05       		.uleb128 0x5
 4186 0db5 03       		.byte	0x3
 4187 0db6 00000000 		.4byte	buffer_rf
 4188 0dba 21       		.uleb128 0x21
 4189 0dbb 92010000 		.4byte	.LASF167
 4190 0dbf 05       		.byte	0x5
 4191 0dc0 65       		.byte	0x65
 4192 0dc1 980D0000 		.4byte	0xd98
 4193 0dc5 05       		.uleb128 0x5
 4194 0dc6 03       		.byte	0x3
 4195 0dc7 00000000 		.4byte	buffer_tx
ARM GAS  C:\Users\RECEPC~1\AppData\Local\Temp\cctZPkat.s 			page 84


 4196 0dcb 21       		.uleb128 0x21
 4197 0dcc 59050000 		.4byte	.LASF168
 4198 0dd0 05       		.byte	0x5
 4199 0dd1 66       		.byte	0x66
 4200 0dd2 980D0000 		.4byte	0xd98
 4201 0dd6 05       		.uleb128 0x5
 4202 0dd7 03       		.byte	0x3
 4203 0dd8 00000000 		.4byte	buffer_txDisplay
 4204 0ddc 21       		.uleb128 0x21
 4205 0ddd 05090000 		.4byte	.LASF169
 4206 0de1 05       		.byte	0x5
 4207 0de2 67       		.byte	0x67
 4208 0de3 8D000000 		.4byte	0x8d
 4209 0de7 05       		.uleb128 0x5
 4210 0de8 03       		.byte	0x3
 4211 0de9 00000000 		.4byte	intIDStation
 4212 0ded 21       		.uleb128 0x21
 4213 0dee 19070000 		.4byte	.LASF170
 4214 0df2 05       		.byte	0x5
 4215 0df3 68       		.byte	0x68
 4216 0df4 A40B0000 		.4byte	0xba4
 4217 0df8 05       		.uleb128 0x5
 4218 0df9 03       		.byte	0x3
 4219 0dfa 00000000 		.4byte	Encabezado1
 4220 0dfe 21       		.uleb128 0x21
 4221 0dff 25070000 		.4byte	.LASF171
 4222 0e03 05       		.byte	0x5
 4223 0e04 69       		.byte	0x69
 4224 0e05 A40B0000 		.4byte	0xba4
 4225 0e09 05       		.uleb128 0x5
 4226 0e0a 03       		.byte	0x3
 4227 0e0b 00000000 		.4byte	Encabezado2
 4228 0e0f 21       		.uleb128 0x21
 4229 0e10 31070000 		.4byte	.LASF172
 4230 0e14 05       		.byte	0x5
 4231 0e15 6A       		.byte	0x6a
 4232 0e16 A40B0000 		.4byte	0xba4
 4233 0e1a 05       		.uleb128 0x5
 4234 0e1b 03       		.byte	0x3
 4235 0e1c 00000000 		.4byte	Encabezado3
 4236 0e20 21       		.uleb128 0x21
 4237 0e21 3D070000 		.4byte	.LASF173
 4238 0e25 05       		.byte	0x5
 4239 0e26 6B       		.byte	0x6b
 4240 0e27 A40B0000 		.4byte	0xba4
 4241 0e2b 05       		.uleb128 0x5
 4242 0e2c 03       		.byte	0x3
 4243 0e2d 00000000 		.4byte	Encabezado4
 4244 0e31 21       		.uleb128 0x21
 4245 0e32 B6060000 		.4byte	.LASF174
 4246 0e36 05       		.byte	0x5
 4247 0e37 6C       		.byte	0x6c
 4248 0e38 81000000 		.4byte	0x81
 4249 0e3c 05       		.uleb128 0x5
 4250 0e3d 03       		.byte	0x3
 4251 0e3e 00000000 		.4byte	CopiasCredito
 4252 0e42 21       		.uleb128 0x21
ARM GAS  C:\Users\RECEPC~1\AppData\Local\Temp\cctZPkat.s 			page 85


 4253 0e43 71000000 		.4byte	.LASF175
 4254 0e47 05       		.byte	0x5
 4255 0e48 6D       		.byte	0x6d
 4256 0e49 6B030000 		.4byte	0x36b
 4257 0e4d 05       		.uleb128 0x5
 4258 0e4e 03       		.byte	0x3
 4259 0e4f 00000000 		.4byte	GradesHose
 4260 0e53 21       		.uleb128 0x21
 4261 0e54 84000000 		.4byte	.LASF176
 4262 0e58 05       		.byte	0x5
 4263 0e59 6E       		.byte	0x6e
 4264 0e5a 81000000 		.4byte	0x81
 4265 0e5e 05       		.uleb128 0x5
 4266 0e5f 03       		.byte	0x3
 4267 0e60 00000000 		.4byte	RFstateReport
 4268 0e64 21       		.uleb128 0x21
 4269 0e65 BB090000 		.4byte	.LASF177
 4270 0e69 05       		.byte	0x5
 4271 0e6a A7       		.byte	0xa7
 4272 0e6b 01010000 		.4byte	0x101
 4273 0e6f 05       		.uleb128 0x5
 4274 0e70 03       		.byte	0x3
 4275 0e71 00000000 		.4byte	bufferDisplay1
 4276 0e75 21       		.uleb128 0x21
 4277 0e76 84060000 		.4byte	.LASF178
 4278 0e7a 05       		.byte	0x5
 4279 0e7b A8       		.byte	0xa8
 4280 0e7c 01010000 		.4byte	0x101
 4281 0e80 05       		.uleb128 0x5
 4282 0e81 03       		.byte	0x3
 4283 0e82 00000000 		.4byte	bufferDisplay2
 4284 0e86 21       		.uleb128 0x21
 4285 0e87 E5010000 		.4byte	.LASF179
 4286 0e8b 05       		.byte	0x5
 4287 0e8c A9       		.byte	0xa9
 4288 0e8d 01010000 		.4byte	0x101
 4289 0e91 05       		.uleb128 0x5
 4290 0e92 03       		.byte	0x3
 4291 0e93 00000000 		.4byte	bufferDisplay3
 4292 0e97 21       		.uleb128 0x21
 4293 0e98 A7060000 		.4byte	.LASF180
 4294 0e9c 05       		.byte	0x5
 4295 0e9d AA       		.byte	0xaa
 4296 0e9e 01010000 		.4byte	0x101
 4297 0ea2 05       		.uleb128 0x5
 4298 0ea3 03       		.byte	0x3
 4299 0ea4 00000000 		.4byte	bufferDisplay4
 4300 0ea8 21       		.uleb128 0x21
 4301 0ea9 2F010000 		.4byte	.LASF181
 4302 0ead 05       		.byte	0x5
 4303 0eae CC       		.byte	0xcc
 4304 0eaf 9D040000 		.4byte	0x49d
 4305 0eb3 05       		.uleb128 0x5
 4306 0eb4 03       		.byte	0x3
 4307 0eb5 00000000 		.4byte	side
 4308 0eb9 23       		.uleb128 0x23
 4309 0eba 59090000 		.4byte	.LASF182
ARM GAS  C:\Users\RECEPC~1\AppData\Local\Temp\cctZPkat.s 			page 86


 4310 0ebe EF000000 		.4byte	0xef
 4311 0ec2 D60E0000 		.4byte	0xed6
 4312 0ec6 24       		.uleb128 0x24
 4313 0ec7 EF000000 		.4byte	0xef
 4314 0ecb 24       		.uleb128 0x24
 4315 0ecc 58050000 		.4byte	0x558
 4316 0ed0 24       		.uleb128 0x24
 4317 0ed1 E8000000 		.4byte	0xe8
 4318 0ed5 00       		.byte	0
 4319 0ed6 25       		.uleb128 0x25
 4320 0ed7 19000000 		.4byte	.LASF183
 4321 0edb 08       		.byte	0x8
 4322 0edc 77       		.byte	0x77
 4323 0edd E70E0000 		.4byte	0xee7
 4324 0ee1 24       		.uleb128 0x24
 4325 0ee2 99000000 		.4byte	0x99
 4326 0ee6 00       		.byte	0
 4327 0ee7 26       		.uleb128 0x26
 4328 0ee8 6D020000 		.4byte	.LASF184
 4329 0eec 07       		.byte	0x7
 4330 0eed 73       		.byte	0x73
 4331 0eee 8D000000 		.4byte	0x8d
 4332 0ef2 26       		.uleb128 0x26
 4333 0ef3 00000000 		.4byte	.LASF185
 4334 0ef7 07       		.byte	0x7
 4335 0ef8 6F       		.byte	0x6f
 4336 0ef9 81000000 		.4byte	0x81
 4337 0efd 25       		.uleb128 0x25
 4338 0efe 21000000 		.4byte	.LASF186
 4339 0f02 07       		.byte	0x7
 4340 0f03 8A       		.byte	0x8a
 4341 0f04 0E0F0000 		.4byte	0xf0e
 4342 0f08 24       		.uleb128 0x24
 4343 0f09 81000000 		.4byte	0x81
 4344 0f0d 00       		.byte	0
 4345 0f0e 26       		.uleb128 0x26
 4346 0f0f DC050000 		.4byte	.LASF187
 4347 0f13 09       		.byte	0x9
 4348 0f14 23       		.byte	0x23
 4349 0f15 81000000 		.4byte	0x81
 4350 0f19 26       		.uleb128 0x26
 4351 0f1a C2010000 		.4byte	.LASF188
 4352 0f1e 09       		.byte	0x9
 4353 0f1f 24       		.byte	0x24
 4354 0f20 81000000 		.4byte	0x81
 4355 0f24 27       		.uleb128 0x27
 4356 0f25 92040000 		.4byte	.LASF189
 4357 0f29 0A       		.byte	0xa
 4358 0f2a 21       		.byte	0x21
 4359 0f2b D2000000 		.4byte	0xd2
 4360 0f2f 3E0F0000 		.4byte	0xf3e
 4361 0f33 24       		.uleb128 0x24
 4362 0f34 81000000 		.4byte	0x81
 4363 0f38 24       		.uleb128 0x24
 4364 0f39 8D000000 		.4byte	0x8d
 4365 0f3d 00       		.byte	0
 4366 0f3e 27       		.uleb128 0x27
ARM GAS  C:\Users\RECEPC~1\AppData\Local\Temp\cctZPkat.s 			page 87


 4367 0f3f 61030000 		.4byte	.LASF190
 4368 0f43 0A       		.byte	0xa
 4369 0f44 23       		.byte	0x23
 4370 0f45 81000000 		.4byte	0x81
 4371 0f49 530F0000 		.4byte	0xf53
 4372 0f4d 24       		.uleb128 0x24
 4373 0f4e 8D000000 		.4byte	0x8d
 4374 0f52 00       		.byte	0
 4375 0f53 25       		.uleb128 0x25
 4376 0f54 DC010000 		.4byte	.LASF191
 4377 0f58 0B       		.byte	0xb
 4378 0f59 25       		.byte	0x25
 4379 0f5a 690F0000 		.4byte	0xf69
 4380 0f5e 24       		.uleb128 0x24
 4381 0f5f 81000000 		.4byte	0x81
 4382 0f63 24       		.uleb128 0x24
 4383 0f64 81000000 		.4byte	0x81
 4384 0f68 00       		.byte	0
 4385 0f69 28       		.uleb128 0x28
 4386 0f6a DA090000 		.4byte	.LASF197
 4387 0f6e 07       		.byte	0x7
 4388 0f6f 75       		.byte	0x75
 4389 0f70 29       		.uleb128 0x29
 4390 0f71 80050000 		.4byte	.LASF192
 4391 0f75 0C       		.byte	0xc
 4392 0f76 26       		.byte	0x26
 4393 0f77 81000000 		.4byte	0x81
 4394 0f7b 24       		.uleb128 0x24
 4395 0f7c 81000000 		.4byte	0x81
 4396 0f80 24       		.uleb128 0x24
 4397 0f81 81000000 		.4byte	0x81
 4398 0f85 24       		.uleb128 0x24
 4399 0f86 F1050000 		.4byte	0x5f1
 4400 0f8a 00       		.byte	0
 4401 0f8b 00       		.byte	0
 4402              		.section	.debug_abbrev,"",%progbits
 4403              	.Ldebug_abbrev0:
 4404 0000 01       		.uleb128 0x1
 4405 0001 11       		.uleb128 0x11
 4406 0002 01       		.byte	0x1
 4407 0003 25       		.uleb128 0x25
 4408 0004 0E       		.uleb128 0xe
 4409 0005 13       		.uleb128 0x13
 4410 0006 0B       		.uleb128 0xb
 4411 0007 03       		.uleb128 0x3
 4412 0008 0E       		.uleb128 0xe
 4413 0009 1B       		.uleb128 0x1b
 4414 000a 0E       		.uleb128 0xe
 4415 000b 55       		.uleb128 0x55
 4416 000c 17       		.uleb128 0x17
 4417 000d 11       		.uleb128 0x11
 4418 000e 01       		.uleb128 0x1
 4419 000f 10       		.uleb128 0x10
 4420 0010 17       		.uleb128 0x17
 4421 0011 00       		.byte	0
 4422 0012 00       		.byte	0
 4423 0013 02       		.uleb128 0x2
ARM GAS  C:\Users\RECEPC~1\AppData\Local\Temp\cctZPkat.s 			page 88


 4424 0014 24       		.uleb128 0x24
 4425 0015 00       		.byte	0
 4426 0016 0B       		.uleb128 0xb
 4427 0017 0B       		.uleb128 0xb
 4428 0018 3E       		.uleb128 0x3e
 4429 0019 0B       		.uleb128 0xb
 4430 001a 03       		.uleb128 0x3
 4431 001b 0E       		.uleb128 0xe
 4432 001c 00       		.byte	0
 4433 001d 00       		.byte	0
 4434 001e 03       		.uleb128 0x3
 4435 001f 16       		.uleb128 0x16
 4436 0020 00       		.byte	0
 4437 0021 03       		.uleb128 0x3
 4438 0022 0E       		.uleb128 0xe
 4439 0023 3A       		.uleb128 0x3a
 4440 0024 0B       		.uleb128 0xb
 4441 0025 3B       		.uleb128 0x3b
 4442 0026 0B       		.uleb128 0xb
 4443 0027 49       		.uleb128 0x49
 4444 0028 13       		.uleb128 0x13
 4445 0029 00       		.byte	0
 4446 002a 00       		.byte	0
 4447 002b 04       		.uleb128 0x4
 4448 002c 24       		.uleb128 0x24
 4449 002d 00       		.byte	0
 4450 002e 0B       		.uleb128 0xb
 4451 002f 0B       		.uleb128 0xb
 4452 0030 3E       		.uleb128 0x3e
 4453 0031 0B       		.uleb128 0xb
 4454 0032 03       		.uleb128 0x3
 4455 0033 08       		.uleb128 0x8
 4456 0034 00       		.byte	0
 4457 0035 00       		.byte	0
 4458 0036 05       		.uleb128 0x5
 4459 0037 16       		.uleb128 0x16
 4460 0038 00       		.byte	0
 4461 0039 03       		.uleb128 0x3
 4462 003a 0E       		.uleb128 0xe
 4463 003b 3A       		.uleb128 0x3a
 4464 003c 0B       		.uleb128 0xb
 4465 003d 3B       		.uleb128 0x3b
 4466 003e 05       		.uleb128 0x5
 4467 003f 49       		.uleb128 0x49
 4468 0040 13       		.uleb128 0x13
 4469 0041 00       		.byte	0
 4470 0042 00       		.byte	0
 4471 0043 06       		.uleb128 0x6
 4472 0044 35       		.uleb128 0x35
 4473 0045 00       		.byte	0
 4474 0046 49       		.uleb128 0x49
 4475 0047 13       		.uleb128 0x13
 4476 0048 00       		.byte	0
 4477 0049 00       		.byte	0
 4478 004a 07       		.uleb128 0x7
 4479 004b 0F       		.uleb128 0xf
 4480 004c 00       		.byte	0
ARM GAS  C:\Users\RECEPC~1\AppData\Local\Temp\cctZPkat.s 			page 89


 4481 004d 0B       		.uleb128 0xb
 4482 004e 0B       		.uleb128 0xb
 4483 004f 00       		.byte	0
 4484 0050 00       		.byte	0
 4485 0051 08       		.uleb128 0x8
 4486 0052 01       		.uleb128 0x1
 4487 0053 01       		.byte	0x1
 4488 0054 49       		.uleb128 0x49
 4489 0055 13       		.uleb128 0x13
 4490 0056 01       		.uleb128 0x1
 4491 0057 13       		.uleb128 0x13
 4492 0058 00       		.byte	0
 4493 0059 00       		.byte	0
 4494 005a 09       		.uleb128 0x9
 4495 005b 21       		.uleb128 0x21
 4496 005c 00       		.byte	0
 4497 005d 49       		.uleb128 0x49
 4498 005e 13       		.uleb128 0x13
 4499 005f 2F       		.uleb128 0x2f
 4500 0060 0B       		.uleb128 0xb
 4501 0061 00       		.byte	0
 4502 0062 00       		.byte	0
 4503 0063 0A       		.uleb128 0xa
 4504 0064 13       		.uleb128 0x13
 4505 0065 01       		.byte	0x1
 4506 0066 03       		.uleb128 0x3
 4507 0067 0E       		.uleb128 0xe
 4508 0068 0B       		.uleb128 0xb
 4509 0069 05       		.uleb128 0x5
 4510 006a 3A       		.uleb128 0x3a
 4511 006b 0B       		.uleb128 0xb
 4512 006c 3B       		.uleb128 0x3b
 4513 006d 0B       		.uleb128 0xb
 4514 006e 01       		.uleb128 0x1
 4515 006f 13       		.uleb128 0x13
 4516 0070 00       		.byte	0
 4517 0071 00       		.byte	0
 4518 0072 0B       		.uleb128 0xb
 4519 0073 0D       		.uleb128 0xd
 4520 0074 00       		.byte	0
 4521 0075 03       		.uleb128 0x3
 4522 0076 0E       		.uleb128 0xe
 4523 0077 3A       		.uleb128 0x3a
 4524 0078 0B       		.uleb128 0xb
 4525 0079 3B       		.uleb128 0x3b
 4526 007a 0B       		.uleb128 0xb
 4527 007b 49       		.uleb128 0x49
 4528 007c 13       		.uleb128 0x13
 4529 007d 38       		.uleb128 0x38
 4530 007e 0B       		.uleb128 0xb
 4531 007f 00       		.byte	0
 4532 0080 00       		.byte	0
 4533 0081 0C       		.uleb128 0xc
 4534 0082 0D       		.uleb128 0xd
 4535 0083 00       		.byte	0
 4536 0084 03       		.uleb128 0x3
 4537 0085 0E       		.uleb128 0xe
ARM GAS  C:\Users\RECEPC~1\AppData\Local\Temp\cctZPkat.s 			page 90


 4538 0086 3A       		.uleb128 0x3a
 4539 0087 0B       		.uleb128 0xb
 4540 0088 3B       		.uleb128 0x3b
 4541 0089 0B       		.uleb128 0xb
 4542 008a 49       		.uleb128 0x49
 4543 008b 13       		.uleb128 0x13
 4544 008c 38       		.uleb128 0x38
 4545 008d 05       		.uleb128 0x5
 4546 008e 00       		.byte	0
 4547 008f 00       		.byte	0
 4548 0090 0D       		.uleb128 0xd
 4549 0091 0D       		.uleb128 0xd
 4550 0092 00       		.byte	0
 4551 0093 03       		.uleb128 0x3
 4552 0094 08       		.uleb128 0x8
 4553 0095 3A       		.uleb128 0x3a
 4554 0096 0B       		.uleb128 0xb
 4555 0097 3B       		.uleb128 0x3b
 4556 0098 0B       		.uleb128 0xb
 4557 0099 49       		.uleb128 0x49
 4558 009a 13       		.uleb128 0x13
 4559 009b 38       		.uleb128 0x38
 4560 009c 0B       		.uleb128 0xb
 4561 009d 00       		.byte	0
 4562 009e 00       		.byte	0
 4563 009f 0E       		.uleb128 0xe
 4564 00a0 0D       		.uleb128 0xd
 4565 00a1 00       		.byte	0
 4566 00a2 03       		.uleb128 0x3
 4567 00a3 08       		.uleb128 0x8
 4568 00a4 3A       		.uleb128 0x3a
 4569 00a5 0B       		.uleb128 0xb
 4570 00a6 3B       		.uleb128 0x3b
 4571 00a7 0B       		.uleb128 0xb
 4572 00a8 49       		.uleb128 0x49
 4573 00a9 13       		.uleb128 0x13
 4574 00aa 38       		.uleb128 0x38
 4575 00ab 05       		.uleb128 0x5
 4576 00ac 00       		.byte	0
 4577 00ad 00       		.byte	0
 4578 00ae 0F       		.uleb128 0xf
 4579 00af 04       		.uleb128 0x4
 4580 00b0 01       		.byte	0x1
 4581 00b1 03       		.uleb128 0x3
 4582 00b2 0E       		.uleb128 0xe
 4583 00b3 0B       		.uleb128 0xb
 4584 00b4 0B       		.uleb128 0xb
 4585 00b5 3A       		.uleb128 0x3a
 4586 00b6 0B       		.uleb128 0xb
 4587 00b7 3B       		.uleb128 0x3b
 4588 00b8 05       		.uleb128 0x5
 4589 00b9 01       		.uleb128 0x1
 4590 00ba 13       		.uleb128 0x13
 4591 00bb 00       		.byte	0
 4592 00bc 00       		.byte	0
 4593 00bd 10       		.uleb128 0x10
 4594 00be 28       		.uleb128 0x28
ARM GAS  C:\Users\RECEPC~1\AppData\Local\Temp\cctZPkat.s 			page 91


 4595 00bf 00       		.byte	0
 4596 00c0 03       		.uleb128 0x3
 4597 00c1 0E       		.uleb128 0xe
 4598 00c2 1C       		.uleb128 0x1c
 4599 00c3 0D       		.uleb128 0xd
 4600 00c4 00       		.byte	0
 4601 00c5 00       		.byte	0
 4602 00c6 11       		.uleb128 0x11
 4603 00c7 0F       		.uleb128 0xf
 4604 00c8 00       		.byte	0
 4605 00c9 0B       		.uleb128 0xb
 4606 00ca 0B       		.uleb128 0xb
 4607 00cb 49       		.uleb128 0x49
 4608 00cc 13       		.uleb128 0x13
 4609 00cd 00       		.byte	0
 4610 00ce 00       		.byte	0
 4611 00cf 12       		.uleb128 0x12
 4612 00d0 26       		.uleb128 0x26
 4613 00d1 00       		.byte	0
 4614 00d2 00       		.byte	0
 4615 00d3 00       		.byte	0
 4616 00d4 13       		.uleb128 0x13
 4617 00d5 2E       		.uleb128 0x2e
 4618 00d6 01       		.byte	0x1
 4619 00d7 3F       		.uleb128 0x3f
 4620 00d8 19       		.uleb128 0x19
 4621 00d9 03       		.uleb128 0x3
 4622 00da 0E       		.uleb128 0xe
 4623 00db 3A       		.uleb128 0x3a
 4624 00dc 0B       		.uleb128 0xb
 4625 00dd 3B       		.uleb128 0x3b
 4626 00de 0B       		.uleb128 0xb
 4627 00df 27       		.uleb128 0x27
 4628 00e0 19       		.uleb128 0x19
 4629 00e1 49       		.uleb128 0x49
 4630 00e2 13       		.uleb128 0x13
 4631 00e3 11       		.uleb128 0x11
 4632 00e4 01       		.uleb128 0x1
 4633 00e5 12       		.uleb128 0x12
 4634 00e6 06       		.uleb128 0x6
 4635 00e7 40       		.uleb128 0x40
 4636 00e8 18       		.uleb128 0x18
 4637 00e9 9742     		.uleb128 0x2117
 4638 00eb 19       		.uleb128 0x19
 4639 00ec 01       		.uleb128 0x1
 4640 00ed 13       		.uleb128 0x13
 4641 00ee 00       		.byte	0
 4642 00ef 00       		.byte	0
 4643 00f0 14       		.uleb128 0x14
 4644 00f1 05       		.uleb128 0x5
 4645 00f2 00       		.byte	0
 4646 00f3 03       		.uleb128 0x3
 4647 00f4 0E       		.uleb128 0xe
 4648 00f5 3A       		.uleb128 0x3a
 4649 00f6 0B       		.uleb128 0xb
 4650 00f7 3B       		.uleb128 0x3b
 4651 00f8 0B       		.uleb128 0xb
ARM GAS  C:\Users\RECEPC~1\AppData\Local\Temp\cctZPkat.s 			page 92


 4652 00f9 49       		.uleb128 0x49
 4653 00fa 13       		.uleb128 0x13
 4654 00fb 02       		.uleb128 0x2
 4655 00fc 17       		.uleb128 0x17
 4656 00fd 00       		.byte	0
 4657 00fe 00       		.byte	0
 4658 00ff 15       		.uleb128 0x15
 4659 0100 34       		.uleb128 0x34
 4660 0101 00       		.byte	0
 4661 0102 03       		.uleb128 0x3
 4662 0103 0E       		.uleb128 0xe
 4663 0104 3A       		.uleb128 0x3a
 4664 0105 0B       		.uleb128 0xb
 4665 0106 3B       		.uleb128 0x3b
 4666 0107 0B       		.uleb128 0xb
 4667 0108 49       		.uleb128 0x49
 4668 0109 13       		.uleb128 0x13
 4669 010a 02       		.uleb128 0x2
 4670 010b 17       		.uleb128 0x17
 4671 010c 00       		.byte	0
 4672 010d 00       		.byte	0
 4673 010e 16       		.uleb128 0x16
 4674 010f 34       		.uleb128 0x34
 4675 0110 00       		.byte	0
 4676 0111 03       		.uleb128 0x3
 4677 0112 08       		.uleb128 0x8
 4678 0113 3A       		.uleb128 0x3a
 4679 0114 0B       		.uleb128 0xb
 4680 0115 3B       		.uleb128 0x3b
 4681 0116 0B       		.uleb128 0xb
 4682 0117 49       		.uleb128 0x49
 4683 0118 13       		.uleb128 0x13
 4684 0119 02       		.uleb128 0x2
 4685 011a 17       		.uleb128 0x17
 4686 011b 00       		.byte	0
 4687 011c 00       		.byte	0
 4688 011d 17       		.uleb128 0x17
 4689 011e 34       		.uleb128 0x34
 4690 011f 00       		.byte	0
 4691 0120 03       		.uleb128 0x3
 4692 0121 0E       		.uleb128 0xe
 4693 0122 3A       		.uleb128 0x3a
 4694 0123 0B       		.uleb128 0xb
 4695 0124 3B       		.uleb128 0x3b
 4696 0125 0B       		.uleb128 0xb
 4697 0126 49       		.uleb128 0x49
 4698 0127 13       		.uleb128 0x13
 4699 0128 02       		.uleb128 0x2
 4700 0129 18       		.uleb128 0x18
 4701 012a 00       		.byte	0
 4702 012b 00       		.byte	0
 4703 012c 18       		.uleb128 0x18
 4704 012d 898201   		.uleb128 0x4109
 4705 0130 01       		.byte	0x1
 4706 0131 11       		.uleb128 0x11
 4707 0132 01       		.uleb128 0x1
 4708 0133 31       		.uleb128 0x31
ARM GAS  C:\Users\RECEPC~1\AppData\Local\Temp\cctZPkat.s 			page 93


 4709 0134 13       		.uleb128 0x13
 4710 0135 00       		.byte	0
 4711 0136 00       		.byte	0
 4712 0137 19       		.uleb128 0x19
 4713 0138 8A8201   		.uleb128 0x410a
 4714 013b 00       		.byte	0
 4715 013c 02       		.uleb128 0x2
 4716 013d 18       		.uleb128 0x18
 4717 013e 9142     		.uleb128 0x2111
 4718 0140 18       		.uleb128 0x18
 4719 0141 00       		.byte	0
 4720 0142 00       		.byte	0
 4721 0143 1A       		.uleb128 0x1a
 4722 0144 2E       		.uleb128 0x2e
 4723 0145 01       		.byte	0x1
 4724 0146 3F       		.uleb128 0x3f
 4725 0147 19       		.uleb128 0x19
 4726 0148 03       		.uleb128 0x3
 4727 0149 0E       		.uleb128 0xe
 4728 014a 3A       		.uleb128 0x3a
 4729 014b 0B       		.uleb128 0xb
 4730 014c 3B       		.uleb128 0x3b
 4731 014d 0B       		.uleb128 0xb
 4732 014e 27       		.uleb128 0x27
 4733 014f 19       		.uleb128 0x19
 4734 0150 11       		.uleb128 0x11
 4735 0151 01       		.uleb128 0x1
 4736 0152 12       		.uleb128 0x12
 4737 0153 06       		.uleb128 0x6
 4738 0154 40       		.uleb128 0x40
 4739 0155 18       		.uleb128 0x18
 4740 0156 9742     		.uleb128 0x2117
 4741 0158 19       		.uleb128 0x19
 4742 0159 01       		.uleb128 0x1
 4743 015a 13       		.uleb128 0x13
 4744 015b 00       		.byte	0
 4745 015c 00       		.byte	0
 4746 015d 1B       		.uleb128 0x1b
 4747 015e 898201   		.uleb128 0x4109
 4748 0161 01       		.byte	0x1
 4749 0162 11       		.uleb128 0x11
 4750 0163 01       		.uleb128 0x1
 4751 0164 31       		.uleb128 0x31
 4752 0165 13       		.uleb128 0x13
 4753 0166 01       		.uleb128 0x1
 4754 0167 13       		.uleb128 0x13
 4755 0168 00       		.byte	0
 4756 0169 00       		.byte	0
 4757 016a 1C       		.uleb128 0x1c
 4758 016b 898201   		.uleb128 0x4109
 4759 016e 00       		.byte	0
 4760 016f 11       		.uleb128 0x11
 4761 0170 01       		.uleb128 0x1
 4762 0171 31       		.uleb128 0x31
 4763 0172 13       		.uleb128 0x13
 4764 0173 00       		.byte	0
 4765 0174 00       		.byte	0
ARM GAS  C:\Users\RECEPC~1\AppData\Local\Temp\cctZPkat.s 			page 94


 4766 0175 1D       		.uleb128 0x1d
 4767 0176 2E       		.uleb128 0x2e
 4768 0177 01       		.byte	0x1
 4769 0178 3F       		.uleb128 0x3f
 4770 0179 19       		.uleb128 0x19
 4771 017a 03       		.uleb128 0x3
 4772 017b 0E       		.uleb128 0xe
 4773 017c 3A       		.uleb128 0x3a
 4774 017d 0B       		.uleb128 0xb
 4775 017e 3B       		.uleb128 0x3b
 4776 017f 05       		.uleb128 0x5
 4777 0180 27       		.uleb128 0x27
 4778 0181 19       		.uleb128 0x19
 4779 0182 11       		.uleb128 0x11
 4780 0183 01       		.uleb128 0x1
 4781 0184 12       		.uleb128 0x12
 4782 0185 06       		.uleb128 0x6
 4783 0186 40       		.uleb128 0x40
 4784 0187 18       		.uleb128 0x18
 4785 0188 9742     		.uleb128 0x2117
 4786 018a 19       		.uleb128 0x19
 4787 018b 01       		.uleb128 0x1
 4788 018c 13       		.uleb128 0x13
 4789 018d 00       		.byte	0
 4790 018e 00       		.byte	0
 4791 018f 1E       		.uleb128 0x1e
 4792 0190 0B       		.uleb128 0xb
 4793 0191 01       		.byte	0x1
 4794 0192 11       		.uleb128 0x11
 4795 0193 01       		.uleb128 0x1
 4796 0194 12       		.uleb128 0x12
 4797 0195 06       		.uleb128 0x6
 4798 0196 00       		.byte	0
 4799 0197 00       		.byte	0
 4800 0198 1F       		.uleb128 0x1f
 4801 0199 34       		.uleb128 0x34
 4802 019a 00       		.byte	0
 4803 019b 03       		.uleb128 0x3
 4804 019c 08       		.uleb128 0x8
 4805 019d 3A       		.uleb128 0x3a
 4806 019e 0B       		.uleb128 0xb
 4807 019f 3B       		.uleb128 0x3b
 4808 01a0 05       		.uleb128 0x5
 4809 01a1 49       		.uleb128 0x49
 4810 01a2 13       		.uleb128 0x13
 4811 01a3 02       		.uleb128 0x2
 4812 01a4 17       		.uleb128 0x17
 4813 01a5 00       		.byte	0
 4814 01a6 00       		.byte	0
 4815 01a7 20       		.uleb128 0x20
 4816 01a8 34       		.uleb128 0x34
 4817 01a9 00       		.byte	0
 4818 01aa 03       		.uleb128 0x3
 4819 01ab 0E       		.uleb128 0xe
 4820 01ac 3A       		.uleb128 0x3a
 4821 01ad 0B       		.uleb128 0xb
 4822 01ae 3B       		.uleb128 0x3b
ARM GAS  C:\Users\RECEPC~1\AppData\Local\Temp\cctZPkat.s 			page 95


 4823 01af 05       		.uleb128 0x5
 4824 01b0 49       		.uleb128 0x49
 4825 01b1 13       		.uleb128 0x13
 4826 01b2 3F       		.uleb128 0x3f
 4827 01b3 19       		.uleb128 0x19
 4828 01b4 3C       		.uleb128 0x3c
 4829 01b5 19       		.uleb128 0x19
 4830 01b6 00       		.byte	0
 4831 01b7 00       		.byte	0
 4832 01b8 21       		.uleb128 0x21
 4833 01b9 34       		.uleb128 0x34
 4834 01ba 00       		.byte	0
 4835 01bb 03       		.uleb128 0x3
 4836 01bc 0E       		.uleb128 0xe
 4837 01bd 3A       		.uleb128 0x3a
 4838 01be 0B       		.uleb128 0xb
 4839 01bf 3B       		.uleb128 0x3b
 4840 01c0 0B       		.uleb128 0xb
 4841 01c1 49       		.uleb128 0x49
 4842 01c2 13       		.uleb128 0x13
 4843 01c3 3F       		.uleb128 0x3f
 4844 01c4 19       		.uleb128 0x19
 4845 01c5 02       		.uleb128 0x2
 4846 01c6 18       		.uleb128 0x18
 4847 01c7 00       		.byte	0
 4848 01c8 00       		.byte	0
 4849 01c9 22       		.uleb128 0x22
 4850 01ca 21       		.uleb128 0x21
 4851 01cb 00       		.byte	0
 4852 01cc 49       		.uleb128 0x49
 4853 01cd 13       		.uleb128 0x13
 4854 01ce 2F       		.uleb128 0x2f
 4855 01cf 05       		.uleb128 0x5
 4856 01d0 00       		.byte	0
 4857 01d1 00       		.byte	0
 4858 01d2 23       		.uleb128 0x23
 4859 01d3 2E       		.uleb128 0x2e
 4860 01d4 01       		.byte	0x1
 4861 01d5 3F       		.uleb128 0x3f
 4862 01d6 19       		.uleb128 0x19
 4863 01d7 03       		.uleb128 0x3
 4864 01d8 0E       		.uleb128 0xe
 4865 01d9 27       		.uleb128 0x27
 4866 01da 19       		.uleb128 0x19
 4867 01db 49       		.uleb128 0x49
 4868 01dc 13       		.uleb128 0x13
 4869 01dd 34       		.uleb128 0x34
 4870 01de 19       		.uleb128 0x19
 4871 01df 3C       		.uleb128 0x3c
 4872 01e0 19       		.uleb128 0x19
 4873 01e1 01       		.uleb128 0x1
 4874 01e2 13       		.uleb128 0x13
 4875 01e3 00       		.byte	0
 4876 01e4 00       		.byte	0
 4877 01e5 24       		.uleb128 0x24
 4878 01e6 05       		.uleb128 0x5
 4879 01e7 00       		.byte	0
ARM GAS  C:\Users\RECEPC~1\AppData\Local\Temp\cctZPkat.s 			page 96


 4880 01e8 49       		.uleb128 0x49
 4881 01e9 13       		.uleb128 0x13
 4882 01ea 00       		.byte	0
 4883 01eb 00       		.byte	0
 4884 01ec 25       		.uleb128 0x25
 4885 01ed 2E       		.uleb128 0x2e
 4886 01ee 01       		.byte	0x1
 4887 01ef 3F       		.uleb128 0x3f
 4888 01f0 19       		.uleb128 0x19
 4889 01f1 03       		.uleb128 0x3
 4890 01f2 0E       		.uleb128 0xe
 4891 01f3 3A       		.uleb128 0x3a
 4892 01f4 0B       		.uleb128 0xb
 4893 01f5 3B       		.uleb128 0x3b
 4894 01f6 0B       		.uleb128 0xb
 4895 01f7 27       		.uleb128 0x27
 4896 01f8 19       		.uleb128 0x19
 4897 01f9 3C       		.uleb128 0x3c
 4898 01fa 19       		.uleb128 0x19
 4899 01fb 01       		.uleb128 0x1
 4900 01fc 13       		.uleb128 0x13
 4901 01fd 00       		.byte	0
 4902 01fe 00       		.byte	0
 4903 01ff 26       		.uleb128 0x26
 4904 0200 2E       		.uleb128 0x2e
 4905 0201 00       		.byte	0
 4906 0202 3F       		.uleb128 0x3f
 4907 0203 19       		.uleb128 0x19
 4908 0204 03       		.uleb128 0x3
 4909 0205 0E       		.uleb128 0xe
 4910 0206 3A       		.uleb128 0x3a
 4911 0207 0B       		.uleb128 0xb
 4912 0208 3B       		.uleb128 0x3b
 4913 0209 0B       		.uleb128 0xb
 4914 020a 27       		.uleb128 0x27
 4915 020b 19       		.uleb128 0x19
 4916 020c 49       		.uleb128 0x49
 4917 020d 13       		.uleb128 0x13
 4918 020e 3C       		.uleb128 0x3c
 4919 020f 19       		.uleb128 0x19
 4920 0210 00       		.byte	0
 4921 0211 00       		.byte	0
 4922 0212 27       		.uleb128 0x27
 4923 0213 2E       		.uleb128 0x2e
 4924 0214 01       		.byte	0x1
 4925 0215 3F       		.uleb128 0x3f
 4926 0216 19       		.uleb128 0x19
 4927 0217 03       		.uleb128 0x3
 4928 0218 0E       		.uleb128 0xe
 4929 0219 3A       		.uleb128 0x3a
 4930 021a 0B       		.uleb128 0xb
 4931 021b 3B       		.uleb128 0x3b
 4932 021c 0B       		.uleb128 0xb
 4933 021d 27       		.uleb128 0x27
 4934 021e 19       		.uleb128 0x19
 4935 021f 49       		.uleb128 0x49
 4936 0220 13       		.uleb128 0x13
ARM GAS  C:\Users\RECEPC~1\AppData\Local\Temp\cctZPkat.s 			page 97


 4937 0221 3C       		.uleb128 0x3c
 4938 0222 19       		.uleb128 0x19
 4939 0223 01       		.uleb128 0x1
 4940 0224 13       		.uleb128 0x13
 4941 0225 00       		.byte	0
 4942 0226 00       		.byte	0
 4943 0227 28       		.uleb128 0x28
 4944 0228 2E       		.uleb128 0x2e
 4945 0229 00       		.byte	0
 4946 022a 3F       		.uleb128 0x3f
 4947 022b 19       		.uleb128 0x19
 4948 022c 03       		.uleb128 0x3
 4949 022d 0E       		.uleb128 0xe
 4950 022e 3A       		.uleb128 0x3a
 4951 022f 0B       		.uleb128 0xb
 4952 0230 3B       		.uleb128 0x3b
 4953 0231 0B       		.uleb128 0xb
 4954 0232 27       		.uleb128 0x27
 4955 0233 19       		.uleb128 0x19
 4956 0234 3C       		.uleb128 0x3c
 4957 0235 19       		.uleb128 0x19
 4958 0236 00       		.byte	0
 4959 0237 00       		.byte	0
 4960 0238 29       		.uleb128 0x29
 4961 0239 2E       		.uleb128 0x2e
 4962 023a 01       		.byte	0x1
 4963 023b 3F       		.uleb128 0x3f
 4964 023c 19       		.uleb128 0x19
 4965 023d 03       		.uleb128 0x3
 4966 023e 0E       		.uleb128 0xe
 4967 023f 3A       		.uleb128 0x3a
 4968 0240 0B       		.uleb128 0xb
 4969 0241 3B       		.uleb128 0x3b
 4970 0242 0B       		.uleb128 0xb
 4971 0243 27       		.uleb128 0x27
 4972 0244 19       		.uleb128 0x19
 4973 0245 49       		.uleb128 0x49
 4974 0246 13       		.uleb128 0x13
 4975 0247 3C       		.uleb128 0x3c
 4976 0248 19       		.uleb128 0x19
 4977 0249 00       		.byte	0
 4978 024a 00       		.byte	0
 4979 024b 00       		.byte	0
 4980              		.section	.debug_loc,"",%progbits
 4981              	.Ldebug_loc0:
 4982              	.LLST0:
 4983 0000 00000000 		.4byte	.LVL0
 4984 0004 0A000000 		.4byte	.LVL1
 4985 0008 0100     		.2byte	0x1
 4986 000a 50       		.byte	0x50
 4987 000b 0A000000 		.4byte	.LVL1
 4988 000f 30000000 		.4byte	.LVL9
 4989 0013 0100     		.2byte	0x1
 4990 0015 55       		.byte	0x55
 4991 0016 30000000 		.4byte	.LVL9
 4992 001a 34000000 		.4byte	.LFE63
 4993 001e 0400     		.2byte	0x4
ARM GAS  C:\Users\RECEPC~1\AppData\Local\Temp\cctZPkat.s 			page 98


 4994 0020 F3       		.byte	0xf3
 4995 0021 01       		.uleb128 0x1
 4996 0022 50       		.byte	0x50
 4997 0023 9F       		.byte	0x9f
 4998 0024 00000000 		.4byte	0
 4999 0028 00000000 		.4byte	0
 5000              	.LLST1:
 5001 002c 00000000 		.4byte	.LVL0
 5002 0030 0C000000 		.4byte	.LVL2
 5003 0034 0100     		.2byte	0x1
 5004 0036 51       		.byte	0x51
 5005 0037 0C000000 		.4byte	.LVL2
 5006 003b 34000000 		.4byte	.LFE63
 5007 003f 0400     		.2byte	0x4
 5008 0041 F3       		.byte	0xf3
 5009 0042 01       		.uleb128 0x1
 5010 0043 51       		.byte	0x51
 5011 0044 9F       		.byte	0x9f
 5012 0045 00000000 		.4byte	0
 5013 0049 00000000 		.4byte	0
 5014              	.LLST2:
 5015 004d 14000000 		.4byte	.LVL3
 5016 0051 1A000000 		.4byte	.LVL4
 5017 0055 0200     		.2byte	0x2
 5018 0057 30       		.byte	0x30
 5019 0058 9F       		.byte	0x9f
 5020 0059 1A000000 		.4byte	.LVL4
 5021 005d 1E000000 		.4byte	.LVL5
 5022 0061 0100     		.2byte	0x1
 5023 0063 50       		.byte	0x50
 5024 0064 22000000 		.4byte	.LVL6
 5025 0068 34000000 		.4byte	.LFE63
 5026 006c 0100     		.2byte	0x1
 5027 006e 50       		.byte	0x50
 5028 006f 00000000 		.4byte	0
 5029 0073 00000000 		.4byte	0
 5030              	.LLST3:
 5031 0077 1E000000 		.4byte	.LVL5
 5032 007b 22000000 		.4byte	.LVL6
 5033 007f 0100     		.2byte	0x1
 5034 0081 50       		.byte	0x50
 5035 0082 00000000 		.4byte	0
 5036 0086 00000000 		.4byte	0
 5037              	.LLST4:
 5038 008a 14000000 		.4byte	.LVL3
 5039 008e 1A000000 		.4byte	.LVL4
 5040 0092 0200     		.2byte	0x2
 5041 0094 30       		.byte	0x30
 5042 0095 9F       		.byte	0x9f
 5043 0096 1A000000 		.4byte	.LVL4
 5044 009a 24000000 		.4byte	.LVL7
 5045 009e 0100     		.2byte	0x1
 5046 00a0 53       		.byte	0x53
 5047 00a1 26000000 		.4byte	.LVL8
 5048 00a5 34000000 		.4byte	.LFE63
 5049 00a9 0100     		.2byte	0x1
 5050 00ab 53       		.byte	0x53
ARM GAS  C:\Users\RECEPC~1\AppData\Local\Temp\cctZPkat.s 			page 99


 5051 00ac 00000000 		.4byte	0
 5052 00b0 00000000 		.4byte	0
 5053              	.LLST5:
 5054 00b4 2E000000 		.4byte	.LVL12
 5055 00b8 30000000 		.4byte	.LVL13
 5056 00bc 0200     		.2byte	0x2
 5057 00be 30       		.byte	0x30
 5058 00bf 9F       		.byte	0x9f
 5059 00c0 30000000 		.4byte	.LVL13
 5060 00c4 3A000000 		.4byte	.LVL15
 5061 00c8 0100     		.2byte	0x1
 5062 00ca 54       		.byte	0x54
 5063 00cb 3C000000 		.4byte	.LVL16
 5064 00cf DE000000 		.4byte	.LVL27
 5065 00d3 0100     		.2byte	0x1
 5066 00d5 54       		.byte	0x54
 5067 00d6 E0000000 		.4byte	.LVL28
 5068 00da E2000000 		.4byte	.LVL29
 5069 00de 0100     		.2byte	0x1
 5070 00e0 54       		.byte	0x54
 5071 00e1 7A010000 		.4byte	.LVL51
 5072 00e5 AC010000 		.4byte	.LVL57
 5073 00e9 0100     		.2byte	0x1
 5074 00eb 54       		.byte	0x54
 5075 00ec C2010000 		.4byte	.LVL63
 5076 00f0 C4010000 		.4byte	.LVL64
 5077 00f4 0100     		.2byte	0x1
 5078 00f6 54       		.byte	0x54
 5079 00f7 0E020000 		.4byte	.LVL80
 5080 00fb 10020000 		.4byte	.LVL81
 5081 00ff 0100     		.2byte	0x1
 5082 0101 54       		.byte	0x54
 5083 0102 FC020000 		.4byte	.LVL119
 5084 0106 0A030000 		.4byte	.LVL120
 5085 010a 0100     		.2byte	0x1
 5086 010c 54       		.byte	0x54
 5087 010d 24030000 		.4byte	.LVL124
 5088 0111 26030000 		.4byte	.LVL125
 5089 0115 0100     		.2byte	0x1
 5090 0117 54       		.byte	0x54
 5091 0118 5C040000 		.4byte	.LVL170
 5092 011c C8040000 		.4byte	.LVL171
 5093 0120 0100     		.2byte	0x1
 5094 0122 54       		.byte	0x54
 5095 0123 E8040000 		.4byte	.LVL178
 5096 0127 7A050000 		.4byte	.LVL198
 5097 012b 0100     		.2byte	0x1
 5098 012d 54       		.byte	0x54
 5099 012e 50060000 		.4byte	.LVL224
 5100 0132 56060000 		.4byte	.LVL225
 5101 0136 0100     		.2byte	0x1
 5102 0138 54       		.byte	0x54
 5103 0139 00000000 		.4byte	0
 5104 013d 00000000 		.4byte	0
 5105              	.LLST6:
 5106 0141 64010000 		.4byte	.LVL46
 5107 0145 68010000 		.4byte	.LVL47
ARM GAS  C:\Users\RECEPC~1\AppData\Local\Temp\cctZPkat.s 			page 100


 5108 0149 0200     		.2byte	0x2
 5109 014b 30       		.byte	0x30
 5110 014c 9F       		.byte	0x9f
 5111 014d 68010000 		.4byte	.LVL47
 5112 0151 72010000 		.4byte	.LVL49
 5113 0155 0100     		.2byte	0x1
 5114 0157 54       		.byte	0x54
 5115 0158 74010000 		.4byte	.LVL50
 5116 015c 7A010000 		.4byte	.LVL51
 5117 0160 0100     		.2byte	0x1
 5118 0162 54       		.byte	0x54
 5119 0163 AE010000 		.4byte	.LVL58
 5120 0167 BE010000 		.4byte	.LVL61
 5121 016b 0100     		.2byte	0x1
 5122 016d 53       		.byte	0x53
 5123 016e C0010000 		.4byte	.LVL62
 5124 0172 C2010000 		.4byte	.LVL63
 5125 0176 0100     		.2byte	0x1
 5126 0178 53       		.byte	0x53
 5127 0179 C6010000 		.4byte	.LVL65
 5128 017d D8010000 		.4byte	.LVL68
 5129 0181 0100     		.2byte	0x1
 5130 0183 53       		.byte	0x53
 5131 0184 DA010000 		.4byte	.LVL69
 5132 0188 E0010000 		.4byte	.LVL70
 5133 018c 0100     		.2byte	0x1
 5134 018e 53       		.byte	0x53
 5135 018f E2010000 		.4byte	.LVL71
 5136 0193 F2010000 		.4byte	.LVL74
 5137 0197 0100     		.2byte	0x1
 5138 0199 53       		.byte	0x53
 5139 019a F4010000 		.4byte	.LVL75
 5140 019e 06020000 		.4byte	.LVL78
 5141 01a2 0100     		.2byte	0x1
 5142 01a4 53       		.byte	0x53
 5143 01a5 08020000 		.4byte	.LVL79
 5144 01a9 0E020000 		.4byte	.LVL80
 5145 01ad 0100     		.2byte	0x1
 5146 01af 53       		.byte	0x53
 5147 01b0 54020000 		.4byte	.LVL91
 5148 01b4 66020000 		.4byte	.LVL94
 5149 01b8 0100     		.2byte	0x1
 5150 01ba 53       		.byte	0x53
 5151 01bb 68020000 		.4byte	.LVL95
 5152 01bf 6A020000 		.4byte	.LVL96
 5153 01c3 0100     		.2byte	0x1
 5154 01c5 53       		.byte	0x53
 5155 01c6 6C020000 		.4byte	.LVL97
 5156 01ca 7E020000 		.4byte	.LVL100
 5157 01ce 0100     		.2byte	0x1
 5158 01d0 53       		.byte	0x53
 5159 01d1 80020000 		.4byte	.LVL101
 5160 01d5 86020000 		.4byte	.LVL102
 5161 01d9 0100     		.2byte	0x1
 5162 01db 53       		.byte	0x53
 5163 01dc 88020000 		.4byte	.LVL103
 5164 01e0 9A020000 		.4byte	.LVL106
ARM GAS  C:\Users\RECEPC~1\AppData\Local\Temp\cctZPkat.s 			page 101


 5165 01e4 0100     		.2byte	0x1
 5166 01e6 53       		.byte	0x53
 5167 01e7 9C020000 		.4byte	.LVL107
 5168 01eb D0020000 		.4byte	.LVL110
 5169 01ef 0100     		.2byte	0x1
 5170 01f1 53       		.byte	0x53
 5171 01f2 D2020000 		.4byte	.LVL111
 5172 01f6 D6020000 		.4byte	.LVL112
 5173 01fa 0100     		.2byte	0x1
 5174 01fc 53       		.byte	0x53
 5175 01fd E6020000 		.4byte	.LVL114
 5176 0201 EA020000 		.4byte	.LVL115
 5177 0205 0200     		.2byte	0x2
 5178 0207 30       		.byte	0x30
 5179 0208 9F       		.byte	0x9f
 5180 0209 EA020000 		.4byte	.LVL115
 5181 020d F4020000 		.4byte	.LVL117
 5182 0211 0100     		.2byte	0x1
 5183 0213 54       		.byte	0x54
 5184 0214 F6020000 		.4byte	.LVL118
 5185 0218 FC020000 		.4byte	.LVL119
 5186 021c 0100     		.2byte	0x1
 5187 021e 54       		.byte	0x54
 5188 021f 0C030000 		.4byte	.LVL121
 5189 0223 20030000 		.4byte	.LVL122
 5190 0227 0100     		.2byte	0x1
 5191 0229 53       		.byte	0x53
 5192 022a 22030000 		.4byte	.LVL123
 5193 022e 24030000 		.4byte	.LVL124
 5194 0232 0100     		.2byte	0x1
 5195 0234 53       		.byte	0x53
 5196 0235 26030000 		.4byte	.LVL125
 5197 0239 2E030000 		.4byte	.LVL126
 5198 023d 0100     		.2byte	0x1
 5199 023f 53       		.byte	0x53
 5200 0240 54030000 		.4byte	.LVL131
 5201 0244 68030000 		.4byte	.LVL132
 5202 0248 0100     		.2byte	0x1
 5203 024a 53       		.byte	0x53
 5204 024b 6A030000 		.4byte	.LVL133
 5205 024f 6C030000 		.4byte	.LVL134
 5206 0253 0100     		.2byte	0x1
 5207 0255 53       		.byte	0x53
 5208 0256 6E030000 		.4byte	.LVL135
 5209 025a 76030000 		.4byte	.LVL136
 5210 025e 0100     		.2byte	0x1
 5211 0260 53       		.byte	0x53
 5212 0261 A6030000 		.4byte	.LVL142
 5213 0265 BA030000 		.4byte	.LVL143
 5214 0269 0100     		.2byte	0x1
 5215 026b 53       		.byte	0x53
 5216 026c BC030000 		.4byte	.LVL144
 5217 0270 BE030000 		.4byte	.LVL145
 5218 0274 0100     		.2byte	0x1
 5219 0276 53       		.byte	0x53
 5220 0277 C0030000 		.4byte	.LVL146
 5221 027b C8030000 		.4byte	.LVL147
ARM GAS  C:\Users\RECEPC~1\AppData\Local\Temp\cctZPkat.s 			page 102


 5222 027f 0100     		.2byte	0x1
 5223 0281 53       		.byte	0x53
 5224 0282 F8030000 		.4byte	.LVL153
 5225 0286 0C040000 		.4byte	.LVL154
 5226 028a 0100     		.2byte	0x1
 5227 028c 53       		.byte	0x53
 5228 028d 0E040000 		.4byte	.LVL155
 5229 0291 10040000 		.4byte	.LVL156
 5230 0295 0100     		.2byte	0x1
 5231 0297 53       		.byte	0x53
 5232 0298 12040000 		.4byte	.LVL157
 5233 029c 1A040000 		.4byte	.LVL158
 5234 02a0 0100     		.2byte	0x1
 5235 02a2 53       		.byte	0x53
 5236 02a3 46040000 		.4byte	.LVL165
 5237 02a7 4A040000 		.4byte	.LVL166
 5238 02ab 0200     		.2byte	0x2
 5239 02ad 30       		.byte	0x30
 5240 02ae 9F       		.byte	0x9f
 5241 02af 4A040000 		.4byte	.LVL166
 5242 02b3 54040000 		.4byte	.LVL168
 5243 02b7 0100     		.2byte	0x1
 5244 02b9 54       		.byte	0x54
 5245 02ba 56040000 		.4byte	.LVL169
 5246 02be 5C040000 		.4byte	.LVL170
 5247 02c2 0100     		.2byte	0x1
 5248 02c4 54       		.byte	0x54
 5249 02c5 D2040000 		.4byte	.LVL173
 5250 02c9 D6040000 		.4byte	.LVL174
 5251 02cd 0200     		.2byte	0x2
 5252 02cf 30       		.byte	0x30
 5253 02d0 9F       		.byte	0x9f
 5254 02d1 D6040000 		.4byte	.LVL174
 5255 02d5 E0040000 		.4byte	.LVL176
 5256 02d9 0100     		.2byte	0x1
 5257 02db 54       		.byte	0x54
 5258 02dc E2040000 		.4byte	.LVL177
 5259 02e0 E8040000 		.4byte	.LVL178
 5260 02e4 0100     		.2byte	0x1
 5261 02e6 54       		.byte	0x54
 5262 02e7 08050000 		.4byte	.LVL179
 5263 02eb 0C050000 		.4byte	.LVL180
 5264 02ef 0200     		.2byte	0x2
 5265 02f1 41       		.byte	0x41
 5266 02f2 9F       		.byte	0x9f
 5267 02f3 0C050000 		.4byte	.LVL180
 5268 02f7 1A050000 		.4byte	.LVL181
 5269 02fb 0100     		.2byte	0x1
 5270 02fd 53       		.byte	0x53
 5271 02fe 1C050000 		.4byte	.LVL182
 5272 0302 22050000 		.4byte	.LVL183
 5273 0306 0100     		.2byte	0x1
 5274 0308 53       		.byte	0x53
 5275 0309 24050000 		.4byte	.LVL184
 5276 030d 32050000 		.4byte	.LVL185
 5277 0311 0100     		.2byte	0x1
 5278 0313 53       		.byte	0x53
ARM GAS  C:\Users\RECEPC~1\AppData\Local\Temp\cctZPkat.s 			page 103


 5279 0314 34050000 		.4byte	.LVL186
 5280 0318 3A050000 		.4byte	.LVL187
 5281 031c 0100     		.2byte	0x1
 5282 031e 53       		.byte	0x53
 5283 031f 3C050000 		.4byte	.LVL188
 5284 0323 4A050000 		.4byte	.LVL189
 5285 0327 0100     		.2byte	0x1
 5286 0329 53       		.byte	0x53
 5287 032a 4C050000 		.4byte	.LVL190
 5288 032e 52050000 		.4byte	.LVL191
 5289 0332 0100     		.2byte	0x1
 5290 0334 53       		.byte	0x53
 5291 0335 54050000 		.4byte	.LVL192
 5292 0339 62050000 		.4byte	.LVL193
 5293 033d 0100     		.2byte	0x1
 5294 033f 53       		.byte	0x53
 5295 0340 64050000 		.4byte	.LVL194
 5296 0344 6A050000 		.4byte	.LVL195
 5297 0348 0100     		.2byte	0x1
 5298 034a 53       		.byte	0x53
 5299 034b 78050000 		.4byte	.LVL197
 5300 034f AC050000 		.4byte	.LVL199
 5301 0353 0200     		.2byte	0x2
 5302 0355 30       		.byte	0x30
 5303 0356 9F       		.byte	0x9f
 5304 0357 AC050000 		.4byte	.LVL199
 5305 035b BC050000 		.4byte	.LVL201
 5306 035f 0100     		.2byte	0x1
 5307 0361 54       		.byte	0x54
 5308 0362 BE050000 		.4byte	.LVL202
 5309 0366 C4050000 		.4byte	.LVL203
 5310 036a 0100     		.2byte	0x1
 5311 036c 54       		.byte	0x54
 5312 036d C6050000 		.4byte	.LVL204
 5313 0371 DA050000 		.4byte	.LVL206
 5314 0375 0100     		.2byte	0x1
 5315 0377 54       		.byte	0x54
 5316 0378 DC050000 		.4byte	.LVL207
 5317 037c E2050000 		.4byte	.LVL208
 5318 0380 0100     		.2byte	0x1
 5319 0382 54       		.byte	0x54
 5320 0383 E4050000 		.4byte	.LVL209
 5321 0387 F8050000 		.4byte	.LVL211
 5322 038b 0100     		.2byte	0x1
 5323 038d 54       		.byte	0x54
 5324 038e FA050000 		.4byte	.LVL212
 5325 0392 00060000 		.4byte	.LVL213
 5326 0396 0100     		.2byte	0x1
 5327 0398 54       		.byte	0x54
 5328 0399 02060000 		.4byte	.LVL214
 5329 039d 16060000 		.4byte	.LVL216
 5330 03a1 0100     		.2byte	0x1
 5331 03a3 54       		.byte	0x54
 5332 03a4 18060000 		.4byte	.LVL217
 5333 03a8 24060000 		.4byte	.LVL219
 5334 03ac 0100     		.2byte	0x1
 5335 03ae 54       		.byte	0x54
ARM GAS  C:\Users\RECEPC~1\AppData\Local\Temp\cctZPkat.s 			page 104


 5336 03af 6E060000 		.4byte	.LVL227
 5337 03b3 72060000 		.4byte	.LVL228
 5338 03b7 0200     		.2byte	0x2
 5339 03b9 30       		.byte	0x30
 5340 03ba 9F       		.byte	0x9f
 5341 03bb 72060000 		.4byte	.LVL228
 5342 03bf 7C060000 		.4byte	.LVL230
 5343 03c3 0100     		.2byte	0x1
 5344 03c5 54       		.byte	0x54
 5345 03c6 7E060000 		.4byte	.LVL231
 5346 03ca 86060000 		.4byte	.LVL232
 5347 03ce 0100     		.2byte	0x1
 5348 03d0 54       		.byte	0x54
 5349 03d1 86060000 		.4byte	.LVL232
 5350 03d5 94060000 		.4byte	.LVL233
 5351 03d9 0100     		.2byte	0x1
 5352 03db 53       		.byte	0x53
 5353 03dc 96060000 		.4byte	.LVL234
 5354 03e0 9A060000 		.4byte	.LVL235
 5355 03e4 0100     		.2byte	0x1
 5356 03e6 53       		.byte	0x53
 5357 03e7 00000000 		.4byte	0
 5358 03eb 00000000 		.4byte	0
 5359              	.LLST7:
 5360 03ef 44000000 		.4byte	.LVL18
 5361 03f3 4A000000 		.4byte	.LVL19
 5362 03f7 0200     		.2byte	0x2
 5363 03f9 30       		.byte	0x30
 5364 03fa 9F       		.byte	0x9f
 5365 03fb 4A000000 		.4byte	.LVL19
 5366 03ff 4E000000 		.4byte	.LVL20
 5367 0403 0200     		.2byte	0x2
 5368 0405 31       		.byte	0x31
 5369 0406 9F       		.byte	0x9f
 5370 0407 4E000000 		.4byte	.LVL20
 5371 040b 52000000 		.4byte	.LVL21
 5372 040f 0200     		.2byte	0x2
 5373 0411 32       		.byte	0x32
 5374 0412 9F       		.byte	0x9f
 5375 0413 52000000 		.4byte	.LVL21
 5376 0417 58000000 		.4byte	.LVL22
 5377 041b 0200     		.2byte	0x2
 5378 041d 33       		.byte	0x33
 5379 041e 9F       		.byte	0x9f
 5380 041f 58000000 		.4byte	.LVL22
 5381 0423 5C000000 		.4byte	.LVL23
 5382 0427 0200     		.2byte	0x2
 5383 0429 34       		.byte	0x34
 5384 042a 9F       		.byte	0x9f
 5385 042b 5C000000 		.4byte	.LVL23
 5386 042f D0000000 		.4byte	.LVL24
 5387 0433 0200     		.2byte	0x2
 5388 0435 35       		.byte	0x35
 5389 0436 9F       		.byte	0x9f
 5390 0437 D0000000 		.4byte	.LVL24
 5391 043b D4000000 		.4byte	.LVL25
 5392 043f 0200     		.2byte	0x2
ARM GAS  C:\Users\RECEPC~1\AppData\Local\Temp\cctZPkat.s 			page 105


 5393 0441 36       		.byte	0x36
 5394 0442 9F       		.byte	0x9f
 5395 0443 D4000000 		.4byte	.LVL25
 5396 0447 DC000000 		.4byte	.LVL26
 5397 044b 0200     		.2byte	0x2
 5398 044d 37       		.byte	0x37
 5399 044e 9F       		.byte	0x9f
 5400 044f DC000000 		.4byte	.LVL26
 5401 0453 E0000000 		.4byte	.LVL28
 5402 0457 0200     		.2byte	0x2
 5403 0459 38       		.byte	0x38
 5404 045a 9F       		.byte	0x9f
 5405 045b E0000000 		.4byte	.LVL28
 5406 045f E2000000 		.4byte	.LVL29
 5407 0463 0200     		.2byte	0x2
 5408 0465 35       		.byte	0x35
 5409 0466 9F       		.byte	0x9f
 5410 0467 E2000000 		.4byte	.LVL29
 5411 046b F4000000 		.4byte	.LVL30
 5412 046f 0100     		.2byte	0x1
 5413 0471 54       		.byte	0x54
 5414 0472 F4000000 		.4byte	.LVL30
 5415 0476 FA000000 		.4byte	.LVL31
 5416 047a 0100     		.2byte	0x1
 5417 047c 53       		.byte	0x53
 5418 047d FA000000 		.4byte	.LVL31
 5419 0481 FC000000 		.4byte	.LVL32
 5420 0485 0300     		.2byte	0x3
 5421 0487 73       		.byte	0x73
 5422 0488 7F       		.sleb128 -1
 5423 0489 9F       		.byte	0x9f
 5424 048a FC000000 		.4byte	.LVL32
 5425 048e 06010000 		.4byte	.LVL33
 5426 0492 0100     		.2byte	0x1
 5427 0494 53       		.byte	0x53
 5428 0495 06010000 		.4byte	.LVL33
 5429 0499 08010000 		.4byte	.LVL34
 5430 049d 0300     		.2byte	0x3
 5431 049f 73       		.byte	0x73
 5432 04a0 7F       		.sleb128 -1
 5433 04a1 9F       		.byte	0x9f
 5434 04a2 08010000 		.4byte	.LVL34
 5435 04a6 1A010000 		.4byte	.LVL35
 5436 04aa 0100     		.2byte	0x1
 5437 04ac 54       		.byte	0x54
 5438 04ad 1A010000 		.4byte	.LVL35
 5439 04b1 20010000 		.4byte	.LVL36
 5440 04b5 0100     		.2byte	0x1
 5441 04b7 53       		.byte	0x53
 5442 04b8 20010000 		.4byte	.LVL36
 5443 04bc 22010000 		.4byte	.LVL37
 5444 04c0 0300     		.2byte	0x3
 5445 04c2 73       		.byte	0x73
 5446 04c3 7F       		.sleb128 -1
 5447 04c4 9F       		.byte	0x9f
 5448 04c5 22010000 		.4byte	.LVL37
 5449 04c9 2C010000 		.4byte	.LVL38
ARM GAS  C:\Users\RECEPC~1\AppData\Local\Temp\cctZPkat.s 			page 106


 5450 04cd 0100     		.2byte	0x1
 5451 04cf 53       		.byte	0x53
 5452 04d0 2C010000 		.4byte	.LVL38
 5453 04d4 2E010000 		.4byte	.LVL39
 5454 04d8 0300     		.2byte	0x3
 5455 04da 73       		.byte	0x73
 5456 04db 7F       		.sleb128 -1
 5457 04dc 9F       		.byte	0x9f
 5458 04dd 2E010000 		.4byte	.LVL39
 5459 04e1 40010000 		.4byte	.LVL40
 5460 04e5 0100     		.2byte	0x1
 5461 04e7 54       		.byte	0x54
 5462 04e8 40010000 		.4byte	.LVL40
 5463 04ec 46010000 		.4byte	.LVL41
 5464 04f0 0100     		.2byte	0x1
 5465 04f2 53       		.byte	0x53
 5466 04f3 46010000 		.4byte	.LVL41
 5467 04f7 48010000 		.4byte	.LVL42
 5468 04fb 0300     		.2byte	0x3
 5469 04fd 73       		.byte	0x73
 5470 04fe 7F       		.sleb128 -1
 5471 04ff 9F       		.byte	0x9f
 5472 0500 48010000 		.4byte	.LVL42
 5473 0504 52010000 		.4byte	.LVL43
 5474 0508 0100     		.2byte	0x1
 5475 050a 53       		.byte	0x53
 5476 050b 52010000 		.4byte	.LVL43
 5477 050f 54010000 		.4byte	.LVL44
 5478 0513 0300     		.2byte	0x3
 5479 0515 73       		.byte	0x73
 5480 0516 7F       		.sleb128 -1
 5481 0517 9F       		.byte	0x9f
 5482 0518 54010000 		.4byte	.LVL44
 5483 051c 64010000 		.4byte	.LVL46
 5484 0520 0100     		.2byte	0x1
 5485 0522 54       		.byte	0x54
 5486 0523 64010000 		.4byte	.LVL46
 5487 0527 7A010000 		.4byte	.LVL51
 5488 052b 0100     		.2byte	0x1
 5489 052d 55       		.byte	0x55
 5490 052e 7A010000 		.4byte	.LVL51
 5491 0532 8A010000 		.4byte	.LVL52
 5492 0536 0200     		.2byte	0x2
 5493 0538 35       		.byte	0x35
 5494 0539 9F       		.byte	0x9f
 5495 053a 8A010000 		.4byte	.LVL52
 5496 053e 8E010000 		.4byte	.LVL53
 5497 0542 0200     		.2byte	0x2
 5498 0544 36       		.byte	0x36
 5499 0545 9F       		.byte	0x9f
 5500 0546 8E010000 		.4byte	.LVL53
 5501 054a 96010000 		.4byte	.LVL54
 5502 054e 0200     		.2byte	0x2
 5503 0550 37       		.byte	0x37
 5504 0551 9F       		.byte	0x9f
 5505 0552 96010000 		.4byte	.LVL54
 5506 0556 9A010000 		.4byte	.LVL55
ARM GAS  C:\Users\RECEPC~1\AppData\Local\Temp\cctZPkat.s 			page 107


 5507 055a 0200     		.2byte	0x2
 5508 055c 38       		.byte	0x38
 5509 055d 9F       		.byte	0x9f
 5510 055e 9A010000 		.4byte	.LVL55
 5511 0562 9E010000 		.4byte	.LVL56
 5512 0566 0200     		.2byte	0x2
 5513 0568 39       		.byte	0x39
 5514 0569 9F       		.byte	0x9f
 5515 056a 9E010000 		.4byte	.LVL56
 5516 056e AE010000 		.4byte	.LVL58
 5517 0572 0200     		.2byte	0x2
 5518 0574 3A       		.byte	0x3a
 5519 0575 9F       		.byte	0x9f
 5520 0576 AE010000 		.4byte	.LVL58
 5521 057a BA010000 		.4byte	.LVL59
 5522 057e 0100     		.2byte	0x1
 5523 0580 54       		.byte	0x54
 5524 0581 BC010000 		.4byte	.LVL60
 5525 0585 C2010000 		.4byte	.LVL63
 5526 0589 0100     		.2byte	0x1
 5527 058b 54       		.byte	0x54
 5528 058c C2010000 		.4byte	.LVL63
 5529 0590 C6010000 		.4byte	.LVL65
 5530 0594 0200     		.2byte	0x2
 5531 0596 3A       		.byte	0x3a
 5532 0597 9F       		.byte	0x9f
 5533 0598 C6010000 		.4byte	.LVL65
 5534 059c D4010000 		.4byte	.LVL66
 5535 05a0 0100     		.2byte	0x1
 5536 05a2 54       		.byte	0x54
 5537 05a3 D6010000 		.4byte	.LVL67
 5538 05a7 EE010000 		.4byte	.LVL72
 5539 05ab 0100     		.2byte	0x1
 5540 05ad 54       		.byte	0x54
 5541 05ae F0010000 		.4byte	.LVL73
 5542 05b2 02020000 		.4byte	.LVL76
 5543 05b6 0100     		.2byte	0x1
 5544 05b8 54       		.byte	0x54
 5545 05b9 04020000 		.4byte	.LVL77
 5546 05bd 0E020000 		.4byte	.LVL80
 5547 05c1 0100     		.2byte	0x1
 5548 05c3 54       		.byte	0x54
 5549 05c4 0E020000 		.4byte	.LVL80
 5550 05c8 10020000 		.4byte	.LVL81
 5551 05cc 0200     		.2byte	0x2
 5552 05ce 35       		.byte	0x35
 5553 05cf 9F       		.byte	0x9f
 5554 05d0 10020000 		.4byte	.LVL81
 5555 05d4 22020000 		.4byte	.LVL82
 5556 05d8 0100     		.2byte	0x1
 5557 05da 54       		.byte	0x54
 5558 05db 22020000 		.4byte	.LVL82
 5559 05df 28020000 		.4byte	.LVL83
 5560 05e3 0100     		.2byte	0x1
 5561 05e5 53       		.byte	0x53
 5562 05e6 28020000 		.4byte	.LVL83
 5563 05ea 2A020000 		.4byte	.LVL84
ARM GAS  C:\Users\RECEPC~1\AppData\Local\Temp\cctZPkat.s 			page 108


 5564 05ee 0300     		.2byte	0x3
 5565 05f0 73       		.byte	0x73
 5566 05f1 7F       		.sleb128 -1
 5567 05f2 9F       		.byte	0x9f
 5568 05f3 2A020000 		.4byte	.LVL84
 5569 05f7 34020000 		.4byte	.LVL85
 5570 05fb 0100     		.2byte	0x1
 5571 05fd 53       		.byte	0x53
 5572 05fe 34020000 		.4byte	.LVL85
 5573 0602 36020000 		.4byte	.LVL86
 5574 0606 0300     		.2byte	0x3
 5575 0608 73       		.byte	0x73
 5576 0609 7F       		.sleb128 -1
 5577 060a 9F       		.byte	0x9f
 5578 060b 36020000 		.4byte	.LVL86
 5579 060f 3C020000 		.4byte	.LVL87
 5580 0613 0100     		.2byte	0x1
 5581 0615 53       		.byte	0x53
 5582 0616 3C020000 		.4byte	.LVL87
 5583 061a 3E020000 		.4byte	.LVL88
 5584 061e 0300     		.2byte	0x3
 5585 0620 73       		.byte	0x73
 5586 0621 7F       		.sleb128 -1
 5587 0622 9F       		.byte	0x9f
 5588 0623 3E020000 		.4byte	.LVL88
 5589 0627 44020000 		.4byte	.LVL89
 5590 062b 0100     		.2byte	0x1
 5591 062d 53       		.byte	0x53
 5592 062e 44020000 		.4byte	.LVL89
 5593 0632 46020000 		.4byte	.LVL90
 5594 0636 0300     		.2byte	0x3
 5595 0638 73       		.byte	0x73
 5596 0639 7F       		.sleb128 -1
 5597 063a 9F       		.byte	0x9f
 5598 063b 46020000 		.4byte	.LVL90
 5599 063f 62020000 		.4byte	.LVL92
 5600 0643 0100     		.2byte	0x1
 5601 0645 54       		.byte	0x54
 5602 0646 64020000 		.4byte	.LVL93
 5603 064a 7A020000 		.4byte	.LVL98
 5604 064e 0100     		.2byte	0x1
 5605 0650 54       		.byte	0x54
 5606 0651 7C020000 		.4byte	.LVL99
 5607 0655 96020000 		.4byte	.LVL104
 5608 0659 0100     		.2byte	0x1
 5609 065b 54       		.byte	0x54
 5610 065c 98020000 		.4byte	.LVL105
 5611 0660 CC020000 		.4byte	.LVL108
 5612 0664 0100     		.2byte	0x1
 5613 0666 54       		.byte	0x54
 5614 0667 CE020000 		.4byte	.LVL109
 5615 066b E6020000 		.4byte	.LVL114
 5616 066f 0100     		.2byte	0x1
 5617 0671 54       		.byte	0x54
 5618 0672 E6020000 		.4byte	.LVL114
 5619 0676 FC020000 		.4byte	.LVL119
 5620 067a 0100     		.2byte	0x1
ARM GAS  C:\Users\RECEPC~1\AppData\Local\Temp\cctZPkat.s 			page 109


 5621 067c 55       		.byte	0x55
 5622 067d FC020000 		.4byte	.LVL119
 5623 0681 3E030000 		.4byte	.LVL127
 5624 0685 0200     		.2byte	0x2
 5625 0687 35       		.byte	0x35
 5626 0688 9F       		.byte	0x9f
 5627 0689 3E030000 		.4byte	.LVL127
 5628 068d 42030000 		.4byte	.LVL128
 5629 0691 0200     		.2byte	0x2
 5630 0693 36       		.byte	0x36
 5631 0694 9F       		.byte	0x9f
 5632 0695 42030000 		.4byte	.LVL128
 5633 0699 46030000 		.4byte	.LVL129
 5634 069d 0200     		.2byte	0x2
 5635 069f 37       		.byte	0x37
 5636 06a0 9F       		.byte	0x9f
 5637 06a1 46030000 		.4byte	.LVL129
 5638 06a5 48030000 		.4byte	.LVL130
 5639 06a9 0200     		.2byte	0x2
 5640 06ab 38       		.byte	0x38
 5641 06ac 9F       		.byte	0x9f
 5642 06ad 48030000 		.4byte	.LVL130
 5643 06b1 8A030000 		.4byte	.LVL137
 5644 06b5 0100     		.2byte	0x1
 5645 06b7 54       		.byte	0x54
 5646 06b8 8A030000 		.4byte	.LVL137
 5647 06bc 90030000 		.4byte	.LVL138
 5648 06c0 0100     		.2byte	0x1
 5649 06c2 53       		.byte	0x53
 5650 06c3 90030000 		.4byte	.LVL138
 5651 06c7 92030000 		.4byte	.LVL139
 5652 06cb 0300     		.2byte	0x3
 5653 06cd 73       		.byte	0x73
 5654 06ce 7F       		.sleb128 -1
 5655 06cf 9F       		.byte	0x9f
 5656 06d0 92030000 		.4byte	.LVL139
 5657 06d4 98030000 		.4byte	.LVL140
 5658 06d8 0100     		.2byte	0x1
 5659 06da 53       		.byte	0x53
 5660 06db 98030000 		.4byte	.LVL140
 5661 06df 9A030000 		.4byte	.LVL141
 5662 06e3 0300     		.2byte	0x3
 5663 06e5 73       		.byte	0x73
 5664 06e6 7F       		.sleb128 -1
 5665 06e7 9F       		.byte	0x9f
 5666 06e8 9A030000 		.4byte	.LVL141
 5667 06ec DC030000 		.4byte	.LVL148
 5668 06f0 0100     		.2byte	0x1
 5669 06f2 54       		.byte	0x54
 5670 06f3 DC030000 		.4byte	.LVL148
 5671 06f7 E2030000 		.4byte	.LVL149
 5672 06fb 0100     		.2byte	0x1
 5673 06fd 53       		.byte	0x53
 5674 06fe E2030000 		.4byte	.LVL149
 5675 0702 E4030000 		.4byte	.LVL150
 5676 0706 0300     		.2byte	0x3
 5677 0708 73       		.byte	0x73
ARM GAS  C:\Users\RECEPC~1\AppData\Local\Temp\cctZPkat.s 			page 110


 5678 0709 7F       		.sleb128 -1
 5679 070a 9F       		.byte	0x9f
 5680 070b E4030000 		.4byte	.LVL150
 5681 070f EA030000 		.4byte	.LVL151
 5682 0713 0100     		.2byte	0x1
 5683 0715 53       		.byte	0x53
 5684 0716 EA030000 		.4byte	.LVL151
 5685 071a EC030000 		.4byte	.LVL152
 5686 071e 0300     		.2byte	0x3
 5687 0720 73       		.byte	0x73
 5688 0721 7F       		.sleb128 -1
 5689 0722 9F       		.byte	0x9f
 5690 0723 EC030000 		.4byte	.LVL152
 5691 0727 26040000 		.4byte	.LVL159
 5692 072b 0100     		.2byte	0x1
 5693 072d 54       		.byte	0x54
 5694 072e 26040000 		.4byte	.LVL159
 5695 0732 2C040000 		.4byte	.LVL160
 5696 0736 0100     		.2byte	0x1
 5697 0738 53       		.byte	0x53
 5698 0739 2C040000 		.4byte	.LVL160
 5699 073d 2E040000 		.4byte	.LVL161
 5700 0741 0300     		.2byte	0x3
 5701 0743 73       		.byte	0x73
 5702 0744 7F       		.sleb128 -1
 5703 0745 9F       		.byte	0x9f
 5704 0746 2E040000 		.4byte	.LVL161
 5705 074a 34040000 		.4byte	.LVL162
 5706 074e 0100     		.2byte	0x1
 5707 0750 53       		.byte	0x53
 5708 0751 34040000 		.4byte	.LVL162
 5709 0755 36040000 		.4byte	.LVL163
 5710 0759 0300     		.2byte	0x3
 5711 075b 73       		.byte	0x73
 5712 075c 7F       		.sleb128 -1
 5713 075d 9F       		.byte	0x9f
 5714 075e 36040000 		.4byte	.LVL163
 5715 0762 46040000 		.4byte	.LVL165
 5716 0766 0100     		.2byte	0x1
 5717 0768 54       		.byte	0x54
 5718 0769 46040000 		.4byte	.LVL165
 5719 076d 5C040000 		.4byte	.LVL170
 5720 0771 0100     		.2byte	0x1
 5721 0773 55       		.byte	0x55
 5722 0774 5C040000 		.4byte	.LVL170
 5723 0778 9A060000 		.4byte	.LVL235
 5724 077c 0200     		.2byte	0x2
 5725 077e 35       		.byte	0x35
 5726 077f 9F       		.byte	0x9f
 5727 0780 00000000 		.4byte	0
 5728 0784 00000000 		.4byte	0
 5729              	.LLST8:
 5730 0788 4C000000 		.4byte	.LVL238
 5731 078c 50000000 		.4byte	.LVL239
 5732 0790 0200     		.2byte	0x2
 5733 0792 30       		.byte	0x30
 5734 0793 9F       		.byte	0x9f
ARM GAS  C:\Users\RECEPC~1\AppData\Local\Temp\cctZPkat.s 			page 111


 5735 0794 50000000 		.4byte	.LVL239
 5736 0798 5A000000 		.4byte	.LVL241
 5737 079c 0100     		.2byte	0x1
 5738 079e 54       		.byte	0x54
 5739 079f 5C000000 		.4byte	.LVL242
 5740 07a3 60000000 		.4byte	.LVL243
 5741 07a7 0100     		.2byte	0x1
 5742 07a9 54       		.byte	0x54
 5743 07aa 9C000000 		.4byte	.LVL245
 5744 07ae A0000000 		.4byte	.LVL246
 5745 07b2 0200     		.2byte	0x2
 5746 07b4 30       		.byte	0x30
 5747 07b5 9F       		.byte	0x9f
 5748 07b6 A0000000 		.4byte	.LVL246
 5749 07ba AA000000 		.4byte	.LVL248
 5750 07be 0100     		.2byte	0x1
 5751 07c0 54       		.byte	0x54
 5752 07c1 AC000000 		.4byte	.LVL249
 5753 07c5 B0000000 		.4byte	.LVL250
 5754 07c9 0100     		.2byte	0x1
 5755 07cb 54       		.byte	0x54
 5756 07cc EA000000 		.4byte	.LVL252
 5757 07d0 EE000000 		.4byte	.LVL253
 5758 07d4 0200     		.2byte	0x2
 5759 07d6 30       		.byte	0x30
 5760 07d7 9F       		.byte	0x9f
 5761 07d8 EE000000 		.4byte	.LVL253
 5762 07dc F8000000 		.4byte	.LVL255
 5763 07e0 0100     		.2byte	0x1
 5764 07e2 54       		.byte	0x54
 5765 07e3 FA000000 		.4byte	.LVL256
 5766 07e7 FE000000 		.4byte	.LVL257
 5767 07eb 0100     		.2byte	0x1
 5768 07ed 54       		.byte	0x54
 5769 07ee 3A010000 		.4byte	.LVL259
 5770 07f2 3E010000 		.4byte	.LVL260
 5771 07f6 0200     		.2byte	0x2
 5772 07f8 30       		.byte	0x30
 5773 07f9 9F       		.byte	0x9f
 5774 07fa 3E010000 		.4byte	.LVL260
 5775 07fe 48010000 		.4byte	.LVL262
 5776 0802 0100     		.2byte	0x1
 5777 0804 54       		.byte	0x54
 5778 0805 4A010000 		.4byte	.LVL263
 5779 0809 4E010000 		.4byte	.LVL264
 5780 080d 0100     		.2byte	0x1
 5781 080f 54       		.byte	0x54
 5782 0810 A6010000 		.4byte	.LVL265
 5783 0814 AA010000 		.4byte	.LVL266
 5784 0818 0100     		.2byte	0x1
 5785 081a 50       		.byte	0x50
 5786 081b AA010000 		.4byte	.LVL266
 5787 081f BA010000 		.4byte	.LVL267
 5788 0823 0100     		.2byte	0x1
 5789 0825 54       		.byte	0x54
 5790 0826 BC010000 		.4byte	.LVL268
 5791 082a C4010000 		.4byte	.LVL269
ARM GAS  C:\Users\RECEPC~1\AppData\Local\Temp\cctZPkat.s 			page 112


 5792 082e 0100     		.2byte	0x1
 5793 0830 54       		.byte	0x54
 5794 0831 C4010000 		.4byte	.LVL269
 5795 0835 D2010000 		.4byte	.LVL270
 5796 0839 0100     		.2byte	0x1
 5797 083b 53       		.byte	0x53
 5798 083c D4010000 		.4byte	.LVL271
 5799 0840 DA010000 		.4byte	.LVL272
 5800 0844 0100     		.2byte	0x1
 5801 0846 53       		.byte	0x53
 5802 0847 DC010000 		.4byte	.LVL273
 5803 084b EA010000 		.4byte	.LVL274
 5804 084f 0100     		.2byte	0x1
 5805 0851 53       		.byte	0x53
 5806 0852 EC010000 		.4byte	.LVL275
 5807 0856 F4010000 		.4byte	.LVL276
 5808 085a 0100     		.2byte	0x1
 5809 085c 53       		.byte	0x53
 5810 085d 02020000 		.4byte	.LVL277
 5811 0861 0E020000 		.4byte	.LVL278
 5812 0865 0100     		.2byte	0x1
 5813 0867 53       		.byte	0x53
 5814 0868 10020000 		.4byte	.LVL279
 5815 086c 12020000 		.4byte	.LVL280
 5816 0870 0100     		.2byte	0x1
 5817 0872 53       		.byte	0x53
 5818 0873 14020000 		.4byte	.LVL281
 5819 0877 20020000 		.4byte	.LVL282
 5820 087b 0100     		.2byte	0x1
 5821 087d 53       		.byte	0x53
 5822 087e 2E020000 		.4byte	.LVL283
 5823 0882 34020000 		.4byte	.LVL284
 5824 0886 0100     		.2byte	0x1
 5825 0888 53       		.byte	0x53
 5826 0889 36020000 		.4byte	.LVL285
 5827 088d 3E020000 		.4byte	.LVL286
 5828 0891 0100     		.2byte	0x1
 5829 0893 53       		.byte	0x53
 5830 0894 40020000 		.4byte	.LVL287
 5831 0898 4D020000 		.4byte	.LVL288-1
 5832 089c 0100     		.2byte	0x1
 5833 089e 53       		.byte	0x53
 5834 089f 52020000 		.4byte	.LVL289
 5835 08a3 54020000 		.4byte	.LVL290
 5836 08a7 0200     		.2byte	0x2
 5837 08a9 30       		.byte	0x30
 5838 08aa 9F       		.byte	0x9f
 5839 08ab 54020000 		.4byte	.LVL290
 5840 08af 5E020000 		.4byte	.LVL292
 5841 08b3 0100     		.2byte	0x1
 5842 08b5 54       		.byte	0x54
 5843 08b6 60020000 		.4byte	.LVL293
 5844 08ba 6C020000 		.4byte	.LVL294
 5845 08be 0100     		.2byte	0x1
 5846 08c0 54       		.byte	0x54
 5847 08c1 BA020000 		.4byte	.LVL295
 5848 08c5 DC020000 		.4byte	.LVL296
ARM GAS  C:\Users\RECEPC~1\AppData\Local\Temp\cctZPkat.s 			page 113


 5849 08c9 0200     		.2byte	0x2
 5850 08cb 31       		.byte	0x31
 5851 08cc 9F       		.byte	0x9f
 5852 08cd DC020000 		.4byte	.LVL296
 5853 08d1 EE020000 		.4byte	.LVL297
 5854 08d5 0100     		.2byte	0x1
 5855 08d7 53       		.byte	0x53
 5856 08d8 F0020000 		.4byte	.LVL298
 5857 08dc FC020000 		.4byte	.LVL299
 5858 08e0 0100     		.2byte	0x1
 5859 08e2 53       		.byte	0x53
 5860 08e3 2A030000 		.4byte	.LVL300
 5861 08e7 3C030000 		.4byte	.LVL301
 5862 08eb 0100     		.2byte	0x1
 5863 08ed 53       		.byte	0x53
 5864 08ee 3E030000 		.4byte	.LVL302
 5865 08f2 4A030000 		.4byte	.LVL303
 5866 08f6 0100     		.2byte	0x1
 5867 08f8 53       		.byte	0x53
 5868 08f9 78030000 		.4byte	.LVL304
 5869 08fd 8A030000 		.4byte	.LVL305
 5870 0901 0100     		.2byte	0x1
 5871 0903 53       		.byte	0x53
 5872 0904 8C030000 		.4byte	.LVL306
 5873 0908 9F030000 		.4byte	.LVL307-1
 5874 090c 0100     		.2byte	0x1
 5875 090e 53       		.byte	0x53
 5876 090f A2030000 		.4byte	.LVL308
 5877 0913 A6030000 		.4byte	.LVL309
 5878 0917 0200     		.2byte	0x2
 5879 0919 30       		.byte	0x30
 5880 091a 9F       		.byte	0x9f
 5881 091b A6030000 		.4byte	.LVL309
 5882 091f B0030000 		.4byte	.LVL311
 5883 0923 0100     		.2byte	0x1
 5884 0925 54       		.byte	0x54
 5885 0926 B2030000 		.4byte	.LVL312
 5886 092a BE030000 		.4byte	.LVL313
 5887 092e 0100     		.2byte	0x1
 5888 0930 54       		.byte	0x54
 5889 0931 00000000 		.4byte	0
 5890 0935 00000000 		.4byte	0
 5891              		.section	.debug_aranges,"",%progbits
 5892 0000 2C000000 		.4byte	0x2c
 5893 0004 0200     		.2byte	0x2
 5894 0006 00000000 		.4byte	.Ldebug_info0
 5895 000a 04       		.byte	0x4
 5896 000b 00       		.byte	0
 5897 000c 0000     		.2byte	0
 5898 000e 0000     		.2byte	0
 5899 0010 00000000 		.4byte	.LFB63
 5900 0014 34000000 		.4byte	.LFE63-.LFB63
 5901 0018 00000000 		.4byte	.LFB64
 5902 001c D4060000 		.4byte	.LFE64-.LFB64
 5903 0020 00000000 		.4byte	.LFB65
 5904 0024 2C040000 		.4byte	.LFE65-.LFB65
 5905 0028 00000000 		.4byte	0
ARM GAS  C:\Users\RECEPC~1\AppData\Local\Temp\cctZPkat.s 			page 114


 5906 002c 00000000 		.4byte	0
 5907              		.section	.debug_ranges,"",%progbits
 5908              	.Ldebug_ranges0:
 5909 0000 00000000 		.4byte	.LFB63
 5910 0004 34000000 		.4byte	.LFE63
 5911 0008 00000000 		.4byte	.LFB64
 5912 000c D4060000 		.4byte	.LFE64
 5913 0010 00000000 		.4byte	.LFB65
 5914 0014 2C040000 		.4byte	.LFE65
 5915 0018 00000000 		.4byte	0
 5916 001c 00000000 		.4byte	0
 5917              		.section	.debug_line,"",%progbits
 5918              	.Ldebug_line0:
 5919 0000 E8050000 		.section	.debug_str,"MS",%progbits,1
 5919      0200B001 
 5919      00000201 
 5919      FB0E0D00 
 5919      01010101 
 5920              	.LASF185:
 5921 0000 52465F43 		.ascii	"RF_Connection_ReadRxData\000"
 5921      6F6E6E65 
 5921      6374696F 
 5921      6E5F5265 
 5921      61645278 
 5922              	.LASF183:
 5923 0019 43794465 		.ascii	"CyDelay\000"
 5923      6C617900 
 5924              	.LASF186:
 5925 0021 52465F43 		.ascii	"RF_Connection_PutChar\000"
 5925      6F6E6E65 
 5925      6374696F 
 5925      6E5F5075 
 5925      74436861 
 5926              	.LASF102:
 5927 0037 706F6C6C 		.ascii	"pollingRF_Rx\000"
 5927      696E6752 
 5927      465F5278 
 5927      00
 5928              	.LASF159:
 5929 0044 636F756E 		.ascii	"count_protector2\000"
 5929      745F7072 
 5929      6F746563 
 5929      746F7232 
 5929      00
 5930              	.LASF124:
 5931 0055 64656369 		.ascii	"decimalVolume\000"
 5931      6D616C56 
 5931      6F6C756D 
 5931      6500
 5932              	.LASF135:
 5933 0063 50726576 		.ascii	"PrevStatePump\000"
 5933      53746174 
 5933      6550756D 
 5933      7000
 5934              	.LASF175:
 5935 0071 47726164 		.ascii	"GradesHose\000"
 5935      6573486F 
ARM GAS  C:\Users\RECEPC~1\AppData\Local\Temp\cctZPkat.s 			page 115


 5935      736500
 5936              	.LASF107:
 5937 007c 636F756E 		.ascii	"countRX\000"
 5937      74525800 
 5938              	.LASF176:
 5939 0084 52467374 		.ascii	"RFstateReport\000"
 5939      61746552 
 5939      65706F72 
 5939      7400
 5940              	.LASF54:
 5941 0092 766F6C75 		.ascii	"volumeQuota\000"
 5941      6D655175 
 5941      6F746100 
 5942              	.LASF149:
 5943 009e 73746174 		.ascii	"statePump\000"
 5943      6550756D 
 5943      7000
 5944              	.LASF63:
 5945 00a8 62756666 		.ascii	"buffer\000"
 5945      657200
 5946              	.LASF166:
 5947 00af 62756666 		.ascii	"buffer_rf\000"
 5947      65725F72 
 5947      6600
 5948              	.LASF123:
 5949 00b9 64656369 		.ascii	"decimalMoney\000"
 5949      6D616C4D 
 5949      6F6E6579 
 5949      00
 5950              	.LASF33:
 5951 00c6 73616C65 		.ascii	"salePerform\000"
 5951      50657266 
 5951      6F726D00 
 5952              	.LASF8:
 5953 00d2 756E7369 		.ascii	"unsigned int\000"
 5953      676E6564 
 5953      20696E74 
 5953      00
 5954              	.LASF154:
 5955 00df 5072696E 		.ascii	"PrinterType\000"
 5955      74657254 
 5955      79706500 
 5956              	.LASF9:
 5957 00eb 5F5F696E 		.ascii	"__int32_t\000"
 5957      7433325F 
 5957      7400
 5958              	.LASF51:
 5959 00f5 666C6167 		.ascii	"flagLiftHandle\000"
 5959      4C696674 
 5959      48616E64 
 5959      6C6500
 5960              	.LASF78:
 5961 0104 50554D50 		.ascii	"PUMP_FAIL\000"
 5961      5F464149 
 5961      4C00
 5962              	.LASF129:
 5963 010e 72657369 		.ascii	"residue\000"
ARM GAS  C:\Users\RECEPC~1\AppData\Local\Temp\cctZPkat.s 			page 116


 5963      64756500 
 5964              	.LASF141:
 5965 0116 74656D70 		.ascii	"tempPreset\000"
 5965      50726573 
 5965      657400
 5966              	.LASF21:
 5967 0121 69645479 		.ascii	"idType\000"
 5967      706500
 5968              	.LASF148:
 5969 0128 44444D6F 		.ascii	"DDMode\000"
 5969      646500
 5970              	.LASF181:
 5971 012f 73696465 		.ascii	"side\000"
 5971      00
 5972              	.LASF162:
 5973 0134 69645374 		.ascii	"idStation\000"
 5973      6174696F 
 5973      6E00
 5974              	.LASF25:
 5975 013e 73656C65 		.ascii	"selectedSale\000"
 5975      63746564 
 5975      53616C65 
 5975      00
 5976              	.LASF118:
 5977 014b 666C6167 		.ascii	"flagPoint2\000"
 5977      506F696E 
 5977      743200
 5978              	.LASF108:
 5979 0156 636F756E 		.ascii	"countTX\000"
 5979      74545800 
 5980              	.LASF76:
 5981 015e 6368616E 		.ascii	"changePPU\000"
 5981      67655050 
 5981      5500
 5982              	.LASF128:
 5983 0168 73637265 		.ascii	"screen\000"
 5983      656E00
 5984              	.LASF161:
 5985 016f 636F6E74 		.ascii	"controlChar\000"
 5985      726F6C43 
 5985      68617200 
 5986              	.LASF139:
 5987 017b 636F756E 		.ascii	"counterRF\000"
 5987      74657252 
 5987      4600
 5988              	.LASF136:
 5989 0185 506C6174 		.ascii	"PlateRequest\000"
 5989      65526571 
 5989      75657374 
 5989      00
 5990              	.LASF167:
 5991 0192 62756666 		.ascii	"buffer_tx\000"
 5991      65725F74 
 5991      7800
 5992              	.LASF79:
 5993 019c 50554D50 		.ascii	"PUMP_IDLE\000"
 5993      5F49444C 
ARM GAS  C:\Users\RECEPC~1\AppData\Local\Temp\cctZPkat.s 			page 117


 5993      4500
 5994              	.LASF14:
 5995 01a6 666C6F61 		.ascii	"float\000"
 5995      7400
 5996              	.LASF99:
 5997 01ac 63686563 		.ascii	"checksum\000"
 5997      6B73756D 
 5997      00
 5998              	.LASF142:
 5999 01b5 43477261 		.ascii	"CGrade\000"
 5999      646500
 6000              	.LASF100:
 6001 01bc 696E6465 		.ascii	"index\000"
 6001      7800
 6002              	.LASF188:
 6003 01c2 77726974 		.ascii	"write_fecha\000"
 6003      655F6665 
 6003      63686100 
 6004              	.LASF145:
 6005 01ce 4D6F6E65 		.ascii	"MoneyDec\000"
 6005      79446563 
 6005      00
 6006              	.LASF72:
 6007 01d7 686F7365 		.ascii	"hose\000"
 6007      00
 6008              	.LASF191:
 6009 01dc 696D7072 		.ascii	"imprimir\000"
 6009      696D6972 
 6009      00
 6010              	.LASF179:
 6011 01e5 62756666 		.ascii	"bufferDisplay3\000"
 6011      65724469 
 6011      73706C61 
 6011      793300
 6012              	.LASF7:
 6013 01f4 6C6F6E67 		.ascii	"long long unsigned int\000"
 6013      206C6F6E 
 6013      6720756E 
 6013      7369676E 
 6013      65642069 
 6014              	.LASF92:
 6015 020b 52465F57 		.ascii	"RF_WORKSHIFTREQ\000"
 6015      4F524B53 
 6015      48494654 
 6015      52455100 
 6016              	.LASF84:
 6017 021b 50554D50 		.ascii	"PUMP_FEOT\000"
 6017      5F46454F 
 6017      5400
 6018              	.LASF41:
 6019 0225 746F7461 		.ascii	"totalVolumePrevious\000"
 6019      6C566F6C 
 6019      756D6550 
 6019      72657669 
 6019      6F757300 
 6020              	.LASF160:
 6021 0239 636F6E66 		.ascii	"configAccess\000"
ARM GAS  C:\Users\RECEPC~1\AppData\Local\Temp\cctZPkat.s 			page 118


 6021      69674163 
 6021      63657373 
 6021      00
 6022              	.LASF152:
 6023 0246 64696769 		.ascii	"digits\000"
 6023      747300
 6024              	.LASF103:
 6025 024d 706F6C6C 		.ascii	"pollingRF_Tx\000"
 6025      696E6752 
 6025      465F5478 
 6025      00
 6026              	.LASF86:
 6027 025a 5F50554D 		.ascii	"_PUMP_STATES_\000"
 6027      505F5354 
 6027      41544553 
 6027      5F00
 6028              	.LASF126:
 6029 0268 74696D65 		.ascii	"time\000"
 6029      00
 6030              	.LASF184:
 6031 026d 52465F43 		.ascii	"RF_Connection_GetRxBufferSize\000"
 6031      6F6E6E65 
 6031      6374696F 
 6031      6E5F4765 
 6031      74527842 
 6032              	.LASF164:
 6033 028b 7072696E 		.ascii	"printPortA\000"
 6033      74506F72 
 6033      744100
 6034              	.LASF165:
 6035 0296 7072696E 		.ascii	"printPortB\000"
 6035      74506F72 
 6035      744200
 6036              	.LASF36:
 6037 02a1 70726F64 		.ascii	"productType\000"
 6037      75637454 
 6037      79706500 
 6038              	.LASF119:
 6039 02ad 70726F64 		.ascii	"productNumber\000"
 6039      7563744E 
 6039      756D6265 
 6039      7200
 6040              	.LASF130:
 6041 02bb 69645365 		.ascii	"idSeller\000"
 6041      6C6C6572 
 6041      00
 6042              	.LASF22:
 6043 02c4 69645365 		.ascii	"idSerial\000"
 6043      7269616C 
 6043      00
 6044              	.LASF151:
 6045 02cd 6C6F636B 		.ascii	"lockTurn\000"
 6045      5475726E 
 6045      00
 6046              	.LASF110:
 6047 02d6 636F756E 		.ascii	"countLCD\000"
 6047      744C4344 
ARM GAS  C:\Users\RECEPC~1\AppData\Local\Temp\cctZPkat.s 			page 119


 6047      00
 6048              	.LASF87:
 6049 02df 5F52465F 		.ascii	"_RF_STATES_\000"
 6049      53544154 
 6049      45535F00 
 6050              	.LASF47:
 6051 02eb 6D696C65 		.ascii	"mileageSale\000"
 6051      61676553 
 6051      616C6500 
 6052              	.LASF58:
 6053 02f7 666C6167 		.ascii	"flagChangePPU\000"
 6053      4368616E 
 6053      67655050 
 6053      5500
 6054              	.LASF60:
 6055 0305 666C6167 		.ascii	"flagActiveSale\000"
 6055      41637469 
 6055      76655361 
 6055      6C6500
 6056              	.LASF111:
 6057 0314 666C6F77 		.ascii	"flowDisplay1\000"
 6057      44697370 
 6057      6C617931 
 6057      00
 6058              	.LASF112:
 6059 0321 666C6F77 		.ascii	"flowDisplay2\000"
 6059      44697370 
 6059      6C617932 
 6059      00
 6060              	.LASF113:
 6061 032e 666C6F77 		.ascii	"flowDisplay3\000"
 6061      44697370 
 6061      6C617933 
 6061      00
 6062              	.LASF114:
 6063 033b 666C6F77 		.ascii	"flowDisplay4\000"
 6063      44697370 
 6063      6C617934 
 6063      00
 6064              	.LASF65:
 6065 0348 746F7461 		.ascii	"totalsHandle\000"
 6065      6C734861 
 6065      6E646C65 
 6065      00
 6066              	.LASF35:
 6067 0355 70726573 		.ascii	"presetValue\000"
 6067      65745661 
 6067      6C756500 
 6068              	.LASF190:
 6069 0361 45455052 		.ascii	"EEPROM_1_ReadByte\000"
 6069      4F4D5F31 
 6069      5F526561 
 6069      64427974 
 6069      6500
 6070              	.LASF48:
 6071 0373 6964656E 		.ascii	"identySale\000"
 6071      74795361 
ARM GAS  C:\Users\RECEPC~1\AppData\Local\Temp\cctZPkat.s 			page 120


 6071      6C6500
 6072              	.LASF32:
 6073 037e 73616C65 		.ascii	"saleType\000"
 6073      54797065 
 6073      00
 6074              	.LASF82:
 6075 0387 50554D50 		.ascii	"PUMP_BUSY\000"
 6075      5F425553 
 6075      5900
 6076              	.LASF30:
 6077 0391 76616C75 		.ascii	"valueKeys\000"
 6077      654B6579 
 6077      7300
 6078              	.LASF18:
 6079 039b 63686172 		.ascii	"char\000"
 6079      00
 6080              	.LASF144:
 6081 03a0 436F6E76 		.ascii	"ConversionFactor\000"
 6081      65727369 
 6081      6F6E4661 
 6081      63746F72 
 6081      00
 6082              	.LASF85:
 6083 03b1 50554D50 		.ascii	"PUMP_STOPPED\000"
 6083      5F53544F 
 6083      50504544 
 6083      00
 6084              	.LASF115:
 6085 03be 6E756D62 		.ascii	"numberKeys1\000"
 6085      65724B65 
 6085      79733100 
 6086              	.LASF116:
 6087 03ca 6E756D62 		.ascii	"numberKeys2\000"
 6087      65724B65 
 6087      79733200 
 6088              	.LASF101:
 6089 03d6 7461626C 		.ascii	"table\000"
 6089      6500
 6090              	.LASF12:
 6091 03dc 75696E74 		.ascii	"uint16\000"
 6091      313600
 6092              	.LASF127:
 6093 03e3 64617465 		.ascii	"date\000"
 6093      00
 6094              	.LASF75:
 6095 03e8 70756D70 		.ascii	"pumpState\000"
 6095      53746174 
 6095      6500
 6096              	.LASF50:
 6097 03f2 666C6167 		.ascii	"flagPayment\000"
 6097      5061796D 
 6097      656E7400 
 6098              	.LASF17:
 6099 03fe 63686172 		.ascii	"char8\000"
 6099      3800
 6100              	.LASF96:
 6101 0404 52465F5A 		.ascii	"RF_ZERO_SALE\000"
ARM GAS  C:\Users\RECEPC~1\AppData\Local\Temp\cctZPkat.s 			page 121


 6101      45524F5F 
 6101      53414C45 
 6101      00
 6102              	.LASF55:
 6103 0411 70707551 		.ascii	"ppuQuota\000"
 6103      756F7461 
 6103      00
 6104              	.LASF97:
 6105 041a 6461746F 		.ascii	"datos\000"
 6105      7300
 6106              	.LASF43:
 6107 0420 746F7461 		.ascii	"totalMoneyAfter\000"
 6107      6C4D6F6E 
 6107      65794166 
 6107      74657200 
 6108              	.LASF194:
 6109 0430 2E5C5246 		.ascii	".\\RFPoll.c\000"
 6109      506F6C6C 
 6109      2E6300
 6110              	.LASF53:
 6111 043b 6D6F6E65 		.ascii	"moneyQuota\000"
 6111      7951756F 
 6111      746100
 6112              	.LASF57:
 6113 0446 7072696E 		.ascii	"printers\000"
 6113      74657273 
 6113      00
 6114              	.LASF138:
 6115 044f 41637469 		.ascii	"ActiveRF\000"
 6115      76655246 
 6115      00
 6116              	.LASF91:
 6117 0458 52465F43 		.ascii	"RF_CREDITSALEAUTH\000"
 6117      52454449 
 6117      5453414C 
 6117      45415554 
 6117      4800
 6118              	.LASF196:
 6119 046a 76657269 		.ascii	"verificar_check\000"
 6119      66696361 
 6119      725F6368 
 6119      65636B00 
 6120              	.LASF67:
 6121 047a 6D6F6E65 		.ascii	"moneySale\000"
 6121      7953616C 
 6121      6500
 6122              	.LASF6:
 6123 0484 6C6F6E67 		.ascii	"long long int\000"
 6123      206C6F6E 
 6123      6720696E 
 6123      7400
 6124              	.LASF189:
 6125 0492 45455052 		.ascii	"EEPROM_1_WriteByte\000"
 6125      4F4D5F31 
 6125      5F577269 
 6125      74654279 
 6125      746500
ARM GAS  C:\Users\RECEPC~1\AppData\Local\Temp\cctZPkat.s 			page 122


 6126              	.LASF69:
 6127 04a5 70707553 		.ascii	"ppuSale\000"
 6127      616C6500 
 6128              	.LASF105:
 6129 04ad 636F756E 		.ascii	"countAnimation1\000"
 6129      74416E69 
 6129      6D617469 
 6129      6F6E3100 
 6130              	.LASF150:
 6131 04bd 4E756D50 		.ascii	"NumPositions\000"
 6131      6F736974 
 6131      696F6E73 
 6131      00
 6132              	.LASF134:
 6133 04ca 73746174 		.ascii	"stateBeagleSoft\000"
 6133      65426561 
 6133      676C6553 
 6133      6F667400 
 6134              	.LASF42:
 6135 04da 746F7461 		.ascii	"totalPPUPrevious\000"
 6135      6C505055 
 6135      50726576 
 6135      696F7573 
 6135      00
 6136              	.LASF106:
 6137 04eb 636F756E 		.ascii	"countAnimation2\000"
 6137      74416E69 
 6137      6D617469 
 6137      6F6E3200 
 6138              	.LASF157:
 6139 04fb 74696D65 		.ascii	"timeDownHandle\000"
 6139      446F776E 
 6139      48616E64 
 6139      6C6500
 6140              	.LASF31:
 6141 050a 76656869 		.ascii	"vehicleType\000"
 6141      636C6554 
 6141      79706500 
 6142              	.LASF80:
 6143 0516 50554D50 		.ascii	"PUMP_CALLING\000"
 6143      5F43414C 
 6143      4C494E47 
 6143      00
 6144              	.LASF49:
 6145 0523 666C6167 		.ascii	"flagKeyboard\000"
 6145      4B657962 
 6145      6F617264 
 6145      00
 6146              	.LASF98:
 6147 0530 73697A65 		.ascii	"size\000"
 6147      00
 6148              	.LASF13:
 6149 0535 75696E74 		.ascii	"uint32\000"
 6149      333200
 6150              	.LASF81:
 6151 053c 50554D50 		.ascii	"PUMP_AUTHORIZED\000"
 6151      5F415554 
ARM GAS  C:\Users\RECEPC~1\AppData\Local\Temp\cctZPkat.s 			page 123


 6151      484F5249 
 6151      5A454400 
 6152              	.LASF133:
 6153 054c 666C6167 		.ascii	"flagResetMux\000"
 6153      52657365 
 6153      744D7578 
 6153      00
 6154              	.LASF168:
 6155 0559 62756666 		.ascii	"buffer_txDisplay\000"
 6155      65725F74 
 6155      78446973 
 6155      706C6179 
 6155      00
 6156              	.LASF88:
 6157 056a 52465F49 		.ascii	"RF_IDLE\000"
 6157      444C4500 
 6158              	.LASF45:
 6159 0572 746F7461 		.ascii	"totalPPUAfter\000"
 6159      6C505055 
 6159      41667465 
 6159      7200
 6160              	.LASF192:
 6161 0580 70726963 		.ascii	"priceChange\000"
 6161      65436861 
 6161      6E676500 
 6162              	.LASF28:
 6163 058c 6B657962 		.ascii	"keyboardWayToPay\000"
 6163      6F617264 
 6163      57617954 
 6163      6F506179 
 6163      00
 6164              	.LASF122:
 6165 059d 70707578 		.ascii	"ppux10\000"
 6165      313000
 6166              	.LASF40:
 6167 05a4 746F7461 		.ascii	"totalMoneyPrevious\000"
 6167      6C4D6F6E 
 6167      65795072 
 6167      6576696F 
 6167      757300
 6168              	.LASF117:
 6169 05b7 666C6167 		.ascii	"flagPoint1\000"
 6169      506F696E 
 6169      743100
 6170              	.LASF26:
 6171 05c2 6D6F6E65 		.ascii	"moneySelectedSale\000"
 6171      7953656C 
 6171      65637465 
 6171      6453616C 
 6171      6500
 6172              	.LASF125:
 6173 05d4 73796D62 		.ascii	"symbols\000"
 6173      6F6C7300 
 6174              	.LASF187:
 6175 05dc 77726974 		.ascii	"write_hora\000"
 6175      655F686F 
 6175      726100
ARM GAS  C:\Users\RECEPC~1\AppData\Local\Temp\cctZPkat.s 			page 124


 6176              	.LASF156:
 6177 05e7 64617465 		.ascii	"dateDownHandle\000"
 6177      446F776E 
 6177      48616E64 
 6177      6C6500
 6178              	.LASF46:
 6179 05f6 6C696365 		.ascii	"licenceSale\000"
 6179      6E636553 
 6179      616C6500 
 6180              	.LASF56:
 6181 0602 70726963 		.ascii	"priceConsign\000"
 6181      65436F6E 
 6181      7369676E 
 6181      00
 6182              	.LASF2:
 6183 060f 73686F72 		.ascii	"short int\000"
 6183      7420696E 
 6183      7400
 6184              	.LASF4:
 6185 0619 6C6F6E67 		.ascii	"long int\000"
 6185      20696E74 
 6185      00
 6186              	.LASF155:
 6187 0622 566F6C55 		.ascii	"VolUnit\000"
 6187      6E697400 
 6188              	.LASF137:
 6189 062a 49444361 		.ascii	"IDCast\000"
 6189      737400
 6190              	.LASF104:
 6191 0631 49544D5F 		.ascii	"ITM_RxBuffer\000"
 6191      52784275 
 6191      66666572 
 6191      00
 6192              	.LASF153:
 6193 063e 68696464 		.ascii	"hiddenKeys\000"
 6193      656E4B65 
 6193      797300
 6194              	.LASF61:
 6195 0649 73686966 		.ascii	"shiftId\000"
 6195      74496400 
 6196              	.LASF131:
 6197 0651 74797065 		.ascii	"typeIdSeller\000"
 6197      49645365 
 6197      6C6C6572 
 6197      00
 6198              	.LASF52:
 6199 065e 666C6167 		.ascii	"flagEndSale\000"
 6199      456E6453 
 6199      616C6500 
 6200              	.LASF38:
 6201 066a 64617465 		.ascii	"dateLiftHandle\000"
 6201      4C696674 
 6201      48616E64 
 6201      6C6500
 6202              	.LASF73:
 6203 0679 686F7365 		.ascii	"hoseNumber\000"
 6203      4E756D62 
ARM GAS  C:\Users\RECEPC~1\AppData\Local\Temp\cctZPkat.s 			page 125


 6203      657200
 6204              	.LASF178:
 6205 0684 62756666 		.ascii	"bufferDisplay2\000"
 6205      65724469 
 6205      73706C61 
 6205      793200
 6206              	.LASF93:
 6207 0693 52465F43 		.ascii	"RF_CREDITSALEREPORT\000"
 6207      52454449 
 6207      5453414C 
 6207      45524550 
 6207      4F525400 
 6208              	.LASF180:
 6209 06a7 62756666 		.ascii	"bufferDisplay4\000"
 6209      65724469 
 6209      73706C61 
 6209      793400
 6210              	.LASF174:
 6211 06b6 436F7069 		.ascii	"CopiasCredito\000"
 6211      61734372 
 6211      65646974 
 6211      6F00
 6212              	.LASF132:
 6213 06c4 70617373 		.ascii	"passwordSeller\000"
 6213      776F7264 
 6213      53656C6C 
 6213      657200
 6214              	.LASF44:
 6215 06d3 746F7461 		.ascii	"totalVolumeAfter\000"
 6215      6C566F6C 
 6215      756D6541 
 6215      66746572 
 6215      00
 6216              	.LASF143:
 6217 06e4 556E6974 		.ascii	"UnitType\000"
 6217      54797065 
 6217      00
 6218              	.LASF16:
 6219 06ed 75696E74 		.ascii	"uint64\000"
 6219      363400
 6220              	.LASF120:
 6221 06f4 64656C61 		.ascii	"delayPicture1\000"
 6221      79506963 
 6221      74757265 
 6221      3100
 6222              	.LASF121:
 6223 0702 64656C61 		.ascii	"delayPicture2\000"
 6223      79506963 
 6223      74757265 
 6223      3200
 6224              	.LASF37:
 6225 0710 73746174 		.ascii	"stateMux\000"
 6225      654D7578 
 6225      00
 6226              	.LASF170:
 6227 0719 456E6361 		.ascii	"Encabezado1\000"
 6227      62657A61 
ARM GAS  C:\Users\RECEPC~1\AppData\Local\Temp\cctZPkat.s 			page 126


 6227      646F3100 
 6228              	.LASF171:
 6229 0725 456E6361 		.ascii	"Encabezado2\000"
 6229      62657A61 
 6229      646F3200 
 6230              	.LASF172:
 6231 0731 456E6361 		.ascii	"Encabezado3\000"
 6231      62657A61 
 6231      646F3300 
 6232              	.LASF173:
 6233 073d 456E6361 		.ascii	"Encabezado4\000"
 6233      62657A61 
 6233      646F3400 
 6234              	.LASF20:
 6235 0749 73697A65 		.ascii	"sizetype\000"
 6235      74797065 
 6235      00
 6236              	.LASF5:
 6237 0752 6C6F6E67 		.ascii	"long unsigned int\000"
 6237      20756E73 
 6237      69676E65 
 6237      6420696E 
 6237      7400
 6238              	.LASF89:
 6239 0764 52465F44 		.ascii	"RF_DELIVERING\000"
 6239      454C4956 
 6239      4552494E 
 6239      4700
 6240              	.LASF147:
 6241 0772 50505544 		.ascii	"PPUDec\000"
 6241      656300
 6242              	.LASF71:
 6243 0779 61637469 		.ascii	"activeHose\000"
 6243      7665486F 
 6243      736500
 6244              	.LASF59:
 6245 0784 666C6167 		.ascii	"flagPrint\000"
 6245      5072696E 
 6245      7400
 6246              	.LASF10:
 6247 078e 696E7433 		.ascii	"int32_t\000"
 6247      325F7400 
 6248              	.LASF90:
 6249 0796 52465F43 		.ascii	"RF_CASHSALEREPORT\000"
 6249      41534853 
 6249      414C4552 
 6249      45504F52 
 6249      5400
 6250              	.LASF19:
 6251 07a8 63797374 		.ascii	"cystatus\000"
 6251      61747573 
 6251      00
 6252              	.LASF24:
 6253 07b1 666C6167 		.ascii	"flagWayToPayMixed\000"
 6253      57617954 
 6253      6F506179 
 6253      4D697865 
ARM GAS  C:\Users\RECEPC~1\AppData\Local\Temp\cctZPkat.s 			page 127


 6253      6400
 6254              	.LASF1:
 6255 07c3 756E7369 		.ascii	"unsigned char\000"
 6255      676E6564 
 6255      20636861 
 6255      7200
 6256              	.LASF193:
 6257 07d1 474E5520 		.ascii	"GNU C 4.9.3 20150303 (release) [ARM/embedded-4_9-br"
 6257      4320342E 
 6257      392E3320 
 6257      32303135 
 6257      30333033 
 6258 0804 616E6368 		.ascii	"anch revision 221220] -mcpu=cortex-m3 -mthumb -g -O"
 6258      20726576 
 6258      6973696F 
 6258      6E203232 
 6258      31323230 
 6259 0837 67202D66 		.ascii	"g -ffunction-sections -ffat-lto-objects\000"
 6259      66756E63 
 6259      74696F6E 
 6259      2D736563 
 6259      74696F6E 
 6260              	.LASF29:
 6261 085f 61757468 		.ascii	"authorizationFlag\000"
 6261      6F72697A 
 6261      6174696F 
 6261      6E466C61 
 6261      6700
 6262              	.LASF95:
 6263 0871 52465F43 		.ascii	"RF_COPY_RECEIPT\000"
 6263      4F50595F 
 6263      52454345 
 6263      49505400 
 6264              	.LASF77:
 6265 0881 70756D70 		.ascii	"pump\000"
 6265      00
 6266              	.LASF83:
 6267 0886 50554D50 		.ascii	"PUMP_PEOT\000"
 6267      5F50454F 
 6267      5400
 6268              	.LASF195:
 6269 0890 433A5C55 		.ascii	"C:\\Users\\Recepcion\\Documents\\GitHub\\NSY-DH\\Wo"
 6269      73657273 
 6269      5C526563 
 6269      65706369 
 6269      6F6E5C44 
 6270 08bd 726B7370 		.ascii	"rkspace01\\Design01.cydsn\000"
 6270      61636530 
 6270      315C4465 
 6270      7369676E 
 6270      30312E63 
 6271              	.LASF140:
 6272 08d6 74656D70 		.ascii	"temporal\000"
 6272      6F72616C 
 6272      00
 6273              	.LASF146:
 6274 08df 566F6C44 		.ascii	"VolDec\000"
ARM GAS  C:\Users\RECEPC~1\AppData\Local\Temp\cctZPkat.s 			page 128


 6274      656300
 6275              	.LASF34:
 6276 08e6 70726573 		.ascii	"presetType\000"
 6276      65745479 
 6276      706500
 6277              	.LASF94:
 6278 08f1 52465F45 		.ascii	"RF_ERROR\000"
 6278      52524F52 
 6278      00
 6279              	.LASF68:
 6280 08fa 766F6C75 		.ascii	"volumeSale\000"
 6280      6D655361 
 6280      6C6500
 6281              	.LASF169:
 6282 0905 696E7449 		.ascii	"intIDStation\000"
 6282      44537461 
 6282      74696F6E 
 6282      00
 6283              	.LASF62:
 6284 0912 73686966 		.ascii	"shiftPassword\000"
 6284      74506173 
 6284      73776F72 
 6284      6400
 6285              	.LASF0:
 6286 0920 7369676E 		.ascii	"signed char\000"
 6286      65642063 
 6286      68617200 
 6287              	.LASF158:
 6288 092c 636F756E 		.ascii	"count_protector\000"
 6288      745F7072 
 6288      6F746563 
 6288      746F7200 
 6289              	.LASF3:
 6290 093c 73686F72 		.ascii	"short unsigned int\000"
 6290      7420756E 
 6290      7369676E 
 6290      65642069 
 6290      6E7400
 6291              	.LASF109:
 6292 094f 636F756E 		.ascii	"countPump\000"
 6292      7450756D 
 6292      7000
 6293              	.LASF182:
 6294 0959 6D656D63 		.ascii	"memcpy\000"
 6294      707900
 6295              	.LASF70:
 6296 0960 70726F64 		.ascii	"productSale\000"
 6296      75637453 
 6296      616C6500 
 6297              	.LASF11:
 6298 096c 75696E74 		.ascii	"uint8\000"
 6298      3800
 6299              	.LASF15:
 6300 0972 646F7562 		.ascii	"double\000"
 6300      6C6500
 6301              	.LASF23:
 6302 0979 77617954 		.ascii	"wayToPay\000"
ARM GAS  C:\Users\RECEPC~1\AppData\Local\Temp\cctZPkat.s 			page 129


 6302      6F506179 
 6302      00
 6303              	.LASF39:
 6304 0982 74696D65 		.ascii	"timeLiftHandle\000"
 6304      4C696674 
 6304      48616E64 
 6304      6C6500
 6305              	.LASF66:
 6306 0991 70707541 		.ascii	"ppuAuthorized\000"
 6306      7574686F 
 6306      72697A65 
 6306      6400
 6307              	.LASF27:
 6308 099f 73657269 		.ascii	"serialSelectedSale\000"
 6308      616C5365 
 6308      6C656374 
 6308      65645361 
 6308      6C6500
 6309              	.LASF64:
 6310 09b2 706F7369 		.ascii	"position\000"
 6310      74696F6E 
 6310      00
 6311              	.LASF177:
 6312 09bb 62756666 		.ascii	"bufferDisplay1\000"
 6312      65724469 
 6312      73706C61 
 6312      793100
 6313              	.LASF163:
 6314 09ca 70756D70 		.ascii	"pumpGap\000"
 6314      47617000 
 6315              	.LASF74:
 6316 09d2 72665374 		.ascii	"rfState\000"
 6316      61746500 
 6317              	.LASF197:
 6318 09da 52465F43 		.ascii	"RF_Connection_ClearRxBuffer\000"
 6318      6F6E6E65 
 6318      6374696F 
 6318      6E5F436C 
 6318      65617252 
 6319              		.ident	"GCC: (GNU Tools for ARM Embedded Processors) 4.9.3 20150303 (release) [ARM/embedded-4_9-br
