ARM GAS  C:\Users\RECEPC~1\AppData\Local\Temp\ccppYrKj.s 			page 1


   1              		.syntax unified
   2              		.cpu cortex-m3
   3              		.fpu softvfp
   4              		.eabi_attribute 20, 1
   5              		.eabi_attribute 21, 1
   6              		.eabi_attribute 23, 3
   7              		.eabi_attribute 24, 1
   8              		.eabi_attribute 25, 1
   9              		.eabi_attribute 26, 1
  10              		.eabi_attribute 30, 1
  11              		.eabi_attribute 34, 1
  12              		.eabi_attribute 18, 4
  13              		.thumb
  14              		.file	"RFPoll.c"
  15              		.text
  16              	.Ltext0:
  17              		.cfi_sections	.debug_frame
  18              		.section	.text.verificar_check,"ax",%progbits
  19              		.align	2
  20              		.global	verificar_check
  21              		.thumb
  22              		.thumb_func
  23              		.type	verificar_check, %function
  24              	verificar_check:
  25              	.LFB63:
  26              		.file 1 ".\\RFPoll.c"
   1:.\RFPoll.c    **** /* ========================================
   2:.\RFPoll.c    ****  *
   3:.\RFPoll.c    ****  * Copyright YOUR COMPANY, THE YEAR
   4:.\RFPoll.c    ****  * All Rights Reserved
   5:.\RFPoll.c    ****  * UNPUBLISHED, LICENSED SOFTWARE.
   6:.\RFPoll.c    ****  *
   7:.\RFPoll.c    ****  * CONFIDENTIAL AND PROPRIETARY INFORMATION
   8:.\RFPoll.c    ****  * WHICH IS THE PROPERTY OF your company.
   9:.\RFPoll.c    ****  *
  10:.\RFPoll.c    ****  * ========================================
  11:.\RFPoll.c    **** */
  12:.\RFPoll.c    **** #include <device.h>
  13:.\RFPoll.c    **** #include <variables.h>
  14:.\RFPoll.c    **** /*
  15:.\RFPoll.c    **** ***************************************************************************************************
  16:.\RFPoll.c    **** *                             uint8 verificar_check(uint8 *datos, uint16 size)
  17:.\RFPoll.c    **** *
  18:.\RFPoll.c    **** * Description : calcula el checksum
  19:.\RFPoll.c    **** *               
  20:.\RFPoll.c    **** 
  21:.\RFPoll.c    **** ***************************************************************************************************
  22:.\RFPoll.c    **** */
  23:.\RFPoll.c    **** uint8 verificar_check(uint8 *datos, uint16 size){
  27              		.loc 1 23 0
  28              		.cfi_startproc
  29              		@ args = 0, pretend = 0, frame = 256
  30              		@ frame_needed = 0, uses_anonymous_args = 0
  31              	.LVL0:
  32 0000 30B5     		push	{r4, r5, lr}
  33              		.cfi_def_cfa_offset 12
  34              		.cfi_offset 4, -12
ARM GAS  C:\Users\RECEPC~1\AppData\Local\Temp\ccppYrKj.s 			page 2


  35              		.cfi_offset 5, -8
  36              		.cfi_offset 14, -4
  37 0002 C1B0     		sub	sp, sp, #260
  38              		.cfi_def_cfa_offset 272
  39 0004 0546     		mov	r5, r0
  40 0006 0C46     		mov	r4, r1
  24:.\RFPoll.c    **** 	uint8 checksum,index; 
  25:.\RFPoll.c    **** 	uint16 i;
  26:.\RFPoll.c    ****     uint8 table[256] = { 
  41              		.loc 1 26 0
  42 0008 6846     		mov	r0, sp
  43              	.LVL1:
  44 000a 0949     		ldr	r1, .L5
  45              	.LVL2:
  46 000c 4FF48072 		mov	r2, #256
  47 0010 FFF7FEFF 		bl	memcpy
  48              	.LVL3:
  27:.\RFPoll.c    ****     0, 94,188,226, 97, 63,221,131,194,156,126, 32,163,253, 31, 65,
  28:.\RFPoll.c    ****     157,195, 33,127,252,162, 64, 30, 95,  1,227,189, 62, 96,130,220,
  29:.\RFPoll.c    ****     35,125,159,193, 66, 28,254,160,225,191, 93,  3,128,222, 60, 98,
  30:.\RFPoll.c    ****     190,224,  2, 92,223,129, 99, 61,124, 34,192,158, 29, 67,161,255,
  31:.\RFPoll.c    ****     70, 24,250,164, 39,121,155,197,132,218, 56,102,229,187, 89,  7,
  32:.\RFPoll.c    ****     219,133,103, 57,186,228,  6, 88, 25, 71,165,251,120, 38,196,154,
  33:.\RFPoll.c    ****     101, 59,217,135,  4, 90,184,230,167,249, 27, 69,198,152,122, 36,
  34:.\RFPoll.c    ****     248,166, 68, 26,153,199, 37,123, 58,100,134,216, 91,  5,231,185,
  35:.\RFPoll.c    ****     140,210, 48,110,237,179, 81, 15, 78, 16,242,172, 47,113,147,205,
  36:.\RFPoll.c    ****     17, 79,173,243,112, 46,204,146,211,141,111, 49,178,236, 14, 80,
  37:.\RFPoll.c    ****     175,241, 19, 77,206,144,114, 44,109, 51,209,143, 12, 82,176,238,
  38:.\RFPoll.c    ****     50,108,142,208, 83, 13,239,177,240,174, 76, 18,145,207, 45,115,
  39:.\RFPoll.c    ****     202,148,118, 40,171,245, 23, 73,  8, 86,180,234,105, 55,213,139,
  40:.\RFPoll.c    ****     87,  9,235,181, 54,104,138,212,149,203, 41,119,244,170, 72, 22,
  41:.\RFPoll.c    ****     233,183, 85, 11,136,214, 52,106, 43,117,151,201, 74, 20,246,168,
  42:.\RFPoll.c    ****     116, 42,200,150, 21, 75,169,247,182,232, 10, 84,215,137,107, 53};	
  43:.\RFPoll.c    **** 	checksum=0;
  44:.\RFPoll.c    **** 	for(i=0;i<(size-1);i++){
  49              		.loc 1 44 0
  50 0014 0023     		movs	r3, #0
  43:.\RFPoll.c    **** 	for(i=0;i<(size-1);i++){
  51              		.loc 1 43 0
  52 0016 1846     		mov	r0, r3
  53              		.loc 1 44 0
  54 0018 05E0     		b	.L2
  55              	.LVL4:
  56              	.L3:
  45:.\RFPoll.c    **** 		index = (uint8)(checksum ^ datos[i]);
  57              		.loc 1 45 0 discriminator 3
  58 001a EA5C     		ldrb	r2, [r5, r3]	@ zero_extendqisi2
  59 001c 5040     		eors	r0, r0, r2
  60              	.LVL5:
  46:.\RFPoll.c    **** 		checksum = table[index];				
  61              		.loc 1 46 0 discriminator 3
  62 001e 1DF80000 		ldrb	r0, [sp, r0]	@ zero_extendqisi2
  63              	.LVL6:
  44:.\RFPoll.c    **** 		index = (uint8)(checksum ^ datos[i]);
  64              		.loc 1 44 0 discriminator 3
  65 0022 0133     		adds	r3, r3, #1
  66              	.LVL7:
ARM GAS  C:\Users\RECEPC~1\AppData\Local\Temp\ccppYrKj.s 			page 3


  67 0024 9BB2     		uxth	r3, r3
  68              	.LVL8:
  69              	.L2:
  44:.\RFPoll.c    **** 		index = (uint8)(checksum ^ datos[i]);
  70              		.loc 1 44 0 is_stmt 0 discriminator 1
  71 0026 621E     		subs	r2, r4, #1
  72 0028 9342     		cmp	r3, r2
  73 002a F6DB     		blt	.L3
  47:.\RFPoll.c    **** 	}
  48:.\RFPoll.c    **** 	return checksum;
  49:.\RFPoll.c    **** }
  74              		.loc 1 49 0 is_stmt 1
  75 002c 41B0     		add	sp, sp, #260
  76              		.cfi_def_cfa_offset 12
  77              		@ sp needed
  78 002e 30BD     		pop	{r4, r5, pc}
  79              	.LVL9:
  80              	.L6:
  81              		.align	2
  82              	.L5:
  83 0030 00000000 		.word	.LANCHOR0
  84              		.cfi_endproc
  85              	.LFE63:
  86              		.size	verificar_check, .-verificar_check
  87              		.section	.text.pollingRF_Rx,"ax",%progbits
  88              		.align	2
  89              		.global	pollingRF_Rx
  90              		.thumb
  91              		.thumb_func
  92              		.type	pollingRF_Rx, %function
  93              	pollingRF_Rx:
  94              	.LFB64:
  50:.\RFPoll.c    **** 
  51:.\RFPoll.c    **** 
  52:.\RFPoll.c    **** 
  53:.\RFPoll.c    **** 
  54:.\RFPoll.c    **** void pollingRF_Rx(){
  95              		.loc 1 54 0
  96              		.cfi_startproc
  97              		@ args = 0, pretend = 0, frame = 0
  98              		@ frame_needed = 0, uses_anonymous_args = 0
  99 0000 10B5     		push	{r4, lr}
 100              		.cfi_def_cfa_offset 8
 101              		.cfi_offset 4, -8
 102              		.cfi_offset 14, -4
  55:.\RFPoll.c    ****     uint16 status1, status2,size,i,x,y,z;
  56:.\RFPoll.c    **** 	uint8 aux[15],programar_ok;
  57:.\RFPoll.c    **** 	if(RF_Connection_GetRxBufferSize()>=7){
 103              		.loc 1 57 0
 104 0002 FFF7FEFF 		bl	RF_Connection_GetRxBufferSize
 105              	.LVL10:
 106 0006 0628     		cmp	r0, #6
 107 0008 4AD9     		bls	.L7
  58:.\RFPoll.c    ****         status1=RF_Connection_GetRxBufferSize();
 108              		.loc 1 58 0
 109 000a FFF7FEFF 		bl	RF_Connection_GetRxBufferSize
 110              	.LVL11:
ARM GAS  C:\Users\RECEPC~1\AppData\Local\Temp\ccppYrKj.s 			page 4


 111 000e 0446     		mov	r4, r0
 112              	.LVL12:
  59:.\RFPoll.c    **** 		CyDelayUs(100);
 113              		.loc 1 59 0
 114 0010 6420     		movs	r0, #100
 115 0012 FFF7FEFF 		bl	CyDelayUs
 116              	.LVL13:
  60:.\RFPoll.c    **** 		status2=RF_Connection_GetRxBufferSize();
 117              		.loc 1 60 0
 118 0016 FFF7FEFF 		bl	RF_Connection_GetRxBufferSize
 119              	.LVL14:
  61:.\RFPoll.c    **** 		if(status1==status2){
 120              		.loc 1 61 0
 121 001a 8442     		cmp	r4, r0
 122 001c 40D1     		bne	.L7
 123 001e 06E0     		b	.L15
 124              	.LVL15:
 125              	.L10:
  62:.\RFPoll.c    ****             i=0;
  63:.\RFPoll.c    ****     	    while(RF_Connection_GetRxBufferSize()>0){
  64:.\RFPoll.c    ****     	       buffer_rf[i]=RF_Connection_ReadRxData(); 	
 126              		.loc 1 64 0
 127 0020 FFF7FEFF 		bl	RF_Connection_ReadRxData
 128              	.LVL16:
 129 0024 1F4B     		ldr	r3, .L17
 130 0026 1855     		strb	r0, [r3, r4]
  65:.\RFPoll.c    ****     		   i++;	
 131              		.loc 1 65 0
 132 0028 0134     		adds	r4, r4, #1
 133              	.LVL17:
 134 002a A4B2     		uxth	r4, r4
 135              	.LVL18:
 136 002c 00E0     		b	.L9
 137              	.LVL19:
 138              	.L15:
 139 002e 0024     		movs	r4, #0
 140              	.LVL20:
 141              	.L9:
  63:.\RFPoll.c    ****     	       buffer_rf[i]=RF_Connection_ReadRxData(); 	
 142              		.loc 1 63 0
 143 0030 FFF7FEFF 		bl	RF_Connection_GetRxBufferSize
 144              	.LVL21:
 145 0034 0028     		cmp	r0, #0
 146 0036 F3D1     		bne	.L10
  66:.\RFPoll.c    ****     	    }
  67:.\RFPoll.c    ****             //if((buffer_rf[0]==0xBC)&&(buffer_rf[1]==0xBB)&&(buffer_rf[2]==0xB8)&&(buffer_rf[3]==I
  68:.\RFPoll.c    ****             if((buffer_rf[0]==0xBC)&&(buffer_rf[1]==0xBB)&&(buffer_rf[2]==0xB8)){
 147              		.loc 1 68 0
 148 0038 1A4B     		ldr	r3, .L17
 149 003a 1B78     		ldrb	r3, [r3]	@ zero_extendqisi2
 150 003c BC2B     		cmp	r3, #188
 151 003e 2DD1     		bne	.L11
 152              		.loc 1 68 0 is_stmt 0 discriminator 1
 153 0040 184B     		ldr	r3, .L17
 154 0042 5B78     		ldrb	r3, [r3, #1]	@ zero_extendqisi2
 155 0044 BB2B     		cmp	r3, #187
 156 0046 29D1     		bne	.L11
ARM GAS  C:\Users\RECEPC~1\AppData\Local\Temp\ccppYrKj.s 			page 5


 157              		.loc 1 68 0 discriminator 2
 158 0048 164B     		ldr	r3, .L17
 159 004a 9B78     		ldrb	r3, [r3, #2]	@ zero_extendqisi2
 160 004c B82B     		cmp	r3, #184
 161 004e 25D1     		bne	.L11
  69:.\RFPoll.c    ****                switch(buffer_rf[6]){
 162              		.loc 1 69 0 is_stmt 1
 163 0050 144B     		ldr	r3, .L17
 164 0052 9B79     		ldrb	r3, [r3, #6]	@ zero_extendqisi2
 165 0054 A12B     		cmp	r3, #161
 166 0056 21D1     		bne	.L11
  70:.\RFPoll.c    ****                    case 0xA1:
  71:.\RFPoll.c    ****                     buffer_tx[0] = 0xBC;
 167              		.loc 1 71 0
 168 0058 134C     		ldr	r4, .L17+4
 169              	.LVL22:
 170 005a BC23     		movs	r3, #188
 171 005c 2370     		strb	r3, [r4]
  72:.\RFPoll.c    ****                     buffer_tx[1] = 0xCB;
 172              		.loc 1 72 0
 173 005e CB23     		movs	r3, #203
 174 0060 6370     		strb	r3, [r4, #1]
  73:.\RFPoll.c    ****                     buffer_tx[2] = 0xC8;
 175              		.loc 1 73 0
 176 0062 C823     		movs	r3, #200
 177 0064 A370     		strb	r3, [r4, #2]
  74:.\RFPoll.c    ****                     buffer_tx[3] = IDCast[0];
 178              		.loc 1 74 0
 179 0066 114B     		ldr	r3, .L17+8
 180 0068 1A78     		ldrb	r2, [r3]	@ zero_extendqisi2
 181 006a E270     		strb	r2, [r4, #3]
  75:.\RFPoll.c    ****                     buffer_tx[4] = IDCast[1];
 182              		.loc 1 75 0
 183 006c 5B78     		ldrb	r3, [r3, #1]	@ zero_extendqisi2
 184 006e 2371     		strb	r3, [r4, #4]
  76:.\RFPoll.c    ****                     buffer_tx[5] = buffer_rf[5];
 185              		.loc 1 76 0
 186 0070 0C4B     		ldr	r3, .L17
 187 0072 5B79     		ldrb	r3, [r3, #5]	@ zero_extendqisi2
 188 0074 6371     		strb	r3, [r4, #5]
  77:.\RFPoll.c    ****                     buffer_tx[6] = 0xA1;
 189              		.loc 1 77 0
 190 0076 A123     		movs	r3, #161
 191 0078 A371     		strb	r3, [r4, #6]
  78:.\RFPoll.c    ****                     buffer_tx[7] = 0x08;
 192              		.loc 1 78 0
 193 007a 0823     		movs	r3, #8
 194 007c E371     		strb	r3, [r4, #7]
  79:.\RFPoll.c    ****                     buffer_tx[8] = verificar_check(buffer_tx,9);
 195              		.loc 1 79 0
 196 007e 2046     		mov	r0, r4
 197 0080 0921     		movs	r1, #9
 198 0082 FFF7FEFF 		bl	verificar_check
 199              	.LVL23:
 200 0086 2072     		strb	r0, [r4, #8]
 201              	.LVL24:
  80:.\RFPoll.c    ****                     for (x = 0; x < 9; x++){
ARM GAS  C:\Users\RECEPC~1\AppData\Local\Temp\ccppYrKj.s 			page 6


 202              		.loc 1 80 0
 203 0088 0024     		movs	r4, #0
 204 008a 05E0     		b	.L13
 205              	.LVL25:
 206              	.L14:
  81:.\RFPoll.c    ****                         RF_Connection_PutChar(buffer_tx[x]);
 207              		.loc 1 81 0 discriminator 3
 208 008c 064B     		ldr	r3, .L17+4
 209 008e 185D     		ldrb	r0, [r3, r4]	@ zero_extendqisi2
 210 0090 FFF7FEFF 		bl	RF_Connection_PutChar
 211              	.LVL26:
  80:.\RFPoll.c    ****                     for (x = 0; x < 9; x++){
 212              		.loc 1 80 0 discriminator 3
 213 0094 0134     		adds	r4, r4, #1
 214              	.LVL27:
 215 0096 A4B2     		uxth	r4, r4
 216              	.LVL28:
 217              	.L13:
  80:.\RFPoll.c    ****                     for (x = 0; x < 9; x++){
 218              		.loc 1 80 0 is_stmt 0 discriminator 1
 219 0098 082C     		cmp	r4, #8
 220 009a F7D9     		bls	.L14
 221              	.LVL29:
 222              	.L11:
  82:.\RFPoll.c    ****                     }
  83:.\RFPoll.c    ****                    break;
  84:.\RFPoll.c    ****                }                       
  85:.\RFPoll.c    ****             }
  86:.\RFPoll.c    ****            RF_Connection_ClearRxBuffer();
 223              		.loc 1 86 0 is_stmt 1
 224 009c FFF7FEFF 		bl	RF_Connection_ClearRxBuffer
 225              	.LVL30:
 226              	.L7:
 227 00a0 10BD     		pop	{r4, pc}
 228              	.L18:
 229 00a2 00BF     		.align	2
 230              	.L17:
 231 00a4 00000000 		.word	buffer_rf
 232 00a8 00000000 		.word	buffer_tx
 233 00ac 00000000 		.word	IDCast
 234              		.cfi_endproc
 235              	.LFE64:
 236              		.size	pollingRF_Rx, .-pollingRF_Rx
 237              		.comm	side,1036,4
 238              		.comm	bufferDisplay4,648,4
 239              		.comm	bufferDisplay3,648,4
 240              		.comm	bufferDisplay2,648,4
 241              		.comm	bufferDisplay1,648,4
 242              		.comm	intIDStation,2,2
 243              		.comm	buffer_tx,1500,4
 244              		.comm	buffer_rf,1500,4
 245              		.comm	printPortB,1,1
 246              		.comm	printPortA,1,1
 247              		.comm	pumpGap,3,4
 248              		.comm	idStation,5,4
 249              		.comm	controlChar,1,1
 250              		.comm	configAccess,5,4
ARM GAS  C:\Users\RECEPC~1\AppData\Local\Temp\ccppYrKj.s 			page 7


 251              		.comm	count_protector2,1,1
 252              		.comm	count_protector,1,1
 253              		.comm	timeDownHandle,2,4
 254              		.comm	dateDownHandle,3,4
 255              		.comm	VolUnit,6,4
 256              		.comm	PrinterType,1,1
 257              		.comm	hiddenKeys,1,1
 258              		.comm	digits,1,1
 259              		.comm	lockTurn,1,1
 260              		.comm	NumPositions,1,1
 261              		.comm	statePump,4,4
 262              		.comm	DDMode,1,1
 263              		.comm	PPUDec,1,1
 264              		.comm	VolDec,1,1
 265              		.comm	MoneyDec,1,1
 266              		.comm	ConversionFactor,1,1
 267              		.comm	UnitType,1,1
 268              		.comm	IDCast,4,4
 269              		.comm	PlateRequest,1,1
 270              		.comm	PrevStatePump,4,4
 271              		.comm	stateBeagleSoft,1,1
 272              		.comm	flagResetMux,1,1
 273              		.comm	passwordSeller,8,4
 274              		.comm	typeIdSeller,1,1
 275              		.comm	idSeller,25,4
 276              		.comm	temporal,30,4
 277              		.comm	residue,14,4
 278              		.comm	screen,2,4
 279              		.comm	date,3,4
 280              		.comm	time,3,4
 281              		.comm	symbols,2,4
 282              		.comm	decimalVolume,1,1
 283              		.comm	decimalMoney,1,1
 284              		.comm	ppux10,1,1
 285              		.comm	delayPicture2,4,4
 286              		.comm	delayPicture1,4,4
 287              		.comm	productNumber,1,1
 288              		.comm	flagPoint2,1,1
 289              		.comm	flagPoint1,1,1
 290              		.comm	numberKeys2,1,1
 291              		.comm	numberKeys1,1,1
 292              		.comm	flowDisplay4,4,4
 293              		.comm	flowDisplay3,4,4
 294              		.comm	flowDisplay2,4,4
 295              		.comm	flowDisplay1,4,4
 296              		.comm	countPump,8,8
 297              		.comm	countBeagleTX,8,8
 298              		.comm	countAnimation2,8,8
 299              		.comm	countAnimation1,8,8
 300              		.section	.rodata
 301              		.align	2
 302              		.set	.LANCHOR0,. + 0
 303              	.LC0:
 304 0000 00       		.byte	0
 305 0001 5E       		.byte	94
 306 0002 BC       		.byte	-68
 307 0003 E2       		.byte	-30
ARM GAS  C:\Users\RECEPC~1\AppData\Local\Temp\ccppYrKj.s 			page 8


 308 0004 61       		.byte	97
 309 0005 3F       		.byte	63
 310 0006 DD       		.byte	-35
 311 0007 83       		.byte	-125
 312 0008 C2       		.byte	-62
 313 0009 9C       		.byte	-100
 314 000a 7E       		.byte	126
 315 000b 20       		.byte	32
 316 000c A3       		.byte	-93
 317 000d FD       		.byte	-3
 318 000e 1F       		.byte	31
 319 000f 41       		.byte	65
 320 0010 9D       		.byte	-99
 321 0011 C3       		.byte	-61
 322 0012 21       		.byte	33
 323 0013 7F       		.byte	127
 324 0014 FC       		.byte	-4
 325 0015 A2       		.byte	-94
 326 0016 40       		.byte	64
 327 0017 1E       		.byte	30
 328 0018 5F       		.byte	95
 329 0019 01       		.byte	1
 330 001a E3       		.byte	-29
 331 001b BD       		.byte	-67
 332 001c 3E       		.byte	62
 333 001d 60       		.byte	96
 334 001e 82       		.byte	-126
 335 001f DC       		.byte	-36
 336 0020 23       		.byte	35
 337 0021 7D       		.byte	125
 338 0022 9F       		.byte	-97
 339 0023 C1       		.byte	-63
 340 0024 42       		.byte	66
 341 0025 1C       		.byte	28
 342 0026 FE       		.byte	-2
 343 0027 A0       		.byte	-96
 344 0028 E1       		.byte	-31
 345 0029 BF       		.byte	-65
 346 002a 5D       		.byte	93
 347 002b 03       		.byte	3
 348 002c 80       		.byte	-128
 349 002d DE       		.byte	-34
 350 002e 3C       		.byte	60
 351 002f 62       		.byte	98
 352 0030 BE       		.byte	-66
 353 0031 E0       		.byte	-32
 354 0032 02       		.byte	2
 355 0033 5C       		.byte	92
 356 0034 DF       		.byte	-33
 357 0035 81       		.byte	-127
 358 0036 63       		.byte	99
 359 0037 3D       		.byte	61
 360 0038 7C       		.byte	124
 361 0039 22       		.byte	34
 362 003a C0       		.byte	-64
 363 003b 9E       		.byte	-98
 364 003c 1D       		.byte	29
ARM GAS  C:\Users\RECEPC~1\AppData\Local\Temp\ccppYrKj.s 			page 9


 365 003d 43       		.byte	67
 366 003e A1       		.byte	-95
 367 003f FF       		.byte	-1
 368 0040 46       		.byte	70
 369 0041 18       		.byte	24
 370 0042 FA       		.byte	-6
 371 0043 A4       		.byte	-92
 372 0044 27       		.byte	39
 373 0045 79       		.byte	121
 374 0046 9B       		.byte	-101
 375 0047 C5       		.byte	-59
 376 0048 84       		.byte	-124
 377 0049 DA       		.byte	-38
 378 004a 38       		.byte	56
 379 004b 66       		.byte	102
 380 004c E5       		.byte	-27
 381 004d BB       		.byte	-69
 382 004e 59       		.byte	89
 383 004f 07       		.byte	7
 384 0050 DB       		.byte	-37
 385 0051 85       		.byte	-123
 386 0052 67       		.byte	103
 387 0053 39       		.byte	57
 388 0054 BA       		.byte	-70
 389 0055 E4       		.byte	-28
 390 0056 06       		.byte	6
 391 0057 58       		.byte	88
 392 0058 19       		.byte	25
 393 0059 47       		.byte	71
 394 005a A5       		.byte	-91
 395 005b FB       		.byte	-5
 396 005c 78       		.byte	120
 397 005d 26       		.byte	38
 398 005e C4       		.byte	-60
 399 005f 9A       		.byte	-102
 400 0060 65       		.byte	101
 401 0061 3B       		.byte	59
 402 0062 D9       		.byte	-39
 403 0063 87       		.byte	-121
 404 0064 04       		.byte	4
 405 0065 5A       		.byte	90
 406 0066 B8       		.byte	-72
 407 0067 E6       		.byte	-26
 408 0068 A7       		.byte	-89
 409 0069 F9       		.byte	-7
 410 006a 1B       		.byte	27
 411 006b 45       		.byte	69
 412 006c C6       		.byte	-58
 413 006d 98       		.byte	-104
 414 006e 7A       		.byte	122
 415 006f 24       		.byte	36
 416 0070 F8       		.byte	-8
 417 0071 A6       		.byte	-90
 418 0072 44       		.byte	68
 419 0073 1A       		.byte	26
 420 0074 99       		.byte	-103
 421 0075 C7       		.byte	-57
ARM GAS  C:\Users\RECEPC~1\AppData\Local\Temp\ccppYrKj.s 			page 10


 422 0076 25       		.byte	37
 423 0077 7B       		.byte	123
 424 0078 3A       		.byte	58
 425 0079 64       		.byte	100
 426 007a 86       		.byte	-122
 427 007b D8       		.byte	-40
 428 007c 5B       		.byte	91
 429 007d 05       		.byte	5
 430 007e E7       		.byte	-25
 431 007f B9       		.byte	-71
 432 0080 8C       		.byte	-116
 433 0081 D2       		.byte	-46
 434 0082 30       		.byte	48
 435 0083 6E       		.byte	110
 436 0084 ED       		.byte	-19
 437 0085 B3       		.byte	-77
 438 0086 51       		.byte	81
 439 0087 0F       		.byte	15
 440 0088 4E       		.byte	78
 441 0089 10       		.byte	16
 442 008a F2       		.byte	-14
 443 008b AC       		.byte	-84
 444 008c 2F       		.byte	47
 445 008d 71       		.byte	113
 446 008e 93       		.byte	-109
 447 008f CD       		.byte	-51
 448 0090 11       		.byte	17
 449 0091 4F       		.byte	79
 450 0092 AD       		.byte	-83
 451 0093 F3       		.byte	-13
 452 0094 70       		.byte	112
 453 0095 2E       		.byte	46
 454 0096 CC       		.byte	-52
 455 0097 92       		.byte	-110
 456 0098 D3       		.byte	-45
 457 0099 8D       		.byte	-115
 458 009a 6F       		.byte	111
 459 009b 31       		.byte	49
 460 009c B2       		.byte	-78
 461 009d EC       		.byte	-20
 462 009e 0E       		.byte	14
 463 009f 50       		.byte	80
 464 00a0 AF       		.byte	-81
 465 00a1 F1       		.byte	-15
 466 00a2 13       		.byte	19
 467 00a3 4D       		.byte	77
 468 00a4 CE       		.byte	-50
 469 00a5 90       		.byte	-112
 470 00a6 72       		.byte	114
 471 00a7 2C       		.byte	44
 472 00a8 6D       		.byte	109
 473 00a9 33       		.byte	51
 474 00aa D1       		.byte	-47
 475 00ab 8F       		.byte	-113
 476 00ac 0C       		.byte	12
 477 00ad 52       		.byte	82
 478 00ae B0       		.byte	-80
ARM GAS  C:\Users\RECEPC~1\AppData\Local\Temp\ccppYrKj.s 			page 11


 479 00af EE       		.byte	-18
 480 00b0 32       		.byte	50
 481 00b1 6C       		.byte	108
 482 00b2 8E       		.byte	-114
 483 00b3 D0       		.byte	-48
 484 00b4 53       		.byte	83
 485 00b5 0D       		.byte	13
 486 00b6 EF       		.byte	-17
 487 00b7 B1       		.byte	-79
 488 00b8 F0       		.byte	-16
 489 00b9 AE       		.byte	-82
 490 00ba 4C       		.byte	76
 491 00bb 12       		.byte	18
 492 00bc 91       		.byte	-111
 493 00bd CF       		.byte	-49
 494 00be 2D       		.byte	45
 495 00bf 73       		.byte	115
 496 00c0 CA       		.byte	-54
 497 00c1 94       		.byte	-108
 498 00c2 76       		.byte	118
 499 00c3 28       		.byte	40
 500 00c4 AB       		.byte	-85
 501 00c5 F5       		.byte	-11
 502 00c6 17       		.byte	23
 503 00c7 49       		.byte	73
 504 00c8 08       		.byte	8
 505 00c9 56       		.byte	86
 506 00ca B4       		.byte	-76
 507 00cb EA       		.byte	-22
 508 00cc 69       		.byte	105
 509 00cd 37       		.byte	55
 510 00ce D5       		.byte	-43
 511 00cf 8B       		.byte	-117
 512 00d0 57       		.byte	87
 513 00d1 09       		.byte	9
 514 00d2 EB       		.byte	-21
 515 00d3 B5       		.byte	-75
 516 00d4 36       		.byte	54
 517 00d5 68       		.byte	104
 518 00d6 8A       		.byte	-118
 519 00d7 D4       		.byte	-44
 520 00d8 95       		.byte	-107
 521 00d9 CB       		.byte	-53
 522 00da 29       		.byte	41
 523 00db 77       		.byte	119
 524 00dc F4       		.byte	-12
 525 00dd AA       		.byte	-86
 526 00de 48       		.byte	72
 527 00df 16       		.byte	22
 528 00e0 E9       		.byte	-23
 529 00e1 B7       		.byte	-73
 530 00e2 55       		.byte	85
 531 00e3 0B       		.byte	11
 532 00e4 88       		.byte	-120
 533 00e5 D6       		.byte	-42
 534 00e6 34       		.byte	52
 535 00e7 6A       		.byte	106
ARM GAS  C:\Users\RECEPC~1\AppData\Local\Temp\ccppYrKj.s 			page 12


 536 00e8 2B       		.byte	43
 537 00e9 75       		.byte	117
 538 00ea 97       		.byte	-105
 539 00eb C9       		.byte	-55
 540 00ec 4A       		.byte	74
 541 00ed 14       		.byte	20
 542 00ee F6       		.byte	-10
 543 00ef A8       		.byte	-88
 544 00f0 74       		.byte	116
 545 00f1 2A       		.byte	42
 546 00f2 C8       		.byte	-56
 547 00f3 96       		.byte	-106
 548 00f4 15       		.byte	21
 549 00f5 4B       		.byte	75
 550 00f6 A9       		.byte	-87
 551 00f7 F7       		.byte	-9
 552 00f8 B6       		.byte	-74
 553 00f9 E8       		.byte	-24
 554 00fa 0A       		.byte	10
 555 00fb 54       		.byte	84
 556 00fc D7       		.byte	-41
 557 00fd 89       		.byte	-119
 558 00fe 6B       		.byte	107
 559 00ff 35       		.byte	53
 560              		.text
 561              	.Letext0:
 562              		.file 2 "c:\\program files (x86)\\cypress\\psoc creator\\3.3\\psoc creator\\import\\gnu\\arm\\4.9.
 563              		.file 3 "c:\\program files (x86)\\cypress\\psoc creator\\3.3\\psoc creator\\import\\gnu\\arm\\4.9.
 564              		.file 4 "Generated_Source\\PSoC5/cytypes.h"
 565              		.file 5 "./variables.h"
 566              		.file 6 "Generated_Source\\PSoC5/core_cm3.h"
 567              		.file 7 "Generated_Source\\PSoC5/RF_Connection.h"
 568              		.file 8 "Generated_Source\\PSoC5/CyLib.h"
 569              		.section	.debug_info,"",%progbits
 570              	.Ldebug_info0:
 571 0000 320C0000 		.4byte	0xc32
 572 0004 0400     		.2byte	0x4
 573 0006 00000000 		.4byte	.Ldebug_abbrev0
 574 000a 04       		.byte	0x4
 575 000b 01       		.uleb128 0x1
 576 000c 76060000 		.4byte	.LASF160
 577 0010 01       		.byte	0x1
 578 0011 8A030000 		.4byte	.LASF161
 579 0015 2C070000 		.4byte	.LASF162
 580 0019 00000000 		.4byte	.Ldebug_ranges0+0
 581 001d 00000000 		.4byte	0
 582 0021 00000000 		.4byte	.Ldebug_line0
 583 0025 02       		.uleb128 0x2
 584 0026 01       		.byte	0x1
 585 0027 06       		.byte	0x6
 586 0028 B6070000 		.4byte	.LASF0
 587 002c 02       		.uleb128 0x2
 588 002d 01       		.byte	0x1
 589 002e 08       		.byte	0x8
 590 002f 68060000 		.4byte	.LASF1
 591 0033 02       		.uleb128 0x2
 592 0034 02       		.byte	0x2
ARM GAS  C:\Users\RECEPC~1\AppData\Local\Temp\ccppYrKj.s 			page 13


 593 0035 05       		.byte	0x5
 594 0036 07050000 		.4byte	.LASF2
 595 003a 02       		.uleb128 0x2
 596 003b 02       		.byte	0x2
 597 003c 07       		.byte	0x7
 598 003d D2070000 		.4byte	.LASF3
 599 0041 03       		.uleb128 0x3
 600 0042 C6000000 		.4byte	.LASF9
 601 0046 02       		.byte	0x2
 602 0047 3F       		.byte	0x3f
 603 0048 4C000000 		.4byte	0x4c
 604 004c 02       		.uleb128 0x2
 605 004d 04       		.byte	0x4
 606 004e 05       		.byte	0x5
 607 004f 11050000 		.4byte	.LASF4
 608 0053 02       		.uleb128 0x2
 609 0054 04       		.byte	0x4
 610 0055 07       		.byte	0x7
 611 0056 05060000 		.4byte	.LASF5
 612 005a 02       		.uleb128 0x2
 613 005b 08       		.byte	0x8
 614 005c 05       		.byte	0x5
 615 005d C3030000 		.4byte	.LASF6
 616 0061 02       		.uleb128 0x2
 617 0062 08       		.byte	0x8
 618 0063 07       		.byte	0x7
 619 0064 9D010000 		.4byte	.LASF7
 620 0068 04       		.uleb128 0x4
 621 0069 04       		.byte	0x4
 622 006a 05       		.byte	0x5
 623 006b 696E7400 		.ascii	"int\000"
 624 006f 02       		.uleb128 0x2
 625 0070 04       		.byte	0x4
 626 0071 07       		.byte	0x7
 627 0072 9F000000 		.4byte	.LASF8
 628 0076 03       		.uleb128 0x3
 629 0077 3B060000 		.4byte	.LASF10
 630 007b 03       		.byte	0x3
 631 007c 2C       		.byte	0x2c
 632 007d 41000000 		.4byte	0x41
 633 0081 05       		.uleb128 0x5
 634 0082 02080000 		.4byte	.LASF11
 635 0086 04       		.byte	0x4
 636 0087 3801     		.2byte	0x138
 637 0089 2C000000 		.4byte	0x2c
 638 008d 05       		.uleb128 0x5
 639 008e 4D030000 		.4byte	.LASF12
 640 0092 04       		.byte	0x4
 641 0093 3901     		.2byte	0x139
 642 0095 3A000000 		.4byte	0x3a
 643 0099 05       		.uleb128 0x5
 644 009a 60040000 		.4byte	.LASF13
 645 009e 04       		.byte	0x4
 646 009f 3A01     		.2byte	0x13a
 647 00a1 53000000 		.4byte	0x53
 648 00a5 02       		.uleb128 0x2
 649 00a6 04       		.byte	0x4
ARM GAS  C:\Users\RECEPC~1\AppData\Local\Temp\ccppYrKj.s 			page 14


 650 00a7 04       		.byte	0x4
 651 00a8 61010000 		.4byte	.LASF14
 652 00ac 02       		.uleb128 0x2
 653 00ad 08       		.byte	0x8
 654 00ae 04       		.byte	0x4
 655 00af 08080000 		.4byte	.LASF15
 656 00b3 05       		.uleb128 0x5
 657 00b4 D0050000 		.4byte	.LASF16
 658 00b8 04       		.byte	0x4
 659 00b9 4401     		.2byte	0x144
 660 00bb 61000000 		.4byte	0x61
 661 00bf 05       		.uleb128 0x5
 662 00c0 65030000 		.4byte	.LASF17
 663 00c4 04       		.byte	0x4
 664 00c5 4901     		.2byte	0x149
 665 00c7 CB000000 		.4byte	0xcb
 666 00cb 02       		.uleb128 0x2
 667 00cc 01       		.byte	0x1
 668 00cd 08       		.byte	0x8
 669 00ce F5020000 		.4byte	.LASF18
 670 00d2 06       		.uleb128 0x6
 671 00d3 81000000 		.4byte	0x81
 672 00d7 06       		.uleb128 0x6
 673 00d8 99000000 		.4byte	0x99
 674 00dc 02       		.uleb128 0x2
 675 00dd 04       		.byte	0x4
 676 00de 07       		.byte	0x7
 677 00df FC050000 		.4byte	.LASF19
 678 00e3 07       		.uleb128 0x7
 679 00e4 04       		.byte	0x4
 680 00e5 08       		.uleb128 0x8
 681 00e6 81000000 		.4byte	0x81
 682 00ea F5000000 		.4byte	0xf5
 683 00ee 09       		.uleb128 0x9
 684 00ef DC000000 		.4byte	0xdc
 685 00f3 03       		.byte	0x3
 686 00f4 00       		.byte	0
 687 00f5 0A       		.uleb128 0xa
 688 00f6 75000000 		.4byte	.LASF71
 689 00fa 8802     		.2byte	0x288
 690 00fc 05       		.byte	0x5
 691 00fd 6A       		.byte	0x6a
 692 00fe 7E030000 		.4byte	0x37e
 693 0102 0B       		.uleb128 0xb
 694 0103 E7000000 		.4byte	.LASF20
 695 0107 05       		.byte	0x5
 696 0108 6B       		.byte	0x6b
 697 0109 81000000 		.4byte	0x81
 698 010d 00       		.byte	0
 699 010e 0B       		.uleb128 0xb
 700 010f 38020000 		.4byte	.LASF21
 701 0113 05       		.byte	0x5
 702 0114 6C       		.byte	0x6c
 703 0115 7E030000 		.4byte	0x37e
 704 0119 01       		.byte	0x1
 705 011a 0B       		.uleb128 0xb
 706 011b 0F080000 		.4byte	.LASF22
ARM GAS  C:\Users\RECEPC~1\AppData\Local\Temp\ccppYrKj.s 			page 15


 707 011f 05       		.byte	0x5
 708 0120 6D       		.byte	0x6d
 709 0121 81000000 		.4byte	0x81
 710 0125 1A       		.byte	0x1a
 711 0126 0B       		.uleb128 0xb
 712 0127 56060000 		.4byte	.LASF23
 713 012b 05       		.byte	0x5
 714 012c 6E       		.byte	0x6e
 715 012d 81000000 		.4byte	0x81
 716 0131 1B       		.byte	0x1b
 717 0132 0B       		.uleb128 0xb
 718 0133 04010000 		.4byte	.LASF24
 719 0137 05       		.byte	0x5
 720 0138 6F       		.byte	0x6f
 721 0139 8E030000 		.4byte	0x38e
 722 013d 1C       		.byte	0x1c
 723 013e 0B       		.uleb128 0xb
 724 013f B8040000 		.4byte	.LASF25
 725 0143 05       		.byte	0x5
 726 0144 70       		.byte	0x70
 727 0145 8E030000 		.4byte	0x38e
 728 0149 26       		.byte	0x26
 729 014a 0B       		.uleb128 0xb
 730 014b 35080000 		.4byte	.LASF26
 731 014f 05       		.byte	0x5
 732 0150 71       		.byte	0x71
 733 0151 7E030000 		.4byte	0x37e
 734 0155 30       		.byte	0x30
 735 0156 0B       		.uleb128 0xb
 736 0157 82040000 		.4byte	.LASF27
 737 015b 05       		.byte	0x5
 738 015c 72       		.byte	0x72
 739 015d 81000000 		.4byte	0x81
 740 0161 49       		.byte	0x49
 741 0162 0B       		.uleb128 0xb
 742 0163 04070000 		.4byte	.LASF28
 743 0167 05       		.byte	0x5
 744 0168 73       		.byte	0x73
 745 0169 81000000 		.4byte	0x81
 746 016d 4A       		.byte	0x4a
 747 016e 0B       		.uleb128 0xb
 748 016f EB020000 		.4byte	.LASF29
 749 0173 05       		.byte	0x5
 750 0174 74       		.byte	0x74
 751 0175 9E030000 		.4byte	0x39e
 752 0179 4B       		.byte	0x4b
 753 017a 0B       		.uleb128 0xb
 754 017b 42040000 		.4byte	.LASF30
 755 017f 05       		.byte	0x5
 756 0180 75       		.byte	0x75
 757 0181 81000000 		.4byte	0x81
 758 0185 60       		.byte	0x60
 759 0186 0B       		.uleb128 0xb
 760 0187 E2020000 		.4byte	.LASF31
 761 018b 05       		.byte	0x5
 762 018c 76       		.byte	0x76
 763 018d 81000000 		.4byte	0x81
ARM GAS  C:\Users\RECEPC~1\AppData\Local\Temp\ccppYrKj.s 			page 16


 764 0191 61       		.byte	0x61
 765 0192 0B       		.uleb128 0xb
 766 0193 93000000 		.4byte	.LASF32
 767 0197 05       		.byte	0x5
 768 0198 77       		.byte	0x77
 769 0199 81000000 		.4byte	0x81
 770 019d 62       		.byte	0x62
 771 019e 0B       		.uleb128 0xb
 772 019f 82070000 		.4byte	.LASF33
 773 01a3 05       		.byte	0x5
 774 01a4 78       		.byte	0x78
 775 01a5 AE030000 		.4byte	0x3ae
 776 01a9 63       		.byte	0x63
 777 01aa 0B       		.uleb128 0xb
 778 01ab CB020000 		.4byte	.LASF34
 779 01af 05       		.byte	0x5
 780 01b0 79       		.byte	0x79
 781 01b1 BE030000 		.4byte	0x3be
 782 01b5 65       		.byte	0x65
 783 01b6 0B       		.uleb128 0xb
 784 01b7 15020000 		.4byte	.LASF35
 785 01bb 05       		.byte	0x5
 786 01bc 7A       		.byte	0x7a
 787 01bd 81000000 		.4byte	0x81
 788 01c1 79       		.byte	0x79
 789 01c2 0B       		.uleb128 0xb
 790 01c3 F3050000 		.4byte	.LASF36
 791 01c7 05       		.byte	0x5
 792 01c8 7B       		.byte	0x7b
 793 01c9 D4030000 		.4byte	0x3d4
 794 01cd 7A       		.byte	0x7a
 795 01ce 0B       		.uleb128 0xb
 796 01cf 62050000 		.4byte	.LASF37
 797 01d3 05       		.byte	0x5
 798 01d4 7C       		.byte	0x7c
 799 01d5 E4030000 		.4byte	0x3e4
 800 01d9 7F       		.byte	0x7f
 801 01da 0B       		.uleb128 0xb
 802 01db 18080000 		.4byte	.LASF38
 803 01df 05       		.byte	0x5
 804 01e0 7D       		.byte	0x7d
 805 01e1 E4030000 		.4byte	0x3e4
 806 01e5 85       		.byte	0x85
 807 01e6 0B       		.uleb128 0xb
 808 01e7 9A040000 		.4byte	.LASF39
 809 01eb 05       		.byte	0x5
 810 01ec 7E       		.byte	0x7e
 811 01ed F4030000 		.4byte	0x3f4
 812 01f1 8B       		.byte	0x8b
 813 01f2 0B       		.uleb128 0xb
 814 01f3 B4010000 		.4byte	.LASF40
 815 01f7 05       		.byte	0x5
 816 01f8 7F       		.byte	0x7f
 817 01f9 F4030000 		.4byte	0x3f4
 818 01fd 99       		.byte	0x99
 819 01fe 0B       		.uleb128 0xb
 820 01ff 06040000 		.4byte	.LASF41
ARM GAS  C:\Users\RECEPC~1\AppData\Local\Temp\ccppYrKj.s 			page 17


 821 0203 05       		.byte	0x5
 822 0204 80       		.byte	0x80
 823 0205 F4030000 		.4byte	0x3f4
 824 0209 A7       		.byte	0xa7
 825 020a 0B       		.uleb128 0xb
 826 020b 7A030000 		.4byte	.LASF42
 827 020f 05       		.byte	0x5
 828 0210 81       		.byte	0x81
 829 0211 F4030000 		.4byte	0x3f4
 830 0215 B5       		.byte	0xb5
 831 0216 0B       		.uleb128 0xb
 832 0217 B6050000 		.4byte	.LASF43
 833 021b 05       		.byte	0x5
 834 021c 82       		.byte	0x82
 835 021d F4030000 		.4byte	0x3f4
 836 0221 C3       		.byte	0xc3
 837 0222 0B       		.uleb128 0xb
 838 0223 74040000 		.4byte	.LASF44
 839 0227 05       		.byte	0x5
 840 0228 83       		.byte	0x83
 841 0229 F4030000 		.4byte	0x3f4
 842 022d D1       		.byte	0xd1
 843 022e 0B       		.uleb128 0xb
 844 022f EE040000 		.4byte	.LASF45
 845 0233 05       		.byte	0x5
 846 0234 84       		.byte	0x84
 847 0235 04040000 		.4byte	0x404
 848 0239 DF       		.byte	0xdf
 849 023a 0B       		.uleb128 0xb
 850 023b 4A020000 		.4byte	.LASF46
 851 023f 05       		.byte	0x5
 852 0240 85       		.byte	0x85
 853 0241 04040000 		.4byte	0x404
 854 0245 EA       		.byte	0xea
 855 0246 0B       		.uleb128 0xb
 856 0247 D7020000 		.4byte	.LASF47
 857 024b 05       		.byte	0x5
 858 024c 86       		.byte	0x86
 859 024d 04040000 		.4byte	0x404
 860 0251 F5       		.byte	0xf5
 861 0252 0C       		.uleb128 0xc
 862 0253 4E040000 		.4byte	.LASF48
 863 0257 05       		.byte	0x5
 864 0258 87       		.byte	0x87
 865 0259 81000000 		.4byte	0x81
 866 025d 0001     		.2byte	0x100
 867 025f 0C       		.uleb128 0xc
 868 0260 59030000 		.4byte	.LASF49
 869 0264 05       		.byte	0x5
 870 0265 88       		.byte	0x88
 871 0266 81000000 		.4byte	0x81
 872 026a 0101     		.2byte	0x101
 873 026c 0C       		.uleb128 0xc
 874 026d D0000000 		.4byte	.LASF50
 875 0271 05       		.byte	0x5
 876 0272 89       		.byte	0x89
 877 0273 81000000 		.4byte	0x81
ARM GAS  C:\Users\RECEPC~1\AppData\Local\Temp\ccppYrKj.s 			page 18


 878 0277 0201     		.2byte	0x102
 879 0279 0C       		.uleb128 0xc
 880 027a 56050000 		.4byte	.LASF51
 881 027e 05       		.byte	0x5
 882 027f 8A       		.byte	0x8a
 883 0280 81000000 		.4byte	0x81
 884 0284 0301     		.2byte	0x103
 885 0286 0C       		.uleb128 0xc
 886 0287 63000000 		.4byte	.LASF52
 887 028b 05       		.byte	0x5
 888 028c 8B       		.byte	0x8b
 889 028d 14040000 		.4byte	0x414
 890 0291 0401     		.2byte	0x104
 891 0293 0C       		.uleb128 0xc
 892 0294 95030000 		.4byte	.LASF53
 893 0298 05       		.byte	0x5
 894 0299 8C       		.byte	0x8c
 895 029a 8E030000 		.4byte	0x38e
 896 029e 4501     		.2byte	0x145
 897 02a0 0C       		.uleb128 0xc
 898 02a1 3E010000 		.4byte	.LASF54
 899 02a5 05       		.byte	0x5
 900 02a6 8D       		.byte	0x8d
 901 02a7 8E030000 		.4byte	0x38e
 902 02ab 4F01     		.2byte	0x14f
 903 02ad 0C       		.uleb128 0xc
 904 02ae 6B030000 		.4byte	.LASF55
 905 02b2 05       		.byte	0x5
 906 02b3 8E       		.byte	0x8e
 907 02b4 8E030000 		.4byte	0x38e
 908 02b8 5901     		.2byte	0x159
 909 02ba 0C       		.uleb128 0xc
 910 02bb B1020000 		.4byte	.LASF56
 911 02bf 05       		.byte	0x5
 912 02c0 8F       		.byte	0x8f
 913 02c1 24040000 		.4byte	0x424
 914 02c5 6301     		.2byte	0x163
 915 02c7 0C       		.uleb128 0xc
 916 02c8 AC000000 		.4byte	.LASF57
 917 02cc 05       		.byte	0x5
 918 02cd 90       		.byte	0x90
 919 02ce 24040000 		.4byte	0x424
 920 02d2 AE01     		.2byte	0x1ae
 921 02d4 0C       		.uleb128 0xc
 922 02d5 11010000 		.4byte	.LASF58
 923 02d9 05       		.byte	0x5
 924 02da 91       		.byte	0x91
 925 02db 3A040000 		.4byte	0x43a
 926 02df F901     		.2byte	0x1f9
 927 02e1 0C       		.uleb128 0xc
 928 02e2 43060000 		.4byte	.LASF59
 929 02e6 05       		.byte	0x5
 930 02e7 92       		.byte	0x92
 931 02e8 3A040000 		.4byte	0x43a
 932 02ec 0802     		.2byte	0x208
 933 02ee 0C       		.uleb128 0xc
 934 02ef 16070000 		.4byte	.LASF60
ARM GAS  C:\Users\RECEPC~1\AppData\Local\Temp\ccppYrKj.s 			page 19


 935 02f3 05       		.byte	0x5
 936 02f4 93       		.byte	0x93
 937 02f5 50040000 		.4byte	0x450
 938 02f9 1702     		.2byte	0x217
 939 02fb 0C       		.uleb128 0xc
 940 02fc 8D070000 		.4byte	.LASF61
 941 0300 05       		.byte	0x5
 942 0301 94       		.byte	0x94
 943 0302 50040000 		.4byte	0x450
 944 0306 3502     		.2byte	0x235
 945 0308 0C       		.uleb128 0xc
 946 0309 27040000 		.4byte	.LASF62
 947 030d 05       		.byte	0x5
 948 030e 95       		.byte	0x95
 949 030f 8E030000 		.4byte	0x38e
 950 0313 5302     		.2byte	0x253
 951 0315 0C       		.uleb128 0xc
 952 0316 29060000 		.4byte	.LASF63
 953 031a 05       		.byte	0x5
 954 031b 96       		.byte	0x96
 955 031c 81000000 		.4byte	0x81
 956 0320 5D02     		.2byte	0x25d
 957 0322 0C       		.uleb128 0xc
 958 0323 FA040000 		.4byte	.LASF64
 959 0327 05       		.byte	0x5
 960 0328 97       		.byte	0x97
 961 0329 66040000 		.4byte	0x466
 962 032d 5E02     		.2byte	0x25e
 963 032f 0C       		.uleb128 0xc
 964 0330 A0030000 		.4byte	.LASF65
 965 0334 05       		.byte	0x5
 966 0335 98       		.byte	0x98
 967 0336 AE030000 		.4byte	0x3ae
 968 033a 6D02     		.2byte	0x26d
 969 033c 0C       		.uleb128 0xc
 970 033d 56020000 		.4byte	.LASF66
 971 0341 05       		.byte	0x5
 972 0342 99       		.byte	0x99
 973 0343 81000000 		.4byte	0x81
 974 0347 6F02     		.2byte	0x26f
 975 0349 0C       		.uleb128 0xc
 976 034a 64020000 		.4byte	.LASF67
 977 034e 05       		.byte	0x5
 978 034f 9A       		.byte	0x9a
 979 0350 81000000 		.4byte	0x81
 980 0354 7002     		.2byte	0x270
 981 0356 0C       		.uleb128 0xc
 982 0357 6E020000 		.4byte	.LASF68
 983 035b 05       		.byte	0x5
 984 035c 9B       		.byte	0x9b
 985 035d 81000000 		.4byte	0x81
 986 0361 7102     		.2byte	0x271
 987 0363 0C       		.uleb128 0xc
 988 0364 41050000 		.4byte	.LASF69
 989 0368 05       		.byte	0x5
 990 0369 9C       		.byte	0x9c
 991 036a 04040000 		.4byte	0x404
ARM GAS  C:\Users\RECEPC~1\AppData\Local\Temp\ccppYrKj.s 			page 20


 992 036e 7202     		.2byte	0x272
 993 0370 0C       		.uleb128 0xc
 994 0371 A8070000 		.4byte	.LASF70
 995 0375 05       		.byte	0x5
 996 0376 9D       		.byte	0x9d
 997 0377 04040000 		.4byte	0x404
 998 037b 7D02     		.2byte	0x27d
 999 037d 00       		.byte	0
 1000 037e 08       		.uleb128 0x8
 1001 037f 81000000 		.4byte	0x81
 1002 0383 8E030000 		.4byte	0x38e
 1003 0387 09       		.uleb128 0x9
 1004 0388 DC000000 		.4byte	0xdc
 1005 038c 18       		.byte	0x18
 1006 038d 00       		.byte	0
 1007 038e 08       		.uleb128 0x8
 1008 038f 81000000 		.4byte	0x81
 1009 0393 9E030000 		.4byte	0x39e
 1010 0397 09       		.uleb128 0x9
 1011 0398 DC000000 		.4byte	0xdc
 1012 039c 09       		.byte	0x9
 1013 039d 00       		.byte	0
 1014 039e 08       		.uleb128 0x8
 1015 039f 81000000 		.4byte	0x81
 1016 03a3 AE030000 		.4byte	0x3ae
 1017 03a7 09       		.uleb128 0x9
 1018 03a8 DC000000 		.4byte	0xdc
 1019 03ac 14       		.byte	0x14
 1020 03ad 00       		.byte	0
 1021 03ae 08       		.uleb128 0x8
 1022 03af 81000000 		.4byte	0x81
 1023 03b3 BE030000 		.4byte	0x3be
 1024 03b7 09       		.uleb128 0x9
 1025 03b8 DC000000 		.4byte	0xdc
 1026 03bc 01       		.byte	0x1
 1027 03bd 00       		.byte	0
 1028 03be 08       		.uleb128 0x8
 1029 03bf 81000000 		.4byte	0x81
 1030 03c3 D4030000 		.4byte	0x3d4
 1031 03c7 09       		.uleb128 0x9
 1032 03c8 DC000000 		.4byte	0xdc
 1033 03cc 01       		.byte	0x1
 1034 03cd 09       		.uleb128 0x9
 1035 03ce DC000000 		.4byte	0xdc
 1036 03d2 09       		.byte	0x9
 1037 03d3 00       		.byte	0
 1038 03d4 08       		.uleb128 0x8
 1039 03d5 81000000 		.4byte	0x81
 1040 03d9 E4030000 		.4byte	0x3e4
 1041 03dd 09       		.uleb128 0x9
 1042 03de DC000000 		.4byte	0xdc
 1043 03e2 04       		.byte	0x4
 1044 03e3 00       		.byte	0
 1045 03e4 08       		.uleb128 0x8
 1046 03e5 81000000 		.4byte	0x81
 1047 03e9 F4030000 		.4byte	0x3f4
 1048 03ed 09       		.uleb128 0x9
ARM GAS  C:\Users\RECEPC~1\AppData\Local\Temp\ccppYrKj.s 			page 21


 1049 03ee DC000000 		.4byte	0xdc
 1050 03f2 05       		.byte	0x5
 1051 03f3 00       		.byte	0
 1052 03f4 08       		.uleb128 0x8
 1053 03f5 81000000 		.4byte	0x81
 1054 03f9 04040000 		.4byte	0x404
 1055 03fd 09       		.uleb128 0x9
 1056 03fe DC000000 		.4byte	0xdc
 1057 0402 0D       		.byte	0xd
 1058 0403 00       		.byte	0
 1059 0404 08       		.uleb128 0x8
 1060 0405 81000000 		.4byte	0x81
 1061 0409 14040000 		.4byte	0x414
 1062 040d 09       		.uleb128 0x9
 1063 040e DC000000 		.4byte	0xdc
 1064 0412 0A       		.byte	0xa
 1065 0413 00       		.byte	0
 1066 0414 08       		.uleb128 0x8
 1067 0415 81000000 		.4byte	0x81
 1068 0419 24040000 		.4byte	0x424
 1069 041d 09       		.uleb128 0x9
 1070 041e DC000000 		.4byte	0xdc
 1071 0422 40       		.byte	0x40
 1072 0423 00       		.byte	0
 1073 0424 08       		.uleb128 0x8
 1074 0425 81000000 		.4byte	0x81
 1075 0429 3A040000 		.4byte	0x43a
 1076 042d 09       		.uleb128 0x9
 1077 042e DC000000 		.4byte	0xdc
 1078 0432 02       		.byte	0x2
 1079 0433 09       		.uleb128 0x9
 1080 0434 DC000000 		.4byte	0xdc
 1081 0438 18       		.byte	0x18
 1082 0439 00       		.byte	0
 1083 043a 08       		.uleb128 0x8
 1084 043b 81000000 		.4byte	0x81
 1085 043f 50040000 		.4byte	0x450
 1086 0443 09       		.uleb128 0x9
 1087 0444 DC000000 		.4byte	0xdc
 1088 0448 02       		.byte	0x2
 1089 0449 09       		.uleb128 0x9
 1090 044a DC000000 		.4byte	0xdc
 1091 044e 04       		.byte	0x4
 1092 044f 00       		.byte	0
 1093 0450 08       		.uleb128 0x8
 1094 0451 81000000 		.4byte	0x81
 1095 0455 66040000 		.4byte	0x466
 1096 0459 09       		.uleb128 0x9
 1097 045a DC000000 		.4byte	0xdc
 1098 045e 02       		.byte	0x2
 1099 045f 09       		.uleb128 0x9
 1100 0460 DC000000 		.4byte	0xdc
 1101 0464 09       		.byte	0x9
 1102 0465 00       		.byte	0
 1103 0466 08       		.uleb128 0x8
 1104 0467 81000000 		.4byte	0x81
 1105 046b 76040000 		.4byte	0x476
ARM GAS  C:\Users\RECEPC~1\AppData\Local\Temp\ccppYrKj.s 			page 22


 1106 046f 09       		.uleb128 0x9
 1107 0470 DC000000 		.4byte	0xdc
 1108 0474 0E       		.byte	0xe
 1109 0475 00       		.byte	0
 1110 0476 0A       		.uleb128 0xa
 1111 0477 48080000 		.4byte	.LASF72
 1112 047b 0301     		.2byte	0x103
 1113 047d 05       		.byte	0x5
 1114 047e AE       		.byte	0xae
 1115 047f FF040000 		.4byte	0x4ff
 1116 0483 0D       		.uleb128 0xd
 1117 0484 64697200 		.ascii	"dir\000"
 1118 0488 05       		.byte	0x5
 1119 0489 AF       		.byte	0xaf
 1120 048a 81000000 		.4byte	0x81
 1121 048e 00       		.byte	0
 1122 048f 0B       		.uleb128 0xb
 1123 0490 BE020000 		.4byte	.LASF73
 1124 0494 05       		.byte	0x5
 1125 0495 B0       		.byte	0xb0
 1126 0496 FF040000 		.4byte	0x4ff
 1127 049a 01       		.byte	0x1
 1128 049b 0B       		.uleb128 0xb
 1129 049c 27080000 		.4byte	.LASF74
 1130 04a0 05       		.byte	0x5
 1131 04a1 B1       		.byte	0xb1
 1132 04a2 1B050000 		.4byte	0x51b
 1133 04a6 B5       		.byte	0xb5
 1134 04a7 0B       		.uleb128 0xb
 1135 04a8 B9030000 		.4byte	.LASF75
 1136 04ac 05       		.byte	0x5
 1137 04ad B2       		.byte	0xb2
 1138 04ae F4030000 		.4byte	0x3f4
 1139 04b2 D5       		.byte	0xd5
 1140 04b3 0B       		.uleb128 0xb
 1141 04b4 9D070000 		.4byte	.LASF76
 1142 04b8 05       		.byte	0x5
 1143 04b9 B3       		.byte	0xb3
 1144 04ba F4030000 		.4byte	0x3f4
 1145 04be E3       		.byte	0xe3
 1146 04bf 0B       		.uleb128 0xb
 1147 04c0 D1030000 		.4byte	.LASF77
 1148 04c4 05       		.byte	0x5
 1149 04c5 B4       		.byte	0xb4
 1150 04c6 F4030000 		.4byte	0x3f4
 1151 04ca F1       		.byte	0xf1
 1152 04cb 0B       		.uleb128 0xb
 1153 04cc F6070000 		.4byte	.LASF78
 1154 04d0 05       		.byte	0x5
 1155 04d1 B5       		.byte	0xb5
 1156 04d2 81000000 		.4byte	0x81
 1157 04d6 FF       		.byte	0xff
 1158 04d7 0C       		.uleb128 0xc
 1159 04d8 1E060000 		.4byte	.LASF79
 1160 04dc 05       		.byte	0x5
 1161 04dd B6       		.byte	0xb6
 1162 04de 81000000 		.4byte	0x81
ARM GAS  C:\Users\RECEPC~1\AppData\Local\Temp\ccppYrKj.s 			page 23


 1163 04e2 0001     		.2byte	0x100
 1164 04e4 0C       		.uleb128 0xc
 1165 04e5 89010000 		.4byte	.LASF80
 1166 04e9 05       		.byte	0x5
 1167 04ea B7       		.byte	0xb7
 1168 04eb 81000000 		.4byte	0x81
 1169 04ef 0101     		.2byte	0x101
 1170 04f1 0C       		.uleb128 0xc
 1171 04f2 71050000 		.4byte	.LASF81
 1172 04f6 05       		.byte	0x5
 1173 04f7 B8       		.byte	0xb8
 1174 04f8 81000000 		.4byte	0x81
 1175 04fc 0201     		.2byte	0x102
 1176 04fe 00       		.byte	0
 1177 04ff 08       		.uleb128 0x8
 1178 0500 81000000 		.4byte	0x81
 1179 0504 1B050000 		.4byte	0x51b
 1180 0508 09       		.uleb128 0x9
 1181 0509 DC000000 		.4byte	0xdc
 1182 050d 03       		.byte	0x3
 1183 050e 09       		.uleb128 0x9
 1184 050f DC000000 		.4byte	0xdc
 1185 0513 02       		.byte	0x2
 1186 0514 09       		.uleb128 0x9
 1187 0515 DC000000 		.4byte	0xdc
 1188 0519 0E       		.byte	0xe
 1189 051a 00       		.byte	0
 1190 051b 08       		.uleb128 0x8
 1191 051c 81000000 		.4byte	0x81
 1192 0520 31050000 		.4byte	0x531
 1193 0524 09       		.uleb128 0x9
 1194 0525 DC000000 		.4byte	0xdc
 1195 0529 03       		.byte	0x3
 1196 052a 09       		.uleb128 0x9
 1197 052b DC000000 		.4byte	0xdc
 1198 052f 07       		.byte	0x7
 1199 0530 00       		.byte	0
 1200 0531 0A       		.uleb128 0xa
 1201 0532 27070000 		.4byte	.LASF82
 1202 0536 0C04     		.2byte	0x40c
 1203 0538 05       		.byte	0x5
 1204 0539 BB       		.byte	0xbb
 1205 053a 6A050000 		.4byte	0x56a
 1206 053e 0D       		.uleb128 0xd
 1207 053f 6100     		.ascii	"a\000"
 1208 0541 05       		.byte	0x5
 1209 0542 BC       		.byte	0xbc
 1210 0543 76040000 		.4byte	0x476
 1211 0547 00       		.byte	0
 1212 0548 0E       		.uleb128 0xe
 1213 0549 6200     		.ascii	"b\000"
 1214 054b 05       		.byte	0x5
 1215 054c BD       		.byte	0xbd
 1216 054d 76040000 		.4byte	0x476
 1217 0551 0301     		.2byte	0x103
 1218 0553 0E       		.uleb128 0xe
 1219 0554 6300     		.ascii	"c\000"
ARM GAS  C:\Users\RECEPC~1\AppData\Local\Temp\ccppYrKj.s 			page 24


 1220 0556 05       		.byte	0x5
 1221 0557 BE       		.byte	0xbe
 1222 0558 76040000 		.4byte	0x476
 1223 055c 0602     		.2byte	0x206
 1224 055e 0E       		.uleb128 0xe
 1225 055f 6400     		.ascii	"d\000"
 1226 0561 05       		.byte	0x5
 1227 0562 BF       		.byte	0xbf
 1228 0563 76040000 		.4byte	0x476
 1229 0567 0903     		.2byte	0x309
 1230 0569 00       		.byte	0
 1231 056a 0F       		.uleb128 0xf
 1232 056b A9030000 		.4byte	.LASF163
 1233 056f 01       		.byte	0x1
 1234 0570 17       		.byte	0x17
 1235 0571 81000000 		.4byte	0x81
 1236 0575 00000000 		.4byte	.LFB63
 1237 0579 34000000 		.4byte	.LFE63-.LFB63
 1238 057d 01       		.uleb128 0x1
 1239 057e 9C       		.byte	0x9c
 1240 057f FC050000 		.4byte	0x5fc
 1241 0583 10       		.uleb128 0x10
 1242 0584 74030000 		.4byte	.LASF83
 1243 0588 01       		.byte	0x1
 1244 0589 17       		.byte	0x17
 1245 058a FC050000 		.4byte	0x5fc
 1246 058e 00000000 		.4byte	.LLST0
 1247 0592 10       		.uleb128 0x10
 1248 0593 5B040000 		.4byte	.LASF84
 1249 0597 01       		.byte	0x1
 1250 0598 17       		.byte	0x17
 1251 0599 8D000000 		.4byte	0x8d
 1252 059d 2C000000 		.4byte	.LLST1
 1253 05a1 11       		.uleb128 0x11
 1254 05a2 67010000 		.4byte	.LASF85
 1255 05a6 01       		.byte	0x1
 1256 05a7 18       		.byte	0x18
 1257 05a8 81000000 		.4byte	0x81
 1258 05ac 4D000000 		.4byte	.LLST2
 1259 05b0 11       		.uleb128 0x11
 1260 05b1 70010000 		.4byte	.LASF86
 1261 05b5 01       		.byte	0x1
 1262 05b6 18       		.byte	0x18
 1263 05b7 81000000 		.4byte	0x81
 1264 05bb 77000000 		.4byte	.LLST3
 1265 05bf 12       		.uleb128 0x12
 1266 05c0 6900     		.ascii	"i\000"
 1267 05c2 01       		.byte	0x1
 1268 05c3 19       		.byte	0x19
 1269 05c4 8D000000 		.4byte	0x8d
 1270 05c8 8A000000 		.4byte	.LLST4
 1271 05cc 13       		.uleb128 0x13
 1272 05cd 31030000 		.4byte	.LASF87
 1273 05d1 01       		.byte	0x1
 1274 05d2 1A       		.byte	0x1a
 1275 05d3 02060000 		.4byte	0x602
 1276 05d7 03       		.uleb128 0x3
ARM GAS  C:\Users\RECEPC~1\AppData\Local\Temp\ccppYrKj.s 			page 25


 1277 05d8 91       		.byte	0x91
 1278 05d9 F07D     		.sleb128 -272
 1279 05db 14       		.uleb128 0x14
 1280 05dc 14000000 		.4byte	.LVL3
 1281 05e0 D20B0000 		.4byte	0xbd2
 1282 05e4 15       		.uleb128 0x15
 1283 05e5 01       		.uleb128 0x1
 1284 05e6 52       		.byte	0x52
 1285 05e7 03       		.uleb128 0x3
 1286 05e8 0A       		.byte	0xa
 1287 05e9 0001     		.2byte	0x100
 1288 05eb 15       		.uleb128 0x15
 1289 05ec 01       		.uleb128 0x1
 1290 05ed 51       		.byte	0x51
 1291 05ee 05       		.uleb128 0x5
 1292 05ef 03       		.byte	0x3
 1293 05f0 00000000 		.4byte	.LANCHOR0
 1294 05f4 15       		.uleb128 0x15
 1295 05f5 01       		.uleb128 0x1
 1296 05f6 50       		.byte	0x50
 1297 05f7 02       		.uleb128 0x2
 1298 05f8 7D       		.byte	0x7d
 1299 05f9 00       		.sleb128 0
 1300 05fa 00       		.byte	0
 1301 05fb 00       		.byte	0
 1302 05fc 16       		.uleb128 0x16
 1303 05fd 04       		.byte	0x4
 1304 05fe 81000000 		.4byte	0x81
 1305 0602 08       		.uleb128 0x8
 1306 0603 81000000 		.4byte	0x81
 1307 0607 12060000 		.4byte	0x612
 1308 060b 09       		.uleb128 0x9
 1309 060c DC000000 		.4byte	0xdc
 1310 0610 FF       		.byte	0xff
 1311 0611 00       		.byte	0
 1312 0612 17       		.uleb128 0x17
 1313 0613 29000000 		.4byte	.LASF164
 1314 0617 01       		.byte	0x1
 1315 0618 36       		.byte	0x36
 1316 0619 00000000 		.4byte	.LFB64
 1317 061d B0000000 		.4byte	.LFE64-.LFB64
 1318 0621 01       		.uleb128 0x1
 1319 0622 9C       		.byte	0x9c
 1320 0623 FF060000 		.4byte	0x6ff
 1321 0627 11       		.uleb128 0x11
 1322 0628 19000000 		.4byte	.LASF88
 1323 062c 01       		.byte	0x1
 1324 062d 37       		.byte	0x37
 1325 062e 8D000000 		.4byte	0x8d
 1326 0632 B4000000 		.4byte	.LLST5
 1327 0636 11       		.uleb128 0x11
 1328 0637 21000000 		.4byte	.LASF89
 1329 063b 01       		.byte	0x1
 1330 063c 37       		.byte	0x37
 1331 063d 8D000000 		.4byte	0x8d
 1332 0641 D2000000 		.4byte	.LLST6
 1333 0645 18       		.uleb128 0x18
ARM GAS  C:\Users\RECEPC~1\AppData\Local\Temp\ccppYrKj.s 			page 26


 1334 0646 5B040000 		.4byte	.LASF84
 1335 064a 01       		.byte	0x1
 1336 064b 37       		.byte	0x37
 1337 064c 8D000000 		.4byte	0x8d
 1338 0650 12       		.uleb128 0x12
 1339 0651 6900     		.ascii	"i\000"
 1340 0653 01       		.byte	0x1
 1341 0654 37       		.byte	0x37
 1342 0655 8D000000 		.4byte	0x8d
 1343 0659 F0000000 		.4byte	.LLST7
 1344 065d 12       		.uleb128 0x12
 1345 065e 7800     		.ascii	"x\000"
 1346 0660 01       		.byte	0x1
 1347 0661 37       		.byte	0x37
 1348 0662 8D000000 		.4byte	0x8d
 1349 0666 19010000 		.4byte	.LLST8
 1350 066a 19       		.uleb128 0x19
 1351 066b 7900     		.ascii	"y\000"
 1352 066d 01       		.byte	0x1
 1353 066e 37       		.byte	0x37
 1354 066f 8D000000 		.4byte	0x8d
 1355 0673 19       		.uleb128 0x19
 1356 0674 7A00     		.ascii	"z\000"
 1357 0676 01       		.byte	0x1
 1358 0677 37       		.byte	0x37
 1359 0678 8D000000 		.4byte	0x8d
 1360 067c 19       		.uleb128 0x19
 1361 067d 61757800 		.ascii	"aux\000"
 1362 0681 01       		.byte	0x1
 1363 0682 38       		.byte	0x38
 1364 0683 66040000 		.4byte	0x466
 1365 0687 18       		.uleb128 0x18
 1366 0688 D2040000 		.4byte	.LASF90
 1367 068c 01       		.byte	0x1
 1368 068d 38       		.byte	0x38
 1369 068e 81000000 		.4byte	0x81
 1370 0692 1A       		.uleb128 0x1a
 1371 0693 06000000 		.4byte	.LVL10
 1372 0697 F60B0000 		.4byte	0xbf6
 1373 069b 1A       		.uleb128 0x1a
 1374 069c 0E000000 		.4byte	.LVL11
 1375 06a0 F60B0000 		.4byte	0xbf6
 1376 06a4 1B       		.uleb128 0x1b
 1377 06a5 16000000 		.4byte	.LVL13
 1378 06a9 010C0000 		.4byte	0xc01
 1379 06ad B8060000 		.4byte	0x6b8
 1380 06b1 15       		.uleb128 0x15
 1381 06b2 01       		.uleb128 0x1
 1382 06b3 50       		.byte	0x50
 1383 06b4 02       		.uleb128 0x2
 1384 06b5 08       		.byte	0x8
 1385 06b6 64       		.byte	0x64
 1386 06b7 00       		.byte	0
 1387 06b8 1A       		.uleb128 0x1a
 1388 06b9 1A000000 		.4byte	.LVL14
 1389 06bd F60B0000 		.4byte	0xbf6
 1390 06c1 1A       		.uleb128 0x1a
ARM GAS  C:\Users\RECEPC~1\AppData\Local\Temp\ccppYrKj.s 			page 27


 1391 06c2 24000000 		.4byte	.LVL16
 1392 06c6 120C0000 		.4byte	0xc12
 1393 06ca 1A       		.uleb128 0x1a
 1394 06cb 34000000 		.4byte	.LVL21
 1395 06cf F60B0000 		.4byte	0xbf6
 1396 06d3 1B       		.uleb128 0x1b
 1397 06d4 86000000 		.4byte	.LVL23
 1398 06d8 6A050000 		.4byte	0x56a
 1399 06dc EC060000 		.4byte	0x6ec
 1400 06e0 15       		.uleb128 0x15
 1401 06e1 01       		.uleb128 0x1
 1402 06e2 51       		.byte	0x51
 1403 06e3 01       		.uleb128 0x1
 1404 06e4 39       		.byte	0x39
 1405 06e5 15       		.uleb128 0x15
 1406 06e6 01       		.uleb128 0x1
 1407 06e7 50       		.byte	0x50
 1408 06e8 02       		.uleb128 0x2
 1409 06e9 74       		.byte	0x74
 1410 06ea 00       		.sleb128 0
 1411 06eb 00       		.byte	0
 1412 06ec 1A       		.uleb128 0x1a
 1413 06ed 94000000 		.4byte	.LVL26
 1414 06f1 1D0C0000 		.4byte	0xc1d
 1415 06f5 1A       		.uleb128 0x1a
 1416 06f6 A0000000 		.4byte	.LVL30
 1417 06fa 2E0C0000 		.4byte	0xc2e
 1418 06fe 00       		.byte	0
 1419 06ff 1C       		.uleb128 0x1c
 1420 0700 29050000 		.4byte	.LASF91
 1421 0704 06       		.byte	0x6
 1422 0705 5506     		.2byte	0x655
 1423 0707 0B070000 		.4byte	0x70b
 1424 070b 06       		.uleb128 0x6
 1425 070c 76000000 		.4byte	0x76
 1426 0710 1D       		.uleb128 0x1d
 1427 0711 D9030000 		.4byte	.LASF92
 1428 0715 05       		.byte	0x5
 1429 0716 2C       		.byte	0x2c
 1430 0717 21070000 		.4byte	0x721
 1431 071b 05       		.uleb128 0x5
 1432 071c 03       		.byte	0x3
 1433 071d 00000000 		.4byte	countAnimation1
 1434 0721 06       		.uleb128 0x6
 1435 0722 B3000000 		.4byte	0xb3
 1436 0726 1D       		.uleb128 0x1d
 1437 0727 17040000 		.4byte	.LASF93
 1438 072b 05       		.byte	0x5
 1439 072c 2D       		.byte	0x2d
 1440 072d 21070000 		.4byte	0x721
 1441 0731 05       		.uleb128 0x5
 1442 0732 03       		.byte	0x3
 1443 0733 00000000 		.4byte	countAnimation2
 1444 0737 1D       		.uleb128 0x1d
 1445 0738 23030000 		.4byte	.LASF94
 1446 073c 05       		.byte	0x5
 1447 073d 2E       		.byte	0x2e
ARM GAS  C:\Users\RECEPC~1\AppData\Local\Temp\ccppYrKj.s 			page 28


 1448 073e 21070000 		.4byte	0x721
 1449 0742 05       		.uleb128 0x5
 1450 0743 03       		.byte	0x3
 1451 0744 00000000 		.4byte	countBeagleTX
 1452 0748 1D       		.uleb128 0x1d
 1453 0749 E5070000 		.4byte	.LASF95
 1454 074d 05       		.byte	0x5
 1455 074e 2F       		.byte	0x2f
 1456 074f 21070000 		.4byte	0x721
 1457 0753 05       		.uleb128 0x5
 1458 0754 03       		.byte	0x3
 1459 0755 00000000 		.4byte	countPump
 1460 0759 1D       		.uleb128 0x1d
 1461 075a 7D020000 		.4byte	.LASF96
 1462 075e 05       		.byte	0x5
 1463 075f 30       		.byte	0x30
 1464 0760 D7000000 		.4byte	0xd7
 1465 0764 05       		.uleb128 0x5
 1466 0765 03       		.byte	0x3
 1467 0766 00000000 		.4byte	flowDisplay1
 1468 076a 1D       		.uleb128 0x1d
 1469 076b 8A020000 		.4byte	.LASF97
 1470 076f 05       		.byte	0x5
 1471 0770 31       		.byte	0x31
 1472 0771 D7000000 		.4byte	0xd7
 1473 0775 05       		.uleb128 0x5
 1474 0776 03       		.byte	0x3
 1475 0777 00000000 		.4byte	flowDisplay2
 1476 077b 1D       		.uleb128 0x1d
 1477 077c 97020000 		.4byte	.LASF98
 1478 0780 05       		.byte	0x5
 1479 0781 32       		.byte	0x32
 1480 0782 D7000000 		.4byte	0xd7
 1481 0786 05       		.uleb128 0x5
 1482 0787 03       		.byte	0x3
 1483 0788 00000000 		.4byte	flowDisplay3
 1484 078c 1D       		.uleb128 0x1d
 1485 078d A4020000 		.4byte	.LASF99
 1486 0791 05       		.byte	0x5
 1487 0792 33       		.byte	0x33
 1488 0793 D7000000 		.4byte	0xd7
 1489 0797 05       		.uleb128 0x5
 1490 0798 03       		.byte	0x3
 1491 0799 00000000 		.4byte	flowDisplay4
 1492 079d 1D       		.uleb128 0x1d
 1493 079e 0B030000 		.4byte	.LASF100
 1494 07a2 05       		.byte	0x5
 1495 07a3 34       		.byte	0x34
 1496 07a4 D2000000 		.4byte	0xd2
 1497 07a8 05       		.uleb128 0x5
 1498 07a9 03       		.byte	0x3
 1499 07aa 00000000 		.4byte	numberKeys1
 1500 07ae 1D       		.uleb128 0x1d
 1501 07af 17030000 		.4byte	.LASF101
 1502 07b3 05       		.byte	0x5
 1503 07b4 35       		.byte	0x35
 1504 07b5 D2000000 		.4byte	0xd2
ARM GAS  C:\Users\RECEPC~1\AppData\Local\Temp\ccppYrKj.s 			page 29


 1505 07b9 05       		.uleb128 0x5
 1506 07ba 03       		.byte	0x3
 1507 07bb 00000000 		.4byte	numberKeys2
 1508 07bf 1D       		.uleb128 0x1d
 1509 07c0 AD040000 		.4byte	.LASF102
 1510 07c4 05       		.byte	0x5
 1511 07c5 36       		.byte	0x36
 1512 07c6 D2000000 		.4byte	0xd2
 1513 07ca 05       		.uleb128 0x5
 1514 07cb 03       		.byte	0x3
 1515 07cc 00000000 		.4byte	flagPoint1
 1516 07d0 1D       		.uleb128 0x1d
 1517 07d1 20010000 		.4byte	.LASF103
 1518 07d5 05       		.byte	0x5
 1519 07d6 37       		.byte	0x37
 1520 07d7 D2000000 		.4byte	0xd2
 1521 07db 05       		.uleb128 0x5
 1522 07dc 03       		.byte	0x3
 1523 07dd 00000000 		.4byte	flagPoint2
 1524 07e1 1D       		.uleb128 0x1d
 1525 07e2 21020000 		.4byte	.LASF104
 1526 07e6 05       		.byte	0x5
 1527 07e7 38       		.byte	0x38
 1528 07e8 D2000000 		.4byte	0xd2
 1529 07ec 05       		.uleb128 0x5
 1530 07ed 03       		.byte	0x3
 1531 07ee 00000000 		.4byte	productNumber
 1532 07f2 1D       		.uleb128 0x1d
 1533 07f3 D7050000 		.4byte	.LASF105
 1534 07f7 05       		.byte	0x5
 1535 07f8 39       		.byte	0x39
 1536 07f9 D7000000 		.4byte	0xd7
 1537 07fd 05       		.uleb128 0x5
 1538 07fe 03       		.byte	0x3
 1539 07ff 00000000 		.4byte	delayPicture1
 1540 0803 1D       		.uleb128 0x1d
 1541 0804 E5050000 		.4byte	.LASF106
 1542 0808 05       		.byte	0x5
 1543 0809 3A       		.byte	0x3a
 1544 080a D7000000 		.4byte	0xd7
 1545 080e 05       		.uleb128 0x5
 1546 080f 03       		.byte	0x3
 1547 0810 00000000 		.4byte	delayPicture2
 1548 0814 1D       		.uleb128 0x1d
 1549 0815 93040000 		.4byte	.LASF107
 1550 0819 05       		.byte	0x5
 1551 081a 3B       		.byte	0x3b
 1552 081b D2000000 		.4byte	0xd2
 1553 081f 05       		.uleb128 0x5
 1554 0820 03       		.byte	0x3
 1555 0821 00000000 		.4byte	ppux10
 1556 0825 1D       		.uleb128 0x1d
 1557 0826 86000000 		.4byte	.LASF108
 1558 082a 05       		.byte	0x5
 1559 082b 3C       		.byte	0x3c
 1560 082c D2000000 		.4byte	0xd2
 1561 0830 05       		.uleb128 0x5
ARM GAS  C:\Users\RECEPC~1\AppData\Local\Temp\ccppYrKj.s 			page 30


 1562 0831 03       		.byte	0x3
 1563 0832 00000000 		.4byte	decimalMoney
 1564 0836 1D       		.uleb128 0x1d
 1565 0837 47000000 		.4byte	.LASF109
 1566 083b 05       		.byte	0x5
 1567 083c 3D       		.byte	0x3d
 1568 083d D2000000 		.4byte	0xd2
 1569 0841 05       		.uleb128 0x5
 1570 0842 03       		.byte	0x3
 1571 0843 00000000 		.4byte	decimalVolume
 1572 0847 1D       		.uleb128 0x1d
 1573 0848 CA040000 		.4byte	.LASF110
 1574 084c 05       		.byte	0x5
 1575 084d 3E       		.byte	0x3e
 1576 084e 58080000 		.4byte	0x858
 1577 0852 05       		.uleb128 0x5
 1578 0853 03       		.byte	0x3
 1579 0854 00000000 		.4byte	symbols
 1580 0858 06       		.uleb128 0x6
 1581 0859 AE030000 		.4byte	0x3ae
 1582 085d 08       		.uleb128 0x8
 1583 085e 81000000 		.4byte	0x81
 1584 0862 6D080000 		.4byte	0x86d
 1585 0866 09       		.uleb128 0x9
 1586 0867 DC000000 		.4byte	0xdc
 1587 086b 02       		.byte	0x2
 1588 086c 00       		.byte	0
 1589 086d 1D       		.uleb128 0x1d
 1590 086e DC010000 		.4byte	.LASF111
 1591 0872 05       		.byte	0x5
 1592 0873 3F       		.byte	0x3f
 1593 0874 7E080000 		.4byte	0x87e
 1594 0878 05       		.uleb128 0x5
 1595 0879 03       		.byte	0x3
 1596 087a 00000000 		.4byte	time
 1597 087e 06       		.uleb128 0x6
 1598 087f 5D080000 		.4byte	0x85d
 1599 0883 1D       		.uleb128 0x1d
 1600 0884 54030000 		.4byte	.LASF112
 1601 0888 05       		.byte	0x5
 1602 0889 40       		.byte	0x40
 1603 088a 94080000 		.4byte	0x894
 1604 088e 05       		.uleb128 0x5
 1605 088f 03       		.byte	0x3
 1606 0890 00000000 		.4byte	date
 1607 0894 06       		.uleb128 0x6
 1608 0895 5D080000 		.4byte	0x85d
 1609 0899 1D       		.uleb128 0x1d
 1610 089a 2B010000 		.4byte	.LASF113
 1611 089e 05       		.byte	0x5
 1612 089f 41       		.byte	0x41
 1613 08a0 AA080000 		.4byte	0x8aa
 1614 08a4 05       		.uleb128 0x5
 1615 08a5 03       		.byte	0x3
 1616 08a6 00000000 		.4byte	screen
 1617 08aa 06       		.uleb128 0x6
 1618 08ab AE030000 		.4byte	0x3ae
ARM GAS  C:\Users\RECEPC~1\AppData\Local\Temp\ccppYrKj.s 			page 31


 1619 08af 1D       		.uleb128 0x1d
 1620 08b0 DF000000 		.4byte	.LASF114
 1621 08b4 05       		.byte	0x5
 1622 08b5 42       		.byte	0x42
 1623 08b6 C0080000 		.4byte	0x8c0
 1624 08ba 05       		.uleb128 0x5
 1625 08bb 03       		.byte	0x3
 1626 08bc 00000000 		.4byte	residue
 1627 08c0 06       		.uleb128 0x6
 1628 08c1 F4030000 		.4byte	0x3f4
 1629 08c5 08       		.uleb128 0x8
 1630 08c6 81000000 		.4byte	0x81
 1631 08ca D5080000 		.4byte	0x8d5
 1632 08ce 09       		.uleb128 0x9
 1633 08cf DC000000 		.4byte	0xdc
 1634 08d3 1D       		.byte	0x1d
 1635 08d4 00       		.byte	0
 1636 08d5 1D       		.uleb128 0x1d
 1637 08d6 72070000 		.4byte	.LASF115
 1638 08da 05       		.byte	0x5
 1639 08db 43       		.byte	0x43
 1640 08dc C5080000 		.4byte	0x8c5
 1641 08e0 05       		.uleb128 0x5
 1642 08e1 03       		.byte	0x3
 1643 08e2 00000000 		.4byte	temporal
 1644 08e6 1D       		.uleb128 0x1d
 1645 08e7 2F020000 		.4byte	.LASF116
 1646 08eb 05       		.byte	0x5
 1647 08ec 44       		.byte	0x44
 1648 08ed F7080000 		.4byte	0x8f7
 1649 08f1 05       		.uleb128 0x5
 1650 08f2 03       		.byte	0x3
 1651 08f3 00000000 		.4byte	idSeller
 1652 08f7 06       		.uleb128 0x6
 1653 08f8 7E030000 		.4byte	0x37e
 1654 08fc 1D       		.uleb128 0x1d
 1655 08fd 49050000 		.4byte	.LASF117
 1656 0901 05       		.byte	0x5
 1657 0902 45       		.byte	0x45
 1658 0903 D2000000 		.4byte	0xd2
 1659 0907 05       		.uleb128 0x5
 1660 0908 03       		.byte	0x3
 1661 0909 00000000 		.4byte	typeIdSeller
 1662 090d 08       		.uleb128 0x8
 1663 090e 81000000 		.4byte	0x81
 1664 0912 1D090000 		.4byte	0x91d
 1665 0916 09       		.uleb128 0x9
 1666 0917 DC000000 		.4byte	0xdc
 1667 091b 07       		.byte	0x7
 1668 091c 00       		.byte	0
 1669 091d 1D       		.uleb128 0x1d
 1670 091e A7050000 		.4byte	.LASF118
 1671 0922 05       		.byte	0x5
 1672 0923 46       		.byte	0x46
 1673 0924 2E090000 		.4byte	0x92e
 1674 0928 05       		.uleb128 0x5
 1675 0929 03       		.byte	0x3
ARM GAS  C:\Users\RECEPC~1\AppData\Local\Temp\ccppYrKj.s 			page 32


 1676 092a 00000000 		.4byte	passwordSeller
 1677 092e 06       		.uleb128 0x6
 1678 092f 0D090000 		.4byte	0x90d
 1679 0933 1D       		.uleb128 0x1d
 1680 0934 67040000 		.4byte	.LASF119
 1681 0938 05       		.byte	0x5
 1682 0939 47       		.byte	0x47
 1683 093a D2000000 		.4byte	0xd2
 1684 093e 05       		.uleb128 0x5
 1685 093f 03       		.byte	0x3
 1686 0940 00000000 		.4byte	flagResetMux
 1687 0944 1D       		.uleb128 0x1d
 1688 0945 F6030000 		.4byte	.LASF120
 1689 0949 05       		.byte	0x5
 1690 094a 48       		.byte	0x48
 1691 094b D2000000 		.4byte	0xd2
 1692 094f 05       		.uleb128 0x5
 1693 0950 03       		.byte	0x3
 1694 0951 00000000 		.4byte	stateBeagleSoft
 1695 0955 1D       		.uleb128 0x1d
 1696 0956 55000000 		.4byte	.LASF121
 1697 095a 05       		.byte	0x5
 1698 095b 49       		.byte	0x49
 1699 095c 66090000 		.4byte	0x966
 1700 0960 05       		.uleb128 0x5
 1701 0961 03       		.byte	0x3
 1702 0962 00000000 		.4byte	PrevStatePump
 1703 0966 06       		.uleb128 0x6
 1704 0967 E5000000 		.4byte	0xe5
 1705 096b 1D       		.uleb128 0x1d
 1706 096c 4A010000 		.4byte	.LASF122
 1707 0970 05       		.byte	0x5
 1708 0971 4A       		.byte	0x4a
 1709 0972 D2000000 		.4byte	0xd2
 1710 0976 05       		.uleb128 0x5
 1711 0977 03       		.byte	0x3
 1712 0978 00000000 		.4byte	PlateRequest
 1713 097c 1D       		.uleb128 0x1d
 1714 097d 22050000 		.4byte	.LASF123
 1715 0981 05       		.byte	0x5
 1716 0982 4B       		.byte	0x4b
 1717 0983 8D090000 		.4byte	0x98d
 1718 0987 05       		.uleb128 0x5
 1719 0988 03       		.byte	0x3
 1720 0989 00000000 		.4byte	IDCast
 1721 098d 06       		.uleb128 0x6
 1722 098e E5000000 		.4byte	0xe5
 1723 0992 1D       		.uleb128 0x1d
 1724 0993 C7050000 		.4byte	.LASF124
 1725 0997 05       		.byte	0x5
 1726 0998 4D       		.byte	0x4d
 1727 0999 81000000 		.4byte	0x81
 1728 099d 05       		.uleb128 0x5
 1729 099e 03       		.byte	0x3
 1730 099f 00000000 		.4byte	UnitType
 1731 09a3 1D       		.uleb128 0x1d
 1732 09a4 FA020000 		.4byte	.LASF125
ARM GAS  C:\Users\RECEPC~1\AppData\Local\Temp\ccppYrKj.s 			page 33


 1733 09a8 05       		.byte	0x5
 1734 09a9 4D       		.byte	0x4d
 1735 09aa 81000000 		.4byte	0x81
 1736 09ae 05       		.uleb128 0x5
 1737 09af 03       		.byte	0x3
 1738 09b0 00000000 		.4byte	ConversionFactor
 1739 09b4 1D       		.uleb128 0x1d
 1740 09b5 76010000 		.4byte	.LASF126
 1741 09b9 05       		.byte	0x5
 1742 09ba 4D       		.byte	0x4d
 1743 09bb 81000000 		.4byte	0x81
 1744 09bf 05       		.uleb128 0x5
 1745 09c0 03       		.byte	0x3
 1746 09c1 00000000 		.4byte	MoneyDec
 1747 09c5 1D       		.uleb128 0x1d
 1748 09c6 7B070000 		.4byte	.LASF127
 1749 09ca 05       		.byte	0x5
 1750 09cb 4D       		.byte	0x4d
 1751 09cc 81000000 		.4byte	0x81
 1752 09d0 05       		.uleb128 0x5
 1753 09d1 03       		.byte	0x3
 1754 09d2 00000000 		.4byte	VolDec
 1755 09d6 1D       		.uleb128 0x1d
 1756 09d7 17060000 		.4byte	.LASF128
 1757 09db 05       		.byte	0x5
 1758 09dc 4D       		.byte	0x4d
 1759 09dd 81000000 		.4byte	0x81
 1760 09e1 05       		.uleb128 0x5
 1761 09e2 03       		.byte	0x3
 1762 09e3 00000000 		.4byte	PPUDec
 1763 09e7 1D       		.uleb128 0x1d
 1764 09e8 EE000000 		.4byte	.LASF129
 1765 09ec 05       		.byte	0x5
 1766 09ed 4D       		.byte	0x4d
 1767 09ee 81000000 		.4byte	0x81
 1768 09f2 05       		.uleb128 0x5
 1769 09f3 03       		.byte	0x3
 1770 09f4 00000000 		.4byte	DDMode
 1771 09f8 1D       		.uleb128 0x1d
 1772 09f9 6B000000 		.4byte	.LASF130
 1773 09fd 05       		.byte	0x5
 1774 09fe 4E       		.byte	0x4e
 1775 09ff E5000000 		.4byte	0xe5
 1776 0a03 05       		.uleb128 0x5
 1777 0a04 03       		.byte	0x3
 1778 0a05 00000000 		.4byte	statePump
 1779 0a09 1D       		.uleb128 0x1d
 1780 0a0a E9030000 		.4byte	.LASF131
 1781 0a0e 05       		.byte	0x5
 1782 0a0f 4F       		.byte	0x4f
 1783 0a10 81000000 		.4byte	0x81
 1784 0a14 05       		.uleb128 0x5
 1785 0a15 03       		.byte	0x3
 1786 0a16 00000000 		.4byte	NumPositions
 1787 0a1a 1D       		.uleb128 0x1d
 1788 0a1b 41020000 		.4byte	.LASF132
 1789 0a1f 05       		.byte	0x5
ARM GAS  C:\Users\RECEPC~1\AppData\Local\Temp\ccppYrKj.s 			page 34


 1790 0a20 50       		.byte	0x50
 1791 0a21 81000000 		.4byte	0x81
 1792 0a25 05       		.uleb128 0x5
 1793 0a26 03       		.byte	0x3
 1794 0a27 00000000 		.4byte	lockTurn
 1795 0a2b 1D       		.uleb128 0x1d
 1796 0a2c D5010000 		.4byte	.LASF133
 1797 0a30 05       		.byte	0x5
 1798 0a31 51       		.byte	0x51
 1799 0a32 81000000 		.4byte	0x81
 1800 0a36 05       		.uleb128 0x5
 1801 0a37 03       		.byte	0x3
 1802 0a38 00000000 		.4byte	digits
 1803 0a3c 1D       		.uleb128 0x1d
 1804 0a3d 36050000 		.4byte	.LASF134
 1805 0a41 05       		.byte	0x5
 1806 0a42 52       		.byte	0x52
 1807 0a43 81000000 		.4byte	0x81
 1808 0a47 05       		.uleb128 0x5
 1809 0a48 03       		.byte	0x3
 1810 0a49 00000000 		.4byte	hiddenKeys
 1811 0a4d 1D       		.uleb128 0x1d
 1812 0a4e BA000000 		.4byte	.LASF135
 1813 0a52 05       		.byte	0x5
 1814 0a53 53       		.byte	0x53
 1815 0a54 81000000 		.4byte	0x81
 1816 0a58 05       		.uleb128 0x5
 1817 0a59 03       		.byte	0x3
 1818 0a5a 00000000 		.4byte	PrinterType
 1819 0a5e 08       		.uleb128 0x8
 1820 0a5f BF000000 		.4byte	0xbf
 1821 0a63 6E0A0000 		.4byte	0xa6e
 1822 0a67 09       		.uleb128 0x9
 1823 0a68 DC000000 		.4byte	0xdc
 1824 0a6c 05       		.byte	0x5
 1825 0a6d 00       		.byte	0
 1826 0a6e 1D       		.uleb128 0x1d
 1827 0a6f 1A050000 		.4byte	.LASF136
 1828 0a73 05       		.byte	0x5
 1829 0a74 54       		.byte	0x54
 1830 0a75 5E0A0000 		.4byte	0xa5e
 1831 0a79 05       		.uleb128 0x5
 1832 0a7a 03       		.byte	0x3
 1833 0a7b 00000000 		.4byte	VolUnit
 1834 0a7f 1D       		.uleb128 0x1d
 1835 0a80 DF040000 		.4byte	.LASF137
 1836 0a84 05       		.byte	0x5
 1837 0a85 55       		.byte	0x55
 1838 0a86 5D080000 		.4byte	0x85d
 1839 0a8a 05       		.uleb128 0x5
 1840 0a8b 03       		.byte	0x3
 1841 0a8c 00000000 		.4byte	dateDownHandle
 1842 0a90 1D       		.uleb128 0x1d
 1843 0a91 33040000 		.4byte	.LASF138
 1844 0a95 05       		.byte	0x5
 1845 0a96 56       		.byte	0x56
 1846 0a97 AE030000 		.4byte	0x3ae
ARM GAS  C:\Users\RECEPC~1\AppData\Local\Temp\ccppYrKj.s 			page 35


 1847 0a9b 05       		.uleb128 0x5
 1848 0a9c 03       		.byte	0x3
 1849 0a9d 00000000 		.4byte	timeDownHandle
 1850 0aa1 1D       		.uleb128 0x1d
 1851 0aa2 C2070000 		.4byte	.LASF139
 1852 0aa6 05       		.byte	0x5
 1853 0aa7 57       		.byte	0x57
 1854 0aa8 81000000 		.4byte	0x81
 1855 0aac 05       		.uleb128 0x5
 1856 0aad 03       		.byte	0x3
 1857 0aae 00000000 		.4byte	count_protector
 1858 0ab2 1D       		.uleb128 0x1d
 1859 0ab3 36000000 		.4byte	.LASF140
 1860 0ab7 05       		.byte	0x5
 1861 0ab8 57       		.byte	0x57
 1862 0ab9 81000000 		.4byte	0x81
 1863 0abd 05       		.uleb128 0x5
 1864 0abe 03       		.byte	0x3
 1865 0abf 00000000 		.4byte	count_protector2
 1866 0ac3 1D       		.uleb128 0x1d
 1867 0ac4 C8010000 		.4byte	.LASF141
 1868 0ac8 05       		.byte	0x5
 1869 0ac9 58       		.byte	0x58
 1870 0aca D4030000 		.4byte	0x3d4
 1871 0ace 05       		.uleb128 0x5
 1872 0acf 03       		.byte	0x3
 1873 0ad0 00000000 		.4byte	configAccess
 1874 0ad4 1D       		.uleb128 0x1d
 1875 0ad5 32010000 		.4byte	.LASF142
 1876 0ad9 05       		.byte	0x5
 1877 0ada 59       		.byte	0x59
 1878 0adb 81000000 		.4byte	0x81
 1879 0adf 05       		.uleb128 0x5
 1880 0ae0 03       		.byte	0x3
 1881 0ae1 00000000 		.4byte	controlChar
 1882 0ae5 08       		.uleb128 0x8
 1883 0ae6 BF000000 		.4byte	0xbf
 1884 0aea F50A0000 		.4byte	0xaf5
 1885 0aee 09       		.uleb128 0x9
 1886 0aef DC000000 		.4byte	0xdc
 1887 0af3 04       		.byte	0x4
 1888 0af4 00       		.byte	0
 1889 0af5 1D       		.uleb128 0x1d
 1890 0af6 FA000000 		.4byte	.LASF143
 1891 0afa 05       		.byte	0x5
 1892 0afb 5A       		.byte	0x5a
 1893 0afc E50A0000 		.4byte	0xae5
 1894 0b00 05       		.uleb128 0x5
 1895 0b01 03       		.byte	0x3
 1896 0b02 00000000 		.4byte	idStation
 1897 0b06 1D       		.uleb128 0x1d
 1898 0b07 60080000 		.4byte	.LASF144
 1899 0b0b 05       		.byte	0x5
 1900 0b0c 5B       		.byte	0x5b
 1901 0b0d 5D080000 		.4byte	0x85d
 1902 0b11 05       		.uleb128 0x5
 1903 0b12 03       		.byte	0x3
ARM GAS  C:\Users\RECEPC~1\AppData\Local\Temp\ccppYrKj.s 			page 36


 1904 0b13 00000000 		.4byte	pumpGap
 1905 0b17 1D       		.uleb128 0x1d
 1906 0b18 FF010000 		.4byte	.LASF145
 1907 0b1c 05       		.byte	0x5
 1908 0b1d 5C       		.byte	0x5c
 1909 0b1e 81000000 		.4byte	0x81
 1910 0b22 05       		.uleb128 0x5
 1911 0b23 03       		.byte	0x3
 1912 0b24 00000000 		.4byte	printPortA
 1913 0b28 1D       		.uleb128 0x1d
 1914 0b29 0A020000 		.4byte	.LASF146
 1915 0b2d 05       		.byte	0x5
 1916 0b2e 5D       		.byte	0x5d
 1917 0b2f 81000000 		.4byte	0x81
 1918 0b33 05       		.uleb128 0x5
 1919 0b34 03       		.byte	0x3
 1920 0b35 00000000 		.4byte	printPortB
 1921 0b39 08       		.uleb128 0x8
 1922 0b3a 81000000 		.4byte	0x81
 1923 0b3e 4A0B0000 		.4byte	0xb4a
 1924 0b42 1E       		.uleb128 0x1e
 1925 0b43 DC000000 		.4byte	0xdc
 1926 0b47 DB05     		.2byte	0x5db
 1927 0b49 00       		.byte	0
 1928 0b4a 1D       		.uleb128 0x1d
 1929 0b4b 7C000000 		.4byte	.LASF147
 1930 0b4f 05       		.byte	0x5
 1931 0b50 5E       		.byte	0x5e
 1932 0b51 390B0000 		.4byte	0xb39
 1933 0b55 05       		.uleb128 0x5
 1934 0b56 03       		.byte	0x3
 1935 0b57 00000000 		.4byte	buffer_rf
 1936 0b5b 1D       		.uleb128 0x1d
 1937 0b5c 57010000 		.4byte	.LASF148
 1938 0b60 05       		.byte	0x5
 1939 0b61 5F       		.byte	0x5f
 1940 0b62 390B0000 		.4byte	0xb39
 1941 0b66 05       		.uleb128 0x5
 1942 0b67 03       		.byte	0x3
 1943 0b68 00000000 		.4byte	buffer_tx
 1944 0b6c 1D       		.uleb128 0x1d
 1945 0b6d 8B050000 		.4byte	.LASF149
 1946 0b71 05       		.byte	0x5
 1947 0b72 60       		.byte	0x60
 1948 0b73 8D000000 		.4byte	0x8d
 1949 0b77 05       		.uleb128 0x5
 1950 0b78 03       		.byte	0x3
 1951 0b79 00000000 		.4byte	intIDStation
 1952 0b7d 1D       		.uleb128 0x1d
 1953 0b7e 51080000 		.4byte	.LASF150
 1954 0b82 05       		.byte	0x5
 1955 0b83 A0       		.byte	0xa0
 1956 0b84 F5000000 		.4byte	0xf5
 1957 0b88 05       		.uleb128 0x5
 1958 0b89 03       		.byte	0x3
 1959 0b8a 00000000 		.4byte	bufferDisplay1
 1960 0b8e 1D       		.uleb128 0x1d
ARM GAS  C:\Users\RECEPC~1\AppData\Local\Temp\ccppYrKj.s 			page 37


 1961 0b8f 7C050000 		.4byte	.LASF151
 1962 0b93 05       		.byte	0x5
 1963 0b94 A1       		.byte	0xa1
 1964 0b95 F5000000 		.4byte	0xf5
 1965 0b99 05       		.uleb128 0x5
 1966 0b9a 03       		.byte	0x3
 1967 0b9b 00000000 		.4byte	bufferDisplay2
 1968 0b9f 1D       		.uleb128 0x1d
 1969 0ba0 8E010000 		.4byte	.LASF152
 1970 0ba4 05       		.byte	0x5
 1971 0ba5 A2       		.byte	0xa2
 1972 0ba6 F5000000 		.4byte	0xf5
 1973 0baa 05       		.uleb128 0x5
 1974 0bab 03       		.byte	0x3
 1975 0bac 00000000 		.4byte	bufferDisplay3
 1976 0bb0 1D       		.uleb128 0x1d
 1977 0bb1 98050000 		.4byte	.LASF153
 1978 0bb5 05       		.byte	0x5
 1979 0bb6 A3       		.byte	0xa3
 1980 0bb7 F5000000 		.4byte	0xf5
 1981 0bbb 05       		.uleb128 0x5
 1982 0bbc 03       		.byte	0x3
 1983 0bbd 00000000 		.4byte	bufferDisplay4
 1984 0bc1 1D       		.uleb128 0x1d
 1985 0bc2 F5000000 		.4byte	.LASF154
 1986 0bc6 05       		.byte	0x5
 1987 0bc7 C2       		.byte	0xc2
 1988 0bc8 31050000 		.4byte	0x531
 1989 0bcc 05       		.uleb128 0x5
 1990 0bcd 03       		.byte	0x3
 1991 0bce 00000000 		.4byte	side
 1992 0bd2 1F       		.uleb128 0x1f
 1993 0bd3 EF070000 		.4byte	.LASF155
 1994 0bd7 E3000000 		.4byte	0xe3
 1995 0bdb EF0B0000 		.4byte	0xbef
 1996 0bdf 20       		.uleb128 0x20
 1997 0be0 E3000000 		.4byte	0xe3
 1998 0be4 20       		.uleb128 0x20
 1999 0be5 EF0B0000 		.4byte	0xbef
 2000 0be9 20       		.uleb128 0x20
 2001 0bea DC000000 		.4byte	0xdc
 2002 0bee 00       		.byte	0
 2003 0bef 16       		.uleb128 0x16
 2004 0bf0 04       		.byte	0x4
 2005 0bf1 F50B0000 		.4byte	0xbf5
 2006 0bf5 21       		.uleb128 0x21
 2007 0bf6 22       		.uleb128 0x22
 2008 0bf7 E1010000 		.4byte	.LASF157
 2009 0bfb 07       		.byte	0x7
 2010 0bfc 73       		.byte	0x73
 2011 0bfd 8D000000 		.4byte	0x8d
 2012 0c01 23       		.uleb128 0x23
 2013 0c02 7F010000 		.4byte	.LASF156
 2014 0c06 08       		.byte	0x8
 2015 0c07 78       		.byte	0x78
 2016 0c08 120C0000 		.4byte	0xc12
 2017 0c0c 20       		.uleb128 0x20
ARM GAS  C:\Users\RECEPC~1\AppData\Local\Temp\ccppYrKj.s 			page 38


 2018 0c0d 8D000000 		.4byte	0x8d
 2019 0c11 00       		.byte	0
 2020 0c12 22       		.uleb128 0x22
 2021 0c13 00000000 		.4byte	.LASF158
 2022 0c17 07       		.byte	0x7
 2023 0c18 6F       		.byte	0x6f
 2024 0c19 81000000 		.4byte	0x81
 2025 0c1d 23       		.uleb128 0x23
 2026 0c1e 37030000 		.4byte	.LASF159
 2027 0c22 07       		.byte	0x7
 2028 0c23 8A       		.byte	0x8a
 2029 0c24 2E0C0000 		.4byte	0xc2e
 2030 0c28 20       		.uleb128 0x20
 2031 0c29 81000000 		.4byte	0x81
 2032 0c2d 00       		.byte	0
 2033 0c2e 24       		.uleb128 0x24
 2034 0c2f 68080000 		.4byte	.LASF165
 2035 0c33 07       		.byte	0x7
 2036 0c34 75       		.byte	0x75
 2037 0c35 00       		.byte	0
 2038              		.section	.debug_abbrev,"",%progbits
 2039              	.Ldebug_abbrev0:
 2040 0000 01       		.uleb128 0x1
 2041 0001 11       		.uleb128 0x11
 2042 0002 01       		.byte	0x1
 2043 0003 25       		.uleb128 0x25
 2044 0004 0E       		.uleb128 0xe
 2045 0005 13       		.uleb128 0x13
 2046 0006 0B       		.uleb128 0xb
 2047 0007 03       		.uleb128 0x3
 2048 0008 0E       		.uleb128 0xe
 2049 0009 1B       		.uleb128 0x1b
 2050 000a 0E       		.uleb128 0xe
 2051 000b 55       		.uleb128 0x55
 2052 000c 17       		.uleb128 0x17
 2053 000d 11       		.uleb128 0x11
 2054 000e 01       		.uleb128 0x1
 2055 000f 10       		.uleb128 0x10
 2056 0010 17       		.uleb128 0x17
 2057 0011 00       		.byte	0
 2058 0012 00       		.byte	0
 2059 0013 02       		.uleb128 0x2
 2060 0014 24       		.uleb128 0x24
 2061 0015 00       		.byte	0
 2062 0016 0B       		.uleb128 0xb
 2063 0017 0B       		.uleb128 0xb
 2064 0018 3E       		.uleb128 0x3e
 2065 0019 0B       		.uleb128 0xb
 2066 001a 03       		.uleb128 0x3
 2067 001b 0E       		.uleb128 0xe
 2068 001c 00       		.byte	0
 2069 001d 00       		.byte	0
 2070 001e 03       		.uleb128 0x3
 2071 001f 16       		.uleb128 0x16
 2072 0020 00       		.byte	0
 2073 0021 03       		.uleb128 0x3
 2074 0022 0E       		.uleb128 0xe
ARM GAS  C:\Users\RECEPC~1\AppData\Local\Temp\ccppYrKj.s 			page 39


 2075 0023 3A       		.uleb128 0x3a
 2076 0024 0B       		.uleb128 0xb
 2077 0025 3B       		.uleb128 0x3b
 2078 0026 0B       		.uleb128 0xb
 2079 0027 49       		.uleb128 0x49
 2080 0028 13       		.uleb128 0x13
 2081 0029 00       		.byte	0
 2082 002a 00       		.byte	0
 2083 002b 04       		.uleb128 0x4
 2084 002c 24       		.uleb128 0x24
 2085 002d 00       		.byte	0
 2086 002e 0B       		.uleb128 0xb
 2087 002f 0B       		.uleb128 0xb
 2088 0030 3E       		.uleb128 0x3e
 2089 0031 0B       		.uleb128 0xb
 2090 0032 03       		.uleb128 0x3
 2091 0033 08       		.uleb128 0x8
 2092 0034 00       		.byte	0
 2093 0035 00       		.byte	0
 2094 0036 05       		.uleb128 0x5
 2095 0037 16       		.uleb128 0x16
 2096 0038 00       		.byte	0
 2097 0039 03       		.uleb128 0x3
 2098 003a 0E       		.uleb128 0xe
 2099 003b 3A       		.uleb128 0x3a
 2100 003c 0B       		.uleb128 0xb
 2101 003d 3B       		.uleb128 0x3b
 2102 003e 05       		.uleb128 0x5
 2103 003f 49       		.uleb128 0x49
 2104 0040 13       		.uleb128 0x13
 2105 0041 00       		.byte	0
 2106 0042 00       		.byte	0
 2107 0043 06       		.uleb128 0x6
 2108 0044 35       		.uleb128 0x35
 2109 0045 00       		.byte	0
 2110 0046 49       		.uleb128 0x49
 2111 0047 13       		.uleb128 0x13
 2112 0048 00       		.byte	0
 2113 0049 00       		.byte	0
 2114 004a 07       		.uleb128 0x7
 2115 004b 0F       		.uleb128 0xf
 2116 004c 00       		.byte	0
 2117 004d 0B       		.uleb128 0xb
 2118 004e 0B       		.uleb128 0xb
 2119 004f 00       		.byte	0
 2120 0050 00       		.byte	0
 2121 0051 08       		.uleb128 0x8
 2122 0052 01       		.uleb128 0x1
 2123 0053 01       		.byte	0x1
 2124 0054 49       		.uleb128 0x49
 2125 0055 13       		.uleb128 0x13
 2126 0056 01       		.uleb128 0x1
 2127 0057 13       		.uleb128 0x13
 2128 0058 00       		.byte	0
 2129 0059 00       		.byte	0
 2130 005a 09       		.uleb128 0x9
 2131 005b 21       		.uleb128 0x21
ARM GAS  C:\Users\RECEPC~1\AppData\Local\Temp\ccppYrKj.s 			page 40


 2132 005c 00       		.byte	0
 2133 005d 49       		.uleb128 0x49
 2134 005e 13       		.uleb128 0x13
 2135 005f 2F       		.uleb128 0x2f
 2136 0060 0B       		.uleb128 0xb
 2137 0061 00       		.byte	0
 2138 0062 00       		.byte	0
 2139 0063 0A       		.uleb128 0xa
 2140 0064 13       		.uleb128 0x13
 2141 0065 01       		.byte	0x1
 2142 0066 03       		.uleb128 0x3
 2143 0067 0E       		.uleb128 0xe
 2144 0068 0B       		.uleb128 0xb
 2145 0069 05       		.uleb128 0x5
 2146 006a 3A       		.uleb128 0x3a
 2147 006b 0B       		.uleb128 0xb
 2148 006c 3B       		.uleb128 0x3b
 2149 006d 0B       		.uleb128 0xb
 2150 006e 01       		.uleb128 0x1
 2151 006f 13       		.uleb128 0x13
 2152 0070 00       		.byte	0
 2153 0071 00       		.byte	0
 2154 0072 0B       		.uleb128 0xb
 2155 0073 0D       		.uleb128 0xd
 2156 0074 00       		.byte	0
 2157 0075 03       		.uleb128 0x3
 2158 0076 0E       		.uleb128 0xe
 2159 0077 3A       		.uleb128 0x3a
 2160 0078 0B       		.uleb128 0xb
 2161 0079 3B       		.uleb128 0x3b
 2162 007a 0B       		.uleb128 0xb
 2163 007b 49       		.uleb128 0x49
 2164 007c 13       		.uleb128 0x13
 2165 007d 38       		.uleb128 0x38
 2166 007e 0B       		.uleb128 0xb
 2167 007f 00       		.byte	0
 2168 0080 00       		.byte	0
 2169 0081 0C       		.uleb128 0xc
 2170 0082 0D       		.uleb128 0xd
 2171 0083 00       		.byte	0
 2172 0084 03       		.uleb128 0x3
 2173 0085 0E       		.uleb128 0xe
 2174 0086 3A       		.uleb128 0x3a
 2175 0087 0B       		.uleb128 0xb
 2176 0088 3B       		.uleb128 0x3b
 2177 0089 0B       		.uleb128 0xb
 2178 008a 49       		.uleb128 0x49
 2179 008b 13       		.uleb128 0x13
 2180 008c 38       		.uleb128 0x38
 2181 008d 05       		.uleb128 0x5
 2182 008e 00       		.byte	0
 2183 008f 00       		.byte	0
 2184 0090 0D       		.uleb128 0xd
 2185 0091 0D       		.uleb128 0xd
 2186 0092 00       		.byte	0
 2187 0093 03       		.uleb128 0x3
 2188 0094 08       		.uleb128 0x8
ARM GAS  C:\Users\RECEPC~1\AppData\Local\Temp\ccppYrKj.s 			page 41


 2189 0095 3A       		.uleb128 0x3a
 2190 0096 0B       		.uleb128 0xb
 2191 0097 3B       		.uleb128 0x3b
 2192 0098 0B       		.uleb128 0xb
 2193 0099 49       		.uleb128 0x49
 2194 009a 13       		.uleb128 0x13
 2195 009b 38       		.uleb128 0x38
 2196 009c 0B       		.uleb128 0xb
 2197 009d 00       		.byte	0
 2198 009e 00       		.byte	0
 2199 009f 0E       		.uleb128 0xe
 2200 00a0 0D       		.uleb128 0xd
 2201 00a1 00       		.byte	0
 2202 00a2 03       		.uleb128 0x3
 2203 00a3 08       		.uleb128 0x8
 2204 00a4 3A       		.uleb128 0x3a
 2205 00a5 0B       		.uleb128 0xb
 2206 00a6 3B       		.uleb128 0x3b
 2207 00a7 0B       		.uleb128 0xb
 2208 00a8 49       		.uleb128 0x49
 2209 00a9 13       		.uleb128 0x13
 2210 00aa 38       		.uleb128 0x38
 2211 00ab 05       		.uleb128 0x5
 2212 00ac 00       		.byte	0
 2213 00ad 00       		.byte	0
 2214 00ae 0F       		.uleb128 0xf
 2215 00af 2E       		.uleb128 0x2e
 2216 00b0 01       		.byte	0x1
 2217 00b1 3F       		.uleb128 0x3f
 2218 00b2 19       		.uleb128 0x19
 2219 00b3 03       		.uleb128 0x3
 2220 00b4 0E       		.uleb128 0xe
 2221 00b5 3A       		.uleb128 0x3a
 2222 00b6 0B       		.uleb128 0xb
 2223 00b7 3B       		.uleb128 0x3b
 2224 00b8 0B       		.uleb128 0xb
 2225 00b9 27       		.uleb128 0x27
 2226 00ba 19       		.uleb128 0x19
 2227 00bb 49       		.uleb128 0x49
 2228 00bc 13       		.uleb128 0x13
 2229 00bd 11       		.uleb128 0x11
 2230 00be 01       		.uleb128 0x1
 2231 00bf 12       		.uleb128 0x12
 2232 00c0 06       		.uleb128 0x6
 2233 00c1 40       		.uleb128 0x40
 2234 00c2 18       		.uleb128 0x18
 2235 00c3 9742     		.uleb128 0x2117
 2236 00c5 19       		.uleb128 0x19
 2237 00c6 01       		.uleb128 0x1
 2238 00c7 13       		.uleb128 0x13
 2239 00c8 00       		.byte	0
 2240 00c9 00       		.byte	0
 2241 00ca 10       		.uleb128 0x10
 2242 00cb 05       		.uleb128 0x5
 2243 00cc 00       		.byte	0
 2244 00cd 03       		.uleb128 0x3
 2245 00ce 0E       		.uleb128 0xe
ARM GAS  C:\Users\RECEPC~1\AppData\Local\Temp\ccppYrKj.s 			page 42


 2246 00cf 3A       		.uleb128 0x3a
 2247 00d0 0B       		.uleb128 0xb
 2248 00d1 3B       		.uleb128 0x3b
 2249 00d2 0B       		.uleb128 0xb
 2250 00d3 49       		.uleb128 0x49
 2251 00d4 13       		.uleb128 0x13
 2252 00d5 02       		.uleb128 0x2
 2253 00d6 17       		.uleb128 0x17
 2254 00d7 00       		.byte	0
 2255 00d8 00       		.byte	0
 2256 00d9 11       		.uleb128 0x11
 2257 00da 34       		.uleb128 0x34
 2258 00db 00       		.byte	0
 2259 00dc 03       		.uleb128 0x3
 2260 00dd 0E       		.uleb128 0xe
 2261 00de 3A       		.uleb128 0x3a
 2262 00df 0B       		.uleb128 0xb
 2263 00e0 3B       		.uleb128 0x3b
 2264 00e1 0B       		.uleb128 0xb
 2265 00e2 49       		.uleb128 0x49
 2266 00e3 13       		.uleb128 0x13
 2267 00e4 02       		.uleb128 0x2
 2268 00e5 17       		.uleb128 0x17
 2269 00e6 00       		.byte	0
 2270 00e7 00       		.byte	0
 2271 00e8 12       		.uleb128 0x12
 2272 00e9 34       		.uleb128 0x34
 2273 00ea 00       		.byte	0
 2274 00eb 03       		.uleb128 0x3
 2275 00ec 08       		.uleb128 0x8
 2276 00ed 3A       		.uleb128 0x3a
 2277 00ee 0B       		.uleb128 0xb
 2278 00ef 3B       		.uleb128 0x3b
 2279 00f0 0B       		.uleb128 0xb
 2280 00f1 49       		.uleb128 0x49
 2281 00f2 13       		.uleb128 0x13
 2282 00f3 02       		.uleb128 0x2
 2283 00f4 17       		.uleb128 0x17
 2284 00f5 00       		.byte	0
 2285 00f6 00       		.byte	0
 2286 00f7 13       		.uleb128 0x13
 2287 00f8 34       		.uleb128 0x34
 2288 00f9 00       		.byte	0
 2289 00fa 03       		.uleb128 0x3
 2290 00fb 0E       		.uleb128 0xe
 2291 00fc 3A       		.uleb128 0x3a
 2292 00fd 0B       		.uleb128 0xb
 2293 00fe 3B       		.uleb128 0x3b
 2294 00ff 0B       		.uleb128 0xb
 2295 0100 49       		.uleb128 0x49
 2296 0101 13       		.uleb128 0x13
 2297 0102 02       		.uleb128 0x2
 2298 0103 18       		.uleb128 0x18
 2299 0104 00       		.byte	0
 2300 0105 00       		.byte	0
 2301 0106 14       		.uleb128 0x14
 2302 0107 898201   		.uleb128 0x4109
ARM GAS  C:\Users\RECEPC~1\AppData\Local\Temp\ccppYrKj.s 			page 43


 2303 010a 01       		.byte	0x1
 2304 010b 11       		.uleb128 0x11
 2305 010c 01       		.uleb128 0x1
 2306 010d 31       		.uleb128 0x31
 2307 010e 13       		.uleb128 0x13
 2308 010f 00       		.byte	0
 2309 0110 00       		.byte	0
 2310 0111 15       		.uleb128 0x15
 2311 0112 8A8201   		.uleb128 0x410a
 2312 0115 00       		.byte	0
 2313 0116 02       		.uleb128 0x2
 2314 0117 18       		.uleb128 0x18
 2315 0118 9142     		.uleb128 0x2111
 2316 011a 18       		.uleb128 0x18
 2317 011b 00       		.byte	0
 2318 011c 00       		.byte	0
 2319 011d 16       		.uleb128 0x16
 2320 011e 0F       		.uleb128 0xf
 2321 011f 00       		.byte	0
 2322 0120 0B       		.uleb128 0xb
 2323 0121 0B       		.uleb128 0xb
 2324 0122 49       		.uleb128 0x49
 2325 0123 13       		.uleb128 0x13
 2326 0124 00       		.byte	0
 2327 0125 00       		.byte	0
 2328 0126 17       		.uleb128 0x17
 2329 0127 2E       		.uleb128 0x2e
 2330 0128 01       		.byte	0x1
 2331 0129 3F       		.uleb128 0x3f
 2332 012a 19       		.uleb128 0x19
 2333 012b 03       		.uleb128 0x3
 2334 012c 0E       		.uleb128 0xe
 2335 012d 3A       		.uleb128 0x3a
 2336 012e 0B       		.uleb128 0xb
 2337 012f 3B       		.uleb128 0x3b
 2338 0130 0B       		.uleb128 0xb
 2339 0131 11       		.uleb128 0x11
 2340 0132 01       		.uleb128 0x1
 2341 0133 12       		.uleb128 0x12
 2342 0134 06       		.uleb128 0x6
 2343 0135 40       		.uleb128 0x40
 2344 0136 18       		.uleb128 0x18
 2345 0137 9742     		.uleb128 0x2117
 2346 0139 19       		.uleb128 0x19
 2347 013a 01       		.uleb128 0x1
 2348 013b 13       		.uleb128 0x13
 2349 013c 00       		.byte	0
 2350 013d 00       		.byte	0
 2351 013e 18       		.uleb128 0x18
 2352 013f 34       		.uleb128 0x34
 2353 0140 00       		.byte	0
 2354 0141 03       		.uleb128 0x3
 2355 0142 0E       		.uleb128 0xe
 2356 0143 3A       		.uleb128 0x3a
 2357 0144 0B       		.uleb128 0xb
 2358 0145 3B       		.uleb128 0x3b
 2359 0146 0B       		.uleb128 0xb
ARM GAS  C:\Users\RECEPC~1\AppData\Local\Temp\ccppYrKj.s 			page 44


 2360 0147 49       		.uleb128 0x49
 2361 0148 13       		.uleb128 0x13
 2362 0149 00       		.byte	0
 2363 014a 00       		.byte	0
 2364 014b 19       		.uleb128 0x19
 2365 014c 34       		.uleb128 0x34
 2366 014d 00       		.byte	0
 2367 014e 03       		.uleb128 0x3
 2368 014f 08       		.uleb128 0x8
 2369 0150 3A       		.uleb128 0x3a
 2370 0151 0B       		.uleb128 0xb
 2371 0152 3B       		.uleb128 0x3b
 2372 0153 0B       		.uleb128 0xb
 2373 0154 49       		.uleb128 0x49
 2374 0155 13       		.uleb128 0x13
 2375 0156 00       		.byte	0
 2376 0157 00       		.byte	0
 2377 0158 1A       		.uleb128 0x1a
 2378 0159 898201   		.uleb128 0x4109
 2379 015c 00       		.byte	0
 2380 015d 11       		.uleb128 0x11
 2381 015e 01       		.uleb128 0x1
 2382 015f 31       		.uleb128 0x31
 2383 0160 13       		.uleb128 0x13
 2384 0161 00       		.byte	0
 2385 0162 00       		.byte	0
 2386 0163 1B       		.uleb128 0x1b
 2387 0164 898201   		.uleb128 0x4109
 2388 0167 01       		.byte	0x1
 2389 0168 11       		.uleb128 0x11
 2390 0169 01       		.uleb128 0x1
 2391 016a 31       		.uleb128 0x31
 2392 016b 13       		.uleb128 0x13
 2393 016c 01       		.uleb128 0x1
 2394 016d 13       		.uleb128 0x13
 2395 016e 00       		.byte	0
 2396 016f 00       		.byte	0
 2397 0170 1C       		.uleb128 0x1c
 2398 0171 34       		.uleb128 0x34
 2399 0172 00       		.byte	0
 2400 0173 03       		.uleb128 0x3
 2401 0174 0E       		.uleb128 0xe
 2402 0175 3A       		.uleb128 0x3a
 2403 0176 0B       		.uleb128 0xb
 2404 0177 3B       		.uleb128 0x3b
 2405 0178 05       		.uleb128 0x5
 2406 0179 49       		.uleb128 0x49
 2407 017a 13       		.uleb128 0x13
 2408 017b 3F       		.uleb128 0x3f
 2409 017c 19       		.uleb128 0x19
 2410 017d 3C       		.uleb128 0x3c
 2411 017e 19       		.uleb128 0x19
 2412 017f 00       		.byte	0
 2413 0180 00       		.byte	0
 2414 0181 1D       		.uleb128 0x1d
 2415 0182 34       		.uleb128 0x34
 2416 0183 00       		.byte	0
ARM GAS  C:\Users\RECEPC~1\AppData\Local\Temp\ccppYrKj.s 			page 45


 2417 0184 03       		.uleb128 0x3
 2418 0185 0E       		.uleb128 0xe
 2419 0186 3A       		.uleb128 0x3a
 2420 0187 0B       		.uleb128 0xb
 2421 0188 3B       		.uleb128 0x3b
 2422 0189 0B       		.uleb128 0xb
 2423 018a 49       		.uleb128 0x49
 2424 018b 13       		.uleb128 0x13
 2425 018c 3F       		.uleb128 0x3f
 2426 018d 19       		.uleb128 0x19
 2427 018e 02       		.uleb128 0x2
 2428 018f 18       		.uleb128 0x18
 2429 0190 00       		.byte	0
 2430 0191 00       		.byte	0
 2431 0192 1E       		.uleb128 0x1e
 2432 0193 21       		.uleb128 0x21
 2433 0194 00       		.byte	0
 2434 0195 49       		.uleb128 0x49
 2435 0196 13       		.uleb128 0x13
 2436 0197 2F       		.uleb128 0x2f
 2437 0198 05       		.uleb128 0x5
 2438 0199 00       		.byte	0
 2439 019a 00       		.byte	0
 2440 019b 1F       		.uleb128 0x1f
 2441 019c 2E       		.uleb128 0x2e
 2442 019d 01       		.byte	0x1
 2443 019e 3F       		.uleb128 0x3f
 2444 019f 19       		.uleb128 0x19
 2445 01a0 03       		.uleb128 0x3
 2446 01a1 0E       		.uleb128 0xe
 2447 01a2 27       		.uleb128 0x27
 2448 01a3 19       		.uleb128 0x19
 2449 01a4 49       		.uleb128 0x49
 2450 01a5 13       		.uleb128 0x13
 2451 01a6 34       		.uleb128 0x34
 2452 01a7 19       		.uleb128 0x19
 2453 01a8 3C       		.uleb128 0x3c
 2454 01a9 19       		.uleb128 0x19
 2455 01aa 01       		.uleb128 0x1
 2456 01ab 13       		.uleb128 0x13
 2457 01ac 00       		.byte	0
 2458 01ad 00       		.byte	0
 2459 01ae 20       		.uleb128 0x20
 2460 01af 05       		.uleb128 0x5
 2461 01b0 00       		.byte	0
 2462 01b1 49       		.uleb128 0x49
 2463 01b2 13       		.uleb128 0x13
 2464 01b3 00       		.byte	0
 2465 01b4 00       		.byte	0
 2466 01b5 21       		.uleb128 0x21
 2467 01b6 26       		.uleb128 0x26
 2468 01b7 00       		.byte	0
 2469 01b8 00       		.byte	0
 2470 01b9 00       		.byte	0
 2471 01ba 22       		.uleb128 0x22
 2472 01bb 2E       		.uleb128 0x2e
 2473 01bc 00       		.byte	0
ARM GAS  C:\Users\RECEPC~1\AppData\Local\Temp\ccppYrKj.s 			page 46


 2474 01bd 3F       		.uleb128 0x3f
 2475 01be 19       		.uleb128 0x19
 2476 01bf 03       		.uleb128 0x3
 2477 01c0 0E       		.uleb128 0xe
 2478 01c1 3A       		.uleb128 0x3a
 2479 01c2 0B       		.uleb128 0xb
 2480 01c3 3B       		.uleb128 0x3b
 2481 01c4 0B       		.uleb128 0xb
 2482 01c5 27       		.uleb128 0x27
 2483 01c6 19       		.uleb128 0x19
 2484 01c7 49       		.uleb128 0x49
 2485 01c8 13       		.uleb128 0x13
 2486 01c9 3C       		.uleb128 0x3c
 2487 01ca 19       		.uleb128 0x19
 2488 01cb 00       		.byte	0
 2489 01cc 00       		.byte	0
 2490 01cd 23       		.uleb128 0x23
 2491 01ce 2E       		.uleb128 0x2e
 2492 01cf 01       		.byte	0x1
 2493 01d0 3F       		.uleb128 0x3f
 2494 01d1 19       		.uleb128 0x19
 2495 01d2 03       		.uleb128 0x3
 2496 01d3 0E       		.uleb128 0xe
 2497 01d4 3A       		.uleb128 0x3a
 2498 01d5 0B       		.uleb128 0xb
 2499 01d6 3B       		.uleb128 0x3b
 2500 01d7 0B       		.uleb128 0xb
 2501 01d8 27       		.uleb128 0x27
 2502 01d9 19       		.uleb128 0x19
 2503 01da 3C       		.uleb128 0x3c
 2504 01db 19       		.uleb128 0x19
 2505 01dc 01       		.uleb128 0x1
 2506 01dd 13       		.uleb128 0x13
 2507 01de 00       		.byte	0
 2508 01df 00       		.byte	0
 2509 01e0 24       		.uleb128 0x24
 2510 01e1 2E       		.uleb128 0x2e
 2511 01e2 00       		.byte	0
 2512 01e3 3F       		.uleb128 0x3f
 2513 01e4 19       		.uleb128 0x19
 2514 01e5 03       		.uleb128 0x3
 2515 01e6 0E       		.uleb128 0xe
 2516 01e7 3A       		.uleb128 0x3a
 2517 01e8 0B       		.uleb128 0xb
 2518 01e9 3B       		.uleb128 0x3b
 2519 01ea 0B       		.uleb128 0xb
 2520 01eb 27       		.uleb128 0x27
 2521 01ec 19       		.uleb128 0x19
 2522 01ed 3C       		.uleb128 0x3c
 2523 01ee 19       		.uleb128 0x19
 2524 01ef 00       		.byte	0
 2525 01f0 00       		.byte	0
 2526 01f1 00       		.byte	0
 2527              		.section	.debug_loc,"",%progbits
 2528              	.Ldebug_loc0:
 2529              	.LLST0:
 2530 0000 00000000 		.4byte	.LVL0
ARM GAS  C:\Users\RECEPC~1\AppData\Local\Temp\ccppYrKj.s 			page 47


 2531 0004 0A000000 		.4byte	.LVL1
 2532 0008 0100     		.2byte	0x1
 2533 000a 50       		.byte	0x50
 2534 000b 0A000000 		.4byte	.LVL1
 2535 000f 30000000 		.4byte	.LVL9
 2536 0013 0100     		.2byte	0x1
 2537 0015 55       		.byte	0x55
 2538 0016 30000000 		.4byte	.LVL9
 2539 001a 34000000 		.4byte	.LFE63
 2540 001e 0400     		.2byte	0x4
 2541 0020 F3       		.byte	0xf3
 2542 0021 01       		.uleb128 0x1
 2543 0022 50       		.byte	0x50
 2544 0023 9F       		.byte	0x9f
 2545 0024 00000000 		.4byte	0
 2546 0028 00000000 		.4byte	0
 2547              	.LLST1:
 2548 002c 00000000 		.4byte	.LVL0
 2549 0030 0C000000 		.4byte	.LVL2
 2550 0034 0100     		.2byte	0x1
 2551 0036 51       		.byte	0x51
 2552 0037 0C000000 		.4byte	.LVL2
 2553 003b 34000000 		.4byte	.LFE63
 2554 003f 0400     		.2byte	0x4
 2555 0041 F3       		.byte	0xf3
 2556 0042 01       		.uleb128 0x1
 2557 0043 51       		.byte	0x51
 2558 0044 9F       		.byte	0x9f
 2559 0045 00000000 		.4byte	0
 2560 0049 00000000 		.4byte	0
 2561              	.LLST2:
 2562 004d 14000000 		.4byte	.LVL3
 2563 0051 1A000000 		.4byte	.LVL4
 2564 0055 0200     		.2byte	0x2
 2565 0057 30       		.byte	0x30
 2566 0058 9F       		.byte	0x9f
 2567 0059 1A000000 		.4byte	.LVL4
 2568 005d 1E000000 		.4byte	.LVL5
 2569 0061 0100     		.2byte	0x1
 2570 0063 50       		.byte	0x50
 2571 0064 22000000 		.4byte	.LVL6
 2572 0068 34000000 		.4byte	.LFE63
 2573 006c 0100     		.2byte	0x1
 2574 006e 50       		.byte	0x50
 2575 006f 00000000 		.4byte	0
 2576 0073 00000000 		.4byte	0
 2577              	.LLST3:
 2578 0077 1E000000 		.4byte	.LVL5
 2579 007b 22000000 		.4byte	.LVL6
 2580 007f 0100     		.2byte	0x1
 2581 0081 50       		.byte	0x50
 2582 0082 00000000 		.4byte	0
 2583 0086 00000000 		.4byte	0
 2584              	.LLST4:
 2585 008a 14000000 		.4byte	.LVL3
 2586 008e 1A000000 		.4byte	.LVL4
 2587 0092 0200     		.2byte	0x2
ARM GAS  C:\Users\RECEPC~1\AppData\Local\Temp\ccppYrKj.s 			page 48


 2588 0094 30       		.byte	0x30
 2589 0095 9F       		.byte	0x9f
 2590 0096 1A000000 		.4byte	.LVL4
 2591 009a 24000000 		.4byte	.LVL7
 2592 009e 0100     		.2byte	0x1
 2593 00a0 53       		.byte	0x53
 2594 00a1 26000000 		.4byte	.LVL8
 2595 00a5 34000000 		.4byte	.LFE63
 2596 00a9 0100     		.2byte	0x1
 2597 00ab 53       		.byte	0x53
 2598 00ac 00000000 		.4byte	0
 2599 00b0 00000000 		.4byte	0
 2600              	.LLST5:
 2601 00b4 10000000 		.4byte	.LVL12
 2602 00b8 20000000 		.4byte	.LVL15
 2603 00bc 0100     		.2byte	0x1
 2604 00be 54       		.byte	0x54
 2605 00bf 2E000000 		.4byte	.LVL19
 2606 00c3 30000000 		.4byte	.LVL20
 2607 00c7 0100     		.2byte	0x1
 2608 00c9 54       		.byte	0x54
 2609 00ca 00000000 		.4byte	0
 2610 00ce 00000000 		.4byte	0
 2611              	.LLST6:
 2612 00d2 1A000000 		.4byte	.LVL14
 2613 00d6 20000000 		.4byte	.LVL15
 2614 00da 0100     		.2byte	0x1
 2615 00dc 50       		.byte	0x50
 2616 00dd 2E000000 		.4byte	.LVL19
 2617 00e1 30000000 		.4byte	.LVL20
 2618 00e5 0100     		.2byte	0x1
 2619 00e7 50       		.byte	0x50
 2620 00e8 00000000 		.4byte	0
 2621 00ec 00000000 		.4byte	0
 2622              	.LLST7:
 2623 00f0 20000000 		.4byte	.LVL15
 2624 00f4 2A000000 		.4byte	.LVL17
 2625 00f8 0100     		.2byte	0x1
 2626 00fa 54       		.byte	0x54
 2627 00fb 2C000000 		.4byte	.LVL18
 2628 00ff 2E000000 		.4byte	.LVL19
 2629 0103 0100     		.2byte	0x1
 2630 0105 54       		.byte	0x54
 2631 0106 30000000 		.4byte	.LVL20
 2632 010a 5A000000 		.4byte	.LVL22
 2633 010e 0100     		.2byte	0x1
 2634 0110 54       		.byte	0x54
 2635 0111 00000000 		.4byte	0
 2636 0115 00000000 		.4byte	0
 2637              	.LLST8:
 2638 0119 88000000 		.4byte	.LVL24
 2639 011d 8C000000 		.4byte	.LVL25
 2640 0121 0200     		.2byte	0x2
 2641 0123 30       		.byte	0x30
 2642 0124 9F       		.byte	0x9f
 2643 0125 8C000000 		.4byte	.LVL25
 2644 0129 96000000 		.4byte	.LVL27
ARM GAS  C:\Users\RECEPC~1\AppData\Local\Temp\ccppYrKj.s 			page 49


 2645 012d 0100     		.2byte	0x1
 2646 012f 54       		.byte	0x54
 2647 0130 98000000 		.4byte	.LVL28
 2648 0134 9C000000 		.4byte	.LVL29
 2649 0138 0100     		.2byte	0x1
 2650 013a 54       		.byte	0x54
 2651 013b 00000000 		.4byte	0
 2652 013f 00000000 		.4byte	0
 2653              		.section	.debug_aranges,"",%progbits
 2654 0000 24000000 		.4byte	0x24
 2655 0004 0200     		.2byte	0x2
 2656 0006 00000000 		.4byte	.Ldebug_info0
 2657 000a 04       		.byte	0x4
 2658 000b 00       		.byte	0
 2659 000c 0000     		.2byte	0
 2660 000e 0000     		.2byte	0
 2661 0010 00000000 		.4byte	.LFB63
 2662 0014 34000000 		.4byte	.LFE63-.LFB63
 2663 0018 00000000 		.4byte	.LFB64
 2664 001c B0000000 		.4byte	.LFE64-.LFB64
 2665 0020 00000000 		.4byte	0
 2666 0024 00000000 		.4byte	0
 2667              		.section	.debug_ranges,"",%progbits
 2668              	.Ldebug_ranges0:
 2669 0000 00000000 		.4byte	.LFB63
 2670 0004 34000000 		.4byte	.LFE63
 2671 0008 00000000 		.4byte	.LFB64
 2672 000c B0000000 		.4byte	.LFE64
 2673 0010 00000000 		.4byte	0
 2674 0014 00000000 		.4byte	0
 2675              		.section	.debug_line,"",%progbits
 2676              	.Ldebug_line0:
 2677 0000 ED010000 		.section	.debug_str,"MS",%progbits,1
 2677      02007A01 
 2677      00000201 
 2677      FB0E0D00 
 2677      01010101 
 2678              	.LASF158:
 2679 0000 52465F43 		.ascii	"RF_Connection_ReadRxData\000"
 2679      6F6E6E65 
 2679      6374696F 
 2679      6E5F5265 
 2679      61645278 
 2680              	.LASF88:
 2681 0019 73746174 		.ascii	"status1\000"
 2681      75733100 
 2682              	.LASF89:
 2683 0021 73746174 		.ascii	"status2\000"
 2683      75733200 
 2684              	.LASF164:
 2685 0029 706F6C6C 		.ascii	"pollingRF_Rx\000"
 2685      696E6752 
 2685      465F5278 
 2685      00
 2686              	.LASF140:
 2687 0036 636F756E 		.ascii	"count_protector2\000"
 2687      745F7072 
ARM GAS  C:\Users\RECEPC~1\AppData\Local\Temp\ccppYrKj.s 			page 50


 2687      6F746563 
 2687      746F7232 
 2687      00
 2688              	.LASF109:
 2689 0047 64656369 		.ascii	"decimalVolume\000"
 2689      6D616C56 
 2689      6F6C756D 
 2689      6500
 2690              	.LASF121:
 2691 0055 50726576 		.ascii	"PrevStatePump\000"
 2691      53746174 
 2691      6550756D 
 2691      7000
 2692              	.LASF52:
 2693 0063 6D657373 		.ascii	"message\000"
 2693      61676500 
 2694              	.LASF130:
 2695 006b 73746174 		.ascii	"statePump\000"
 2695      6550756D 
 2695      7000
 2696              	.LASF71:
 2697 0075 62756666 		.ascii	"buffer\000"
 2697      657200
 2698              	.LASF147:
 2699 007c 62756666 		.ascii	"buffer_rf\000"
 2699      65725F72 
 2699      6600
 2700              	.LASF108:
 2701 0086 64656369 		.ascii	"decimalMoney\000"
 2701      6D616C4D 
 2701      6F6E6579 
 2701      00
 2702              	.LASF32:
 2703 0093 73616C65 		.ascii	"salePerform\000"
 2703      50657266 
 2703      6F726D00 
 2704              	.LASF8:
 2705 009f 756E7369 		.ascii	"unsigned int\000"
 2705      676E6564 
 2705      20696E74 
 2705      00
 2706              	.LASF57:
 2707 00ac 70726F64 		.ascii	"productMarket\000"
 2707      7563744D 
 2707      61726B65 
 2707      7400
 2708              	.LASF135:
 2709 00ba 5072696E 		.ascii	"PrinterType\000"
 2709      74657254 
 2709      79706500 
 2710              	.LASF9:
 2711 00c6 5F5F696E 		.ascii	"__int32_t\000"
 2711      7433325F 
 2711      7400
 2712              	.LASF50:
 2713 00d0 666C6167 		.ascii	"flagLiftHandle\000"
 2713      4C696674 
ARM GAS  C:\Users\RECEPC~1\AppData\Local\Temp\ccppYrKj.s 			page 51


 2713      48616E64 
 2713      6C6500
 2714              	.LASF114:
 2715 00df 72657369 		.ascii	"residue\000"
 2715      64756500 
 2716              	.LASF20:
 2717 00e7 69645479 		.ascii	"idType\000"
 2717      706500
 2718              	.LASF129:
 2719 00ee 44444D6F 		.ascii	"DDMode\000"
 2719      646500
 2720              	.LASF154:
 2721 00f5 73696465 		.ascii	"side\000"
 2721      00
 2722              	.LASF143:
 2723 00fa 69645374 		.ascii	"idStation\000"
 2723      6174696F 
 2723      6E00
 2724              	.LASF24:
 2725 0104 73656C65 		.ascii	"selectedSale\000"
 2725      63746564 
 2725      53616C65 
 2725      00
 2726              	.LASF58:
 2727 0111 7175616E 		.ascii	"quantityMarket\000"
 2727      74697479 
 2727      4D61726B 
 2727      657400
 2728              	.LASF103:
 2729 0120 666C6167 		.ascii	"flagPoint2\000"
 2729      506F696E 
 2729      743200
 2730              	.LASF113:
 2731 012b 73637265 		.ascii	"screen\000"
 2731      656E00
 2732              	.LASF142:
 2733 0132 636F6E74 		.ascii	"controlChar\000"
 2733      726F6C43 
 2733      68617200 
 2734              	.LASF54:
 2735 013e 766F6C75 		.ascii	"volumeQuota\000"
 2735      6D655175 
 2735      6F746100 
 2736              	.LASF122:
 2737 014a 506C6174 		.ascii	"PlateRequest\000"
 2737      65526571 
 2737      75657374 
 2737      00
 2738              	.LASF148:
 2739 0157 62756666 		.ascii	"buffer_tx\000"
 2739      65725F74 
 2739      7800
 2740              	.LASF14:
 2741 0161 666C6F61 		.ascii	"float\000"
 2741      7400
 2742              	.LASF85:
 2743 0167 63686563 		.ascii	"checksum\000"
ARM GAS  C:\Users\RECEPC~1\AppData\Local\Temp\ccppYrKj.s 			page 52


 2743      6B73756D 
 2743      00
 2744              	.LASF86:
 2745 0170 696E6465 		.ascii	"index\000"
 2745      7800
 2746              	.LASF126:
 2747 0176 4D6F6E65 		.ascii	"MoneyDec\000"
 2747      79446563 
 2747      00
 2748              	.LASF156:
 2749 017f 43794465 		.ascii	"CyDelayUs\000"
 2749      6C617955 
 2749      7300
 2750              	.LASF80:
 2751 0189 686F7365 		.ascii	"hose\000"
 2751      00
 2752              	.LASF152:
 2753 018e 62756666 		.ascii	"bufferDisplay3\000"
 2753      65724469 
 2753      73706C61 
 2753      793300
 2754              	.LASF7:
 2755 019d 6C6F6E67 		.ascii	"long long unsigned int\000"
 2755      206C6F6E 
 2755      6720756E 
 2755      7369676E 
 2755      65642069 
 2756              	.LASF40:
 2757 01b4 746F7461 		.ascii	"totalVolumePrevious\000"
 2757      6C566F6C 
 2757      756D6550 
 2757      72657669 
 2757      6F757300 
 2758              	.LASF141:
 2759 01c8 636F6E66 		.ascii	"configAccess\000"
 2759      69674163 
 2759      63657373 
 2759      00
 2760              	.LASF133:
 2761 01d5 64696769 		.ascii	"digits\000"
 2761      747300
 2762              	.LASF111:
 2763 01dc 74696D65 		.ascii	"time\000"
 2763      00
 2764              	.LASF157:
 2765 01e1 52465F43 		.ascii	"RF_Connection_GetRxBufferSize\000"
 2765      6F6E6E65 
 2765      6374696F 
 2765      6E5F4765 
 2765      74527842 
 2766              	.LASF145:
 2767 01ff 7072696E 		.ascii	"printPortA\000"
 2767      74506F72 
 2767      744100
 2768              	.LASF146:
 2769 020a 7072696E 		.ascii	"printPortB\000"
 2769      74506F72 
ARM GAS  C:\Users\RECEPC~1\AppData\Local\Temp\ccppYrKj.s 			page 53


 2769      744200
 2770              	.LASF35:
 2771 0215 70726F64 		.ascii	"productType\000"
 2771      75637454 
 2771      79706500 
 2772              	.LASF104:
 2773 0221 70726F64 		.ascii	"productNumber\000"
 2773      7563744E 
 2773      756D6265 
 2773      7200
 2774              	.LASF116:
 2775 022f 69645365 		.ascii	"idSeller\000"
 2775      6C6C6572 
 2775      00
 2776              	.LASF21:
 2777 0238 69645365 		.ascii	"idSerial\000"
 2777      7269616C 
 2777      00
 2778              	.LASF132:
 2779 0241 6C6F636B 		.ascii	"lockTurn\000"
 2779      5475726E 
 2779      00
 2780              	.LASF46:
 2781 024a 6D696C65 		.ascii	"mileageSale\000"
 2781      61676553 
 2781      616C6500 
 2782              	.LASF66:
 2783 0256 666C6167 		.ascii	"flagChangePPU\000"
 2783      4368616E 
 2783      67655050 
 2783      5500
 2784              	.LASF67:
 2785 0264 666C6167 		.ascii	"flagPrint\000"
 2785      5072696E 
 2785      7400
 2786              	.LASF68:
 2787 026e 666C6167 		.ascii	"flagActiveSale\000"
 2787      41637469 
 2787      76655361 
 2787      6C6500
 2788              	.LASF96:
 2789 027d 666C6F77 		.ascii	"flowDisplay1\000"
 2789      44697370 
 2789      6C617931 
 2789      00
 2790              	.LASF97:
 2791 028a 666C6F77 		.ascii	"flowDisplay2\000"
 2791      44697370 
 2791      6C617932 
 2791      00
 2792              	.LASF98:
 2793 0297 666C6F77 		.ascii	"flowDisplay3\000"
 2793      44697370 
 2793      6C617933 
 2793      00
 2794              	.LASF99:
 2795 02a4 666C6F77 		.ascii	"flowDisplay4\000"
ARM GAS  C:\Users\RECEPC~1\AppData\Local\Temp\ccppYrKj.s 			page 54


 2795      44697370 
 2795      6C617934 
 2795      00
 2796              	.LASF56:
 2797 02b1 73657269 		.ascii	"serialMarket\000"
 2797      616C4D61 
 2797      726B6574 
 2797      00
 2798              	.LASF73:
 2799 02be 746F7461 		.ascii	"totalsHandle\000"
 2799      6C734861 
 2799      6E646C65 
 2799      00
 2800              	.LASF34:
 2801 02cb 70726573 		.ascii	"presetValue\000"
 2801      65745661 
 2801      6C756500 
 2802              	.LASF47:
 2803 02d7 6964656E 		.ascii	"identySale\000"
 2803      74795361 
 2803      6C6500
 2804              	.LASF31:
 2805 02e2 73616C65 		.ascii	"saleType\000"
 2805      54797065 
 2805      00
 2806              	.LASF29:
 2807 02eb 76616C75 		.ascii	"valueKeys\000"
 2807      654B6579 
 2807      7300
 2808              	.LASF18:
 2809 02f5 63686172 		.ascii	"char\000"
 2809      00
 2810              	.LASF125:
 2811 02fa 436F6E76 		.ascii	"ConversionFactor\000"
 2811      65727369 
 2811      6F6E4661 
 2811      63746F72 
 2811      00
 2812              	.LASF100:
 2813 030b 6E756D62 		.ascii	"numberKeys1\000"
 2813      65724B65 
 2813      79733100 
 2814              	.LASF101:
 2815 0317 6E756D62 		.ascii	"numberKeys2\000"
 2815      65724B65 
 2815      79733200 
 2816              	.LASF94:
 2817 0323 636F756E 		.ascii	"countBeagleTX\000"
 2817      74426561 
 2817      676C6554 
 2817      5800
 2818              	.LASF87:
 2819 0331 7461626C 		.ascii	"table\000"
 2819      6500
 2820              	.LASF159:
 2821 0337 52465F43 		.ascii	"RF_Connection_PutChar\000"
 2821      6F6E6E65 
ARM GAS  C:\Users\RECEPC~1\AppData\Local\Temp\ccppYrKj.s 			page 55


 2821      6374696F 
 2821      6E5F5075 
 2821      74436861 
 2822              	.LASF12:
 2823 034d 75696E74 		.ascii	"uint16\000"
 2823      313600
 2824              	.LASF112:
 2825 0354 64617465 		.ascii	"date\000"
 2825      00
 2826              	.LASF49:
 2827 0359 666C6167 		.ascii	"flagPayment\000"
 2827      5061796D 
 2827      656E7400 
 2828              	.LASF17:
 2829 0365 63686172 		.ascii	"char8\000"
 2829      3800
 2830              	.LASF55:
 2831 036b 70707551 		.ascii	"ppuQuota\000"
 2831      756F7461 
 2831      00
 2832              	.LASF83:
 2833 0374 6461746F 		.ascii	"datos\000"
 2833      7300
 2834              	.LASF42:
 2835 037a 746F7461 		.ascii	"totalMoneyAfter\000"
 2835      6C4D6F6E 
 2835      65794166 
 2835      74657200 
 2836              	.LASF161:
 2837 038a 2E5C5246 		.ascii	".\\RFPoll.c\000"
 2837      506F6C6C 
 2837      2E6300
 2838              	.LASF53:
 2839 0395 6D6F6E65 		.ascii	"moneyQuota\000"
 2839      7951756F 
 2839      746100
 2840              	.LASF65:
 2841 03a0 7072696E 		.ascii	"printers\000"
 2841      74657273 
 2841      00
 2842              	.LASF163:
 2843 03a9 76657269 		.ascii	"verificar_check\000"
 2843      66696361 
 2843      725F6368 
 2843      65636B00 
 2844              	.LASF75:
 2845 03b9 6D6F6E65 		.ascii	"moneySale\000"
 2845      7953616C 
 2845      6500
 2846              	.LASF6:
 2847 03c3 6C6F6E67 		.ascii	"long long int\000"
 2847      206C6F6E 
 2847      6720696E 
 2847      7400
 2848              	.LASF77:
 2849 03d1 70707553 		.ascii	"ppuSale\000"
 2849      616C6500 
ARM GAS  C:\Users\RECEPC~1\AppData\Local\Temp\ccppYrKj.s 			page 56


 2850              	.LASF92:
 2851 03d9 636F756E 		.ascii	"countAnimation1\000"
 2851      74416E69 
 2851      6D617469 
 2851      6F6E3100 
 2852              	.LASF131:
 2853 03e9 4E756D50 		.ascii	"NumPositions\000"
 2853      6F736974 
 2853      696F6E73 
 2853      00
 2854              	.LASF120:
 2855 03f6 73746174 		.ascii	"stateBeagleSoft\000"
 2855      65426561 
 2855      676C6553 
 2855      6F667400 
 2856              	.LASF41:
 2857 0406 746F7461 		.ascii	"totalPPUPrevious\000"
 2857      6C505055 
 2857      50726576 
 2857      696F7573 
 2857      00
 2858              	.LASF93:
 2859 0417 636F756E 		.ascii	"countAnimation2\000"
 2859      74416E69 
 2859      6D617469 
 2859      6F6E3200 
 2860              	.LASF62:
 2861 0427 746F7461 		.ascii	"totalMarket\000"
 2861      6C4D6172 
 2861      6B657400 
 2862              	.LASF138:
 2863 0433 74696D65 		.ascii	"timeDownHandle\000"
 2863      446F776E 
 2863      48616E64 
 2863      6C6500
 2864              	.LASF30:
 2865 0442 76656869 		.ascii	"vehicleType\000"
 2865      636C6554 
 2865      79706500 
 2866              	.LASF48:
 2867 044e 666C6167 		.ascii	"flagKeyboard\000"
 2867      4B657962 
 2867      6F617264 
 2867      00
 2868              	.LASF84:
 2869 045b 73697A65 		.ascii	"size\000"
 2869      00
 2870              	.LASF13:
 2871 0460 75696E74 		.ascii	"uint32\000"
 2871      333200
 2872              	.LASF119:
 2873 0467 666C6167 		.ascii	"flagResetMux\000"
 2873      52657365 
 2873      744D7578 
 2873      00
 2874              	.LASF44:
 2875 0474 746F7461 		.ascii	"totalPPUAfter\000"
ARM GAS  C:\Users\RECEPC~1\AppData\Local\Temp\ccppYrKj.s 			page 57


 2875      6C505055 
 2875      41667465 
 2875      7200
 2876              	.LASF27:
 2877 0482 6B657962 		.ascii	"keyboardWayToPay\000"
 2877      6F617264 
 2877      57617954 
 2877      6F506179 
 2877      00
 2878              	.LASF107:
 2879 0493 70707578 		.ascii	"ppux10\000"
 2879      313000
 2880              	.LASF39:
 2881 049a 746F7461 		.ascii	"totalMoneyPrevious\000"
 2881      6C4D6F6E 
 2881      65795072 
 2881      6576696F 
 2881      757300
 2882              	.LASF102:
 2883 04ad 666C6167 		.ascii	"flagPoint1\000"
 2883      506F696E 
 2883      743100
 2884              	.LASF25:
 2885 04b8 6D6F6E65 		.ascii	"moneySelectedSale\000"
 2885      7953656C 
 2885      65637465 
 2885      6453616C 
 2885      6500
 2886              	.LASF110:
 2887 04ca 73796D62 		.ascii	"symbols\000"
 2887      6F6C7300 
 2888              	.LASF90:
 2889 04d2 70726F67 		.ascii	"programar_ok\000"
 2889      72616D61 
 2889      725F6F6B 
 2889      00
 2890              	.LASF137:
 2891 04df 64617465 		.ascii	"dateDownHandle\000"
 2891      446F776E 
 2891      48616E64 
 2891      6C6500
 2892              	.LASF45:
 2893 04ee 6C696365 		.ascii	"licenceSale\000"
 2893      6E636553 
 2893      616C6500 
 2894              	.LASF64:
 2895 04fa 70726963 		.ascii	"priceConsign\000"
 2895      65436F6E 
 2895      7369676E 
 2895      00
 2896              	.LASF2:
 2897 0507 73686F72 		.ascii	"short int\000"
 2897      7420696E 
 2897      7400
 2898              	.LASF4:
 2899 0511 6C6F6E67 		.ascii	"long int\000"
 2899      20696E74 
ARM GAS  C:\Users\RECEPC~1\AppData\Local\Temp\ccppYrKj.s 			page 58


 2899      00
 2900              	.LASF136:
 2901 051a 566F6C55 		.ascii	"VolUnit\000"
 2901      6E697400 
 2902              	.LASF123:
 2903 0522 49444361 		.ascii	"IDCast\000"
 2903      737400
 2904              	.LASF91:
 2905 0529 49544D5F 		.ascii	"ITM_RxBuffer\000"
 2905      52784275 
 2905      66666572 
 2905      00
 2906              	.LASF134:
 2907 0536 68696464 		.ascii	"hiddenKeys\000"
 2907      656E4B65 
 2907      797300
 2908              	.LASF69:
 2909 0541 73686966 		.ascii	"shiftId\000"
 2909      74496400 
 2910              	.LASF117:
 2911 0549 74797065 		.ascii	"typeIdSeller\000"
 2911      49645365 
 2911      6C6C6572 
 2911      00
 2912              	.LASF51:
 2913 0556 666C6167 		.ascii	"flagEndSale\000"
 2913      456E6453 
 2913      616C6500 
 2914              	.LASF37:
 2915 0562 64617465 		.ascii	"dateLiftHandle\000"
 2915      4C696674 
 2915      48616E64 
 2915      6C6500
 2916              	.LASF81:
 2917 0571 686F7365 		.ascii	"hoseNumber\000"
 2917      4E756D62 
 2917      657200
 2918              	.LASF151:
 2919 057c 62756666 		.ascii	"bufferDisplay2\000"
 2919      65724469 
 2919      73706C61 
 2919      793200
 2920              	.LASF149:
 2921 058b 696E7449 		.ascii	"intIDStation\000"
 2921      44537461 
 2921      74696F6E 
 2921      00
 2922              	.LASF153:
 2923 0598 62756666 		.ascii	"bufferDisplay4\000"
 2923      65724469 
 2923      73706C61 
 2923      793400
 2924              	.LASF118:
 2925 05a7 70617373 		.ascii	"passwordSeller\000"
 2925      776F7264 
 2925      53656C6C 
 2925      657200
ARM GAS  C:\Users\RECEPC~1\AppData\Local\Temp\ccppYrKj.s 			page 59


 2926              	.LASF43:
 2927 05b6 746F7461 		.ascii	"totalVolumeAfter\000"
 2927      6C566F6C 
 2927      756D6541 
 2927      66746572 
 2927      00
 2928              	.LASF124:
 2929 05c7 556E6974 		.ascii	"UnitType\000"
 2929      54797065 
 2929      00
 2930              	.LASF16:
 2931 05d0 75696E74 		.ascii	"uint64\000"
 2931      363400
 2932              	.LASF105:
 2933 05d7 64656C61 		.ascii	"delayPicture1\000"
 2933      79506963 
 2933      74757265 
 2933      3100
 2934              	.LASF106:
 2935 05e5 64656C61 		.ascii	"delayPicture2\000"
 2935      79506963 
 2935      74757265 
 2935      3200
 2936              	.LASF36:
 2937 05f3 73746174 		.ascii	"stateMux\000"
 2937      654D7578 
 2937      00
 2938              	.LASF19:
 2939 05fc 73697A65 		.ascii	"sizetype\000"
 2939      74797065 
 2939      00
 2940              	.LASF5:
 2941 0605 6C6F6E67 		.ascii	"long unsigned int\000"
 2941      20756E73 
 2941      69676E65 
 2941      6420696E 
 2941      7400
 2942              	.LASF128:
 2943 0617 50505544 		.ascii	"PPUDec\000"
 2943      656300
 2944              	.LASF79:
 2945 061e 61637469 		.ascii	"activeHose\000"
 2945      7665486F 
 2945      736500
 2946              	.LASF63:
 2947 0629 666C6167 		.ascii	"flagProductmarket\000"
 2947      50726F64 
 2947      7563746D 
 2947      61726B65 
 2947      7400
 2948              	.LASF10:
 2949 063b 696E7433 		.ascii	"int32_t\000"
 2949      325F7400 
 2950              	.LASF59:
 2951 0643 7175616E 		.ascii	"quantAvailableMark\000"
 2951      74417661 
 2951      696C6162 
ARM GAS  C:\Users\RECEPC~1\AppData\Local\Temp\ccppYrKj.s 			page 60


 2951      6C654D61 
 2951      726B00
 2952              	.LASF23:
 2953 0656 666C6167 		.ascii	"flagWayToPayMixed\000"
 2953      57617954 
 2953      6F506179 
 2953      4D697865 
 2953      6400
 2954              	.LASF1:
 2955 0668 756E7369 		.ascii	"unsigned char\000"
 2955      676E6564 
 2955      20636861 
 2955      7200
 2956              	.LASF160:
 2957 0676 474E5520 		.ascii	"GNU C 4.9.3 20150303 (release) [ARM/embedded-4_9-br"
 2957      4320342E 
 2957      392E3320 
 2957      32303135 
 2957      30333033 
 2958 06a9 616E6368 		.ascii	"anch revision 221220] -mcpu=cortex-m3 -mthumb -g -O"
 2958      20726576 
 2958      6973696F 
 2958      6E203232 
 2958      31323230 
 2959 06dc 67202D66 		.ascii	"g -ffunction-sections -ffat-lto-objects\000"
 2959      66756E63 
 2959      74696F6E 
 2959      2D736563 
 2959      74696F6E 
 2960              	.LASF28:
 2961 0704 61757468 		.ascii	"authorizationFlag\000"
 2961      6F72697A 
 2961      6174696F 
 2961      6E466C61 
 2961      6700
 2962              	.LASF60:
 2963 0716 70726963 		.ascii	"priceTotalMarket\000"
 2963      65546F74 
 2963      616C4D61 
 2963      726B6574 
 2963      00
 2964              	.LASF82:
 2965 0727 70756D70 		.ascii	"pump\000"
 2965      00
 2966              	.LASF162:
 2967 072c 433A5C55 		.ascii	"C:\\Users\\Recepcion\\Documents\\GitHub\\NSY-DH\\Wo"
 2967      73657273 
 2967      5C526563 
 2967      65706369 
 2967      6F6E5C44 
 2968 0759 726B7370 		.ascii	"rkspace01\\Design01.cydsn\000"
 2968      61636530 
 2968      315C4465 
 2968      7369676E 
 2968      30312E63 
 2969              	.LASF115:
 2970 0772 74656D70 		.ascii	"temporal\000"
ARM GAS  C:\Users\RECEPC~1\AppData\Local\Temp\ccppYrKj.s 			page 61


 2970      6F72616C 
 2970      00
 2971              	.LASF127:
 2972 077b 566F6C44 		.ascii	"VolDec\000"
 2972      656300
 2973              	.LASF33:
 2974 0782 70726573 		.ascii	"presetType\000"
 2974      65745479 
 2974      706500
 2975              	.LASF61:
 2976 078d 70726963 		.ascii	"priceUnitMarket\000"
 2976      65556E69 
 2976      744D6172 
 2976      6B657400 
 2977              	.LASF76:
 2978 079d 766F6C75 		.ascii	"volumeSale\000"
 2978      6D655361 
 2978      6C6500
 2979              	.LASF70:
 2980 07a8 73686966 		.ascii	"shiftPassword\000"
 2980      74506173 
 2980      73776F72 
 2980      6400
 2981              	.LASF0:
 2982 07b6 7369676E 		.ascii	"signed char\000"
 2982      65642063 
 2982      68617200 
 2983              	.LASF139:
 2984 07c2 636F756E 		.ascii	"count_protector\000"
 2984      745F7072 
 2984      6F746563 
 2984      746F7200 
 2985              	.LASF3:
 2986 07d2 73686F72 		.ascii	"short unsigned int\000"
 2986      7420756E 
 2986      7369676E 
 2986      65642069 
 2986      6E7400
 2987              	.LASF95:
 2988 07e5 636F756E 		.ascii	"countPump\000"
 2988      7450756D 
 2988      7000
 2989              	.LASF155:
 2990 07ef 6D656D63 		.ascii	"memcpy\000"
 2990      707900
 2991              	.LASF78:
 2992 07f6 70726F64 		.ascii	"productSale\000"
 2992      75637453 
 2992      616C6500 
 2993              	.LASF11:
 2994 0802 75696E74 		.ascii	"uint8\000"
 2994      3800
 2995              	.LASF15:
 2996 0808 646F7562 		.ascii	"double\000"
 2996      6C6500
 2997              	.LASF22:
 2998 080f 77617954 		.ascii	"wayToPay\000"
ARM GAS  C:\Users\RECEPC~1\AppData\Local\Temp\ccppYrKj.s 			page 62


 2998      6F506179 
 2998      00
 2999              	.LASF38:
 3000 0818 74696D65 		.ascii	"timeLiftHandle\000"
 3000      4C696674 
 3000      48616E64 
 3000      6C6500
 3001              	.LASF74:
 3002 0827 70707541 		.ascii	"ppuAuthorized\000"
 3002      7574686F 
 3002      72697A65 
 3002      6400
 3003              	.LASF26:
 3004 0835 73657269 		.ascii	"serialSelectedSale\000"
 3004      616C5365 
 3004      6C656374 
 3004      65645361 
 3004      6C6500
 3005              	.LASF72:
 3006 0848 706F7369 		.ascii	"position\000"
 3006      74696F6E 
 3006      00
 3007              	.LASF150:
 3008 0851 62756666 		.ascii	"bufferDisplay1\000"
 3008      65724469 
 3008      73706C61 
 3008      793100
 3009              	.LASF144:
 3010 0860 70756D70 		.ascii	"pumpGap\000"
 3010      47617000 
 3011              	.LASF165:
 3012 0868 52465F43 		.ascii	"RF_Connection_ClearRxBuffer\000"
 3012      6F6E6E65 
 3012      6374696F 
 3012      6E5F436C 
 3012      65617252 
 3013              		.ident	"GCC: (GNU Tools for ARM Embedded Processors) 4.9.3 20150303 (release) [ARM/embedded-4_9-br
