ARM GAS  C:\Users\RECEPC~1\AppData\Local\Temp\ccIFDC7N.s 			page 1


   1              		.syntax unified
   2              		.cpu cortex-m3
   3              		.fpu softvfp
   4              		.eabi_attribute 20, 1
   5              		.eabi_attribute 21, 1
   6              		.eabi_attribute 23, 3
   7              		.eabi_attribute 24, 1
   8              		.eabi_attribute 25, 1
   9              		.eabi_attribute 26, 1
  10              		.eabi_attribute 30, 1
  11              		.eabi_attribute 34, 1
  12              		.eabi_attribute 18, 4
  13              		.thumb
  14              		.file	"RFPoll.c"
  15              		.text
  16              	.Ltext0:
  17              		.cfi_sections	.debug_frame
  18              		.section	.text.verificar_check,"ax",%progbits
  19              		.align	2
  20              		.global	verificar_check
  21              		.thumb
  22              		.thumb_func
  23              		.type	verificar_check, %function
  24              	verificar_check:
  25              	.LFB63:
  26              		.file 1 ".\\RFPoll.c"
   1:.\RFPoll.c    **** #include <project.h>
   2:.\RFPoll.c    **** #include <protocol.h>
   3:.\RFPoll.c    **** #include <variables.h>
   4:.\RFPoll.c    **** #include <RFPoll.h>
   5:.\RFPoll.c    **** #include <LCD.h>
   6:.\RFPoll.c    **** #include <I2C.h>
   7:.\RFPoll.c    **** #include <Print.h>
   8:.\RFPoll.c    **** #include <device.h>
   9:.\RFPoll.c    **** #include <stdio.h>
  10:.\RFPoll.c    **** #include <stdlib.h>
  11:.\RFPoll.c    **** 
  12:.\RFPoll.c    **** 
  13:.\RFPoll.c    **** 
  14:.\RFPoll.c    **** /*
  15:.\RFPoll.c    **** ***************************************************************************************************
  16:.\RFPoll.c    **** *                             uint8 verificar_check(uint8 *datos, uint16 size)
  17:.\RFPoll.c    **** *
  18:.\RFPoll.c    **** * Description : calcula el checksum
  19:.\RFPoll.c    **** *               
  20:.\RFPoll.c    **** 
  21:.\RFPoll.c    **** ***************************************************************************************************
  22:.\RFPoll.c    **** */
  23:.\RFPoll.c    **** uint8 verificar_check(uint8 *datos, uint16 size){
  27              		.loc 1 23 0
  28              		.cfi_startproc
  29              		@ args = 0, pretend = 0, frame = 256
  30              		@ frame_needed = 0, uses_anonymous_args = 0
  31              	.LVL0:
  32 0000 30B5     		push	{r4, r5, lr}
  33              		.cfi_def_cfa_offset 12
  34              		.cfi_offset 4, -12
ARM GAS  C:\Users\RECEPC~1\AppData\Local\Temp\ccIFDC7N.s 			page 2


  35              		.cfi_offset 5, -8
  36              		.cfi_offset 14, -4
  37 0002 C1B0     		sub	sp, sp, #260
  38              		.cfi_def_cfa_offset 272
  39 0004 0546     		mov	r5, r0
  40 0006 0C46     		mov	r4, r1
  24:.\RFPoll.c    **** 	uint8 checksum,index; 
  25:.\RFPoll.c    **** 	uint16 i;
  26:.\RFPoll.c    ****     uint8 table[256] = { 
  41              		.loc 1 26 0
  42 0008 6846     		mov	r0, sp
  43              	.LVL1:
  44 000a 0949     		ldr	r1, .L5
  45              	.LVL2:
  46 000c 4FF48072 		mov	r2, #256
  47 0010 FFF7FEFF 		bl	memcpy
  48              	.LVL3:
  27:.\RFPoll.c    ****     0, 94,188,226, 97, 63,221,131,194,156,126, 32,163,253, 31, 65,
  28:.\RFPoll.c    ****     157,195, 33,127,252,162, 64, 30, 95,  1,227,189, 62, 96,130,220,
  29:.\RFPoll.c    ****     35,125,159,193, 66, 28,254,160,225,191, 93,  3,128,222, 60, 98,
  30:.\RFPoll.c    ****     190,224,  2, 92,223,129, 99, 61,124, 34,192,158, 29, 67,161,255,
  31:.\RFPoll.c    ****     70, 24,250,164, 39,121,155,197,132,218, 56,102,229,187, 89,  7,
  32:.\RFPoll.c    ****     219,133,103, 57,186,228,  6, 88, 25, 71,165,251,120, 38,196,154,
  33:.\RFPoll.c    ****     101, 59,217,135,  4, 90,184,230,167,249, 27, 69,198,152,122, 36,
  34:.\RFPoll.c    ****     248,166, 68, 26,153,199, 37,123, 58,100,134,216, 91,  5,231,185,
  35:.\RFPoll.c    ****     140,210, 48,110,237,179, 81, 15, 78, 16,242,172, 47,113,147,205,
  36:.\RFPoll.c    ****     17, 79,173,243,112, 46,204,146,211,141,111, 49,178,236, 14, 80,
  37:.\RFPoll.c    ****     175,241, 19, 77,206,144,114, 44,109, 51,209,143, 12, 82,176,238,
  38:.\RFPoll.c    ****     50,108,142,208, 83, 13,239,177,240,174, 76, 18,145,207, 45,115,
  39:.\RFPoll.c    ****     202,148,118, 40,171,245, 23, 73,  8, 86,180,234,105, 55,213,139,
  40:.\RFPoll.c    ****     87,  9,235,181, 54,104,138,212,149,203, 41,119,244,170, 72, 22,
  41:.\RFPoll.c    ****     233,183, 85, 11,136,214, 52,106, 43,117,151,201, 74, 20,246,168,
  42:.\RFPoll.c    ****     116, 42,200,150, 21, 75,169,247,182,232, 10, 84,215,137,107, 53};	
  43:.\RFPoll.c    **** 	checksum=0;
  44:.\RFPoll.c    **** 	for(i=0;i<(size-1);i++){
  49              		.loc 1 44 0
  50 0014 0023     		movs	r3, #0
  43:.\RFPoll.c    **** 	for(i=0;i<(size-1);i++){
  51              		.loc 1 43 0
  52 0016 1846     		mov	r0, r3
  53              		.loc 1 44 0
  54 0018 05E0     		b	.L2
  55              	.LVL4:
  56              	.L3:
  45:.\RFPoll.c    **** 		index = (uint8)(checksum ^ datos[i]);
  57              		.loc 1 45 0 discriminator 3
  58 001a EA5C     		ldrb	r2, [r5, r3]	@ zero_extendqisi2
  59 001c 5040     		eors	r0, r0, r2
  60              	.LVL5:
  46:.\RFPoll.c    **** 		checksum = table[index];				
  61              		.loc 1 46 0 discriminator 3
  62 001e 1DF80000 		ldrb	r0, [sp, r0]	@ zero_extendqisi2
  63              	.LVL6:
  44:.\RFPoll.c    **** 		index = (uint8)(checksum ^ datos[i]);
  64              		.loc 1 44 0 discriminator 3
  65 0022 0133     		adds	r3, r3, #1
  66              	.LVL7:
ARM GAS  C:\Users\RECEPC~1\AppData\Local\Temp\ccIFDC7N.s 			page 3


  67 0024 9BB2     		uxth	r3, r3
  68              	.LVL8:
  69              	.L2:
  44:.\RFPoll.c    **** 		index = (uint8)(checksum ^ datos[i]);
  70              		.loc 1 44 0 is_stmt 0 discriminator 1
  71 0026 621E     		subs	r2, r4, #1
  72 0028 9342     		cmp	r3, r2
  73 002a F6DB     		blt	.L3
  47:.\RFPoll.c    **** 	}
  48:.\RFPoll.c    **** 	return checksum;
  49:.\RFPoll.c    **** }
  74              		.loc 1 49 0 is_stmt 1
  75 002c 41B0     		add	sp, sp, #260
  76              		.cfi_def_cfa_offset 12
  77              		@ sp needed
  78 002e 30BD     		pop	{r4, r5, pc}
  79              	.LVL9:
  80              	.L6:
  81              		.align	2
  82              	.L5:
  83 0030 00000000 		.word	.LANCHOR0
  84              		.cfi_endproc
  85              	.LFE63:
  86              		.size	verificar_check, .-verificar_check
  87              		.section	.text.pollingRFA_Tx,"ax",%progbits
  88              		.align	2
  89              		.global	pollingRFA_Tx
  90              		.thumb
  91              		.thumb_func
  92              		.type	pollingRFA_Tx, %function
  93              	pollingRFA_Tx:
  94              	.LFB65:
  50:.\RFPoll.c    **** 
  51:.\RFPoll.c    **** 
  52:.\RFPoll.c    **** 
  53:.\RFPoll.c    **** 
  54:.\RFPoll.c    **** void pollingRF_Rx(){
  55:.\RFPoll.c    ****     uint16 i,x,y,z;       
  56:.\RFPoll.c    ****     CyDelay(30);
  57:.\RFPoll.c    ****     if(RF_Connection_GetRxBufferSize() >= 1){
  58:.\RFPoll.c    ****         ActiveRF=1;
  59:.\RFPoll.c    ****         counterRF = 0;
  60:.\RFPoll.c    ****         i=0;
  61:.\RFPoll.c    ****         while(RF_Connection_GetRxBufferSize()>0){//&& (RF_Connection_RX_STS_FIFO_NOTEMPTY)
  62:.\RFPoll.c    ****            buffer_rf[i]=RF_Connection_ReadRxData(); 	
  63:.\RFPoll.c    ****     	   i++;	
  64:.\RFPoll.c    ****         } 
  65:.\RFPoll.c    ****         y=0;
  66:.\RFPoll.c    ****         buffer_tx[y] = 0xBC; y++;
  67:.\RFPoll.c    ****         buffer_tx[y] = 0xCB; y++;
  68:.\RFPoll.c    ****         buffer_tx[y] = 0xC8; y++;
  69:.\RFPoll.c    ****         buffer_tx[y] = IDCast[0]; y++;
  70:.\RFPoll.c    ****         buffer_tx[y] = IDCast[1]; y++;
  71:.\RFPoll.c    ****         if(((buffer_rf[0]==0xBC)&&(buffer_rf[1]==0xBB)&&(buffer_rf[2]==0xB8)&&(buffer_rf[3]==IDCast
  72:.\RFPoll.c    ****             switch(buffer_rf[6]){
  73:.\RFPoll.c    ****                case 0xA1:               //Peticion de estado
  74:.\RFPoll.c    ****                 if(buffer_rf[5] == side.a.dir){
ARM GAS  C:\Users\RECEPC~1\AppData\Local\Temp\ccIFDC7N.s 			page 4


  75:.\RFPoll.c    ****                     if(side.a.RFstateReport == 0){                        
  76:.\RFPoll.c    ****                         buffer_tx[5] = side.a.dir;y++;
  77:.\RFPoll.c    ****                         buffer_tx[y] = 0xA1;y++;
  78:.\RFPoll.c    ****                         buffer_tx[y] = side.a.rfState; y++;
  79:.\RFPoll.c    ****                         buffer_tx[y] = verificar_check(buffer_tx,y+1);y++;
  80:.\RFPoll.c    ****                         for (x = 0; x < y; x++){
  81:.\RFPoll.c    ****                             RF_Connection_PutChar(buffer_tx[x]);
  82:.\RFPoll.c    ****                         }
  83:.\RFPoll.c    ****                     }else{
  84:.\RFPoll.c    ****                         pollingRFA_Tx();
  85:.\RFPoll.c    ****                     } 
  86:.\RFPoll.c    ****                 }
  87:.\RFPoll.c    ****                 if(buffer_rf[5] == side.b.dir){
  88:.\RFPoll.c    ****                     if(side.b.RFstateReport == 0){
  89:.\RFPoll.c    ****                         buffer_tx[5] = side.b.dir;y++;
  90:.\RFPoll.c    ****                         buffer_tx[y] = 0xA1;y++;
  91:.\RFPoll.c    ****                         buffer_tx[y] = side.b.rfState;y++;
  92:.\RFPoll.c    ****                         buffer_tx[y] = verificar_check(buffer_tx,y+1);y++;
  93:.\RFPoll.c    ****                         for (x = 0; x < y; x++){
  94:.\RFPoll.c    ****                             RF_Connection_PutChar(buffer_tx[x]);
  95:.\RFPoll.c    ****                         }
  96:.\RFPoll.c    ****                     }else{
  97:.\RFPoll.c    ****                         pollingRFB_Tx();
  98:.\RFPoll.c    ****                     } 
  99:.\RFPoll.c    ****                 }
 100:.\RFPoll.c    ****                 if(buffer_rf[5] == side.c.dir){
 101:.\RFPoll.c    ****                     buffer_tx[5] = side.c.dir; y++;
 102:.\RFPoll.c    ****                     buffer_tx[y] = 0xA1; y++;
 103:.\RFPoll.c    ****                     buffer_tx[y] = side.c.rfState; y++;
 104:.\RFPoll.c    ****                     buffer_tx[y] = verificar_check(buffer_tx,y+1);y++;
 105:.\RFPoll.c    ****                     for (x = 0; x < y; x++){
 106:.\RFPoll.c    ****                         RF_Connection_PutChar(buffer_tx[x]);
 107:.\RFPoll.c    ****                     }
 108:.\RFPoll.c    ****                 }
 109:.\RFPoll.c    ****                 if(buffer_rf[5] == side.d.dir){
 110:.\RFPoll.c    ****                     buffer_tx[5] = side.d.dir; y++;
 111:.\RFPoll.c    ****                     buffer_tx[y] = 0xA1; y++;
 112:.\RFPoll.c    ****                     buffer_tx[y] = side.d.rfState; y++;
 113:.\RFPoll.c    ****                     buffer_tx[y] = verificar_check(buffer_tx,y+1);y++;
 114:.\RFPoll.c    ****                     for (x = 0; x < y; x++){
 115:.\RFPoll.c    ****                         RF_Connection_PutChar(buffer_tx[x]);
 116:.\RFPoll.c    ****                     }
 117:.\RFPoll.c    ****                 }                    
 118:.\RFPoll.c    ****                break;
 119:.\RFPoll.c    ****                
 120:.\RFPoll.c    ****                
 121:.\RFPoll.c    ****                case 0xA5:
 122:.\RFPoll.c    ****                 if(buffer_rf[5] == side.a.dir){
 123:.\RFPoll.c    ****                     getTotals(side.a.dir);
 124:.\RFPoll.c    ****                     buffer_tx[5] = side.a.dir; y++;
 125:.\RFPoll.c    ****                     buffer_tx[y] = 0xE8; y++;
 126:.\RFPoll.c    ****                     buffer_tx[y] = side.a.rfState; y++;
 127:.\RFPoll.c    ****                     buffer_tx[y] = 0x00; y++;
 128:.\RFPoll.c    ****                     for(z=1;z <= side.a.hoseNumber; z++){
 129:.\RFPoll.c    ****                         buffer_tx[y] = z; y++;                    
 130:.\RFPoll.c    ****                         if (digits == 6 || digits == 5){                            
 131:.\RFPoll.c    ****                             for(x = 8; x > 0; x--){ //Volumen
ARM GAS  C:\Users\RECEPC~1\AppData\Local\Temp\ccIFDC7N.s 			page 5


 132:.\RFPoll.c    ****                                 buffer_tx[y] = side.a.totalsHandle[0][0][x];y++;
 133:.\RFPoll.c    ****                             }
 134:.\RFPoll.c    ****                             for(x =0; x < 4; x++){
 135:.\RFPoll.c    ****                                 buffer_tx[y] = 0x30;y++;
 136:.\RFPoll.c    ****                             }
 137:.\RFPoll.c    ****                             for(x = 8; x > 0; x--){//Dinero
 138:.\RFPoll.c    ****                                 buffer_tx[y] = side.a.totalsHandle[0][1][x];y++;
 139:.\RFPoll.c    ****                             }
 140:.\RFPoll.c    ****                             for(x =0; x < 4; x++){
 141:.\RFPoll.c    ****                                 buffer_tx[y] = 0x30;y++;
 142:.\RFPoll.c    ****                             }
 143:.\RFPoll.c    ****                         }else{
 144:.\RFPoll.c    ****                             for(x = 12; x > 0; x--){ //Volumen
 145:.\RFPoll.c    ****                                 buffer_tx[y] = side.a.totalsHandle[0][0][x];y++;
 146:.\RFPoll.c    ****                             }                        
 147:.\RFPoll.c    ****                             for(x = 12; x > 0; x--){//Dinero
 148:.\RFPoll.c    ****                                 buffer_tx[y] = side.a.totalsHandle[0][1][x];y++;
 149:.\RFPoll.c    ****                             }                        
 150:.\RFPoll.c    ****                         } 
 151:.\RFPoll.c    ****                     }
 152:.\RFPoll.c    ****                 }                
 153:.\RFPoll.c    ****                 if(buffer_rf[5] == side.b.dir){                
 154:.\RFPoll.c    ****                     getTotals(side.b.dir);
 155:.\RFPoll.c    ****                     buffer_tx[5] = side.b.dir; y++;
 156:.\RFPoll.c    ****                     buffer_tx[y] = 0xE8; y++;
 157:.\RFPoll.c    ****                     buffer_tx[y] = side.b.rfState; y++;
 158:.\RFPoll.c    ****                     buffer_tx[y] = 0x00; y++;
 159:.\RFPoll.c    ****                     for(z=1;z <= side.b.hoseNumber; z++){
 160:.\RFPoll.c    ****                         buffer_tx[y] = z; y++;
 161:.\RFPoll.c    ****                         if (digits == 6 || digits == 5){                            
 162:.\RFPoll.c    ****                             for(x = 8; x > 0; x--){ //Volumen
 163:.\RFPoll.c    ****                                 buffer_tx[y] = side.b.totalsHandle[0][0][x];y++;
 164:.\RFPoll.c    ****                             }
 165:.\RFPoll.c    ****                             for(x =0; x < 4; x++){
 166:.\RFPoll.c    ****                                 buffer_tx[y] = 0x30;y++;
 167:.\RFPoll.c    ****                             }
 168:.\RFPoll.c    ****                             for(x = 8; x > 0; x--){//Dinero
 169:.\RFPoll.c    ****                                 buffer_tx[y] = side.b.totalsHandle[0][1][x];y++;
 170:.\RFPoll.c    ****                             }
 171:.\RFPoll.c    ****                             for(x =0; x < 4; x++){
 172:.\RFPoll.c    ****                                 buffer_tx[y] = 0x30;y++;
 173:.\RFPoll.c    ****                             }
 174:.\RFPoll.c    ****                         }else{
 175:.\RFPoll.c    ****                             for(x = 12; x > 0; x--){ //Volumen
 176:.\RFPoll.c    ****                                 buffer_tx[y] = side.b.totalsHandle[0][0][x];y++;
 177:.\RFPoll.c    ****                             }                        
 178:.\RFPoll.c    ****                             for(x = 12; x > 0; x--){//Dinero
 179:.\RFPoll.c    ****                                 buffer_tx[y] = side.b.totalsHandle[0][1][x];y++;
 180:.\RFPoll.c    ****                             }                        
 181:.\RFPoll.c    ****                         }
 182:.\RFPoll.c    ****                     }
 183:.\RFPoll.c    ****                 }
 184:.\RFPoll.c    ****                 buffer_tx[8] = y-9;
 185:.\RFPoll.c    ****                 buffer_tx[y] = verificar_check(buffer_tx,y+1);y++;                 
 186:.\RFPoll.c    ****                 for (x = 0; x < y; x++){
 187:.\RFPoll.c    ****                     RF_Connection_PutChar(buffer_tx[x]);
 188:.\RFPoll.c    ****                 }
ARM GAS  C:\Users\RECEPC~1\AppData\Local\Temp\ccIFDC7N.s 			page 6


 189:.\RFPoll.c    ****                break;
 190:.\RFPoll.c    ****                 
 191:.\RFPoll.c    ****                case 0xA6:               //Envio de precios
 192:.\RFPoll.c    ****                 if(buffer_rf[5] == side.a.dir){                        
 193:.\RFPoll.c    ****                     for(x=9;x < 14 ; x++ ){
 194:.\RFPoll.c    ****                         side.a.ppuAuthorized[buffer_rf[8]][x-9] = buffer_rf[x];
 195:.\RFPoll.c    ****                     }
 196:.\RFPoll.c    ****                     side.a.changePPU = true;
 197:.\RFPoll.c    ****                     side.a.grade = buffer_rf[8];
 198:.\RFPoll.c    ****                     buffer_tx[5] = side.a.dir;y++;
 199:.\RFPoll.c    ****                     buffer_tx[y] = 0xA6;y++;
 200:.\RFPoll.c    ****                     buffer_tx[y] = 0x03;y++;
 201:.\RFPoll.c    ****                 } 
 202:.\RFPoll.c    ****                 if(buffer_rf[5] == side.b.dir){                        
 203:.\RFPoll.c    ****                     for(x=9;x < 14 ; x++ ){
 204:.\RFPoll.c    ****                         side.b.ppuAuthorized[buffer_rf[8]][x-9] = buffer_rf[x];
 205:.\RFPoll.c    ****                     }
 206:.\RFPoll.c    ****                     side.b.changePPU = true;
 207:.\RFPoll.c    ****                     side.b.grade = buffer_rf[8];
 208:.\RFPoll.c    ****                     buffer_tx[5] = side.b.dir; y++;
 209:.\RFPoll.c    ****                     buffer_tx[y] = 0xA6;y++;
 210:.\RFPoll.c    ****                     buffer_tx[y] = 0x03;y++;
 211:.\RFPoll.c    ****                 } 
 212:.\RFPoll.c    ****                 if(buffer_rf[5] == side.c.dir){                        
 213:.\RFPoll.c    ****                     for(x=9;x < 14 ; x++ ){
 214:.\RFPoll.c    ****                         side.c.ppuAuthorized[buffer_rf[8]][x-9] = buffer_rf[x];
 215:.\RFPoll.c    ****                     }
 216:.\RFPoll.c    ****                     side.c.changePPU = true;
 217:.\RFPoll.c    ****                     side.c.grade = buffer_rf[8];
 218:.\RFPoll.c    ****                     buffer_tx[5] = side.c.dir; y++;
 219:.\RFPoll.c    ****                     buffer_tx[y] = 0xA6;y++;
 220:.\RFPoll.c    ****                     buffer_tx[y] = 0x03;y++;
 221:.\RFPoll.c    ****                 } 
 222:.\RFPoll.c    ****                 if(buffer_rf[5] == side.d.dir){                        
 223:.\RFPoll.c    ****                     for(x=9;x < 14 ; x++ ){
 224:.\RFPoll.c    ****                         side.d.ppuAuthorized[buffer_rf[8]][x-9] = buffer_rf[x];
 225:.\RFPoll.c    ****                     }
 226:.\RFPoll.c    ****                     side.d.changePPU = true;
 227:.\RFPoll.c    ****                     side.d.grade = buffer_rf[8];
 228:.\RFPoll.c    ****                     buffer_tx[5] = side.d.dir; y++;
 229:.\RFPoll.c    ****                     buffer_tx[y] = 0xA6;y++;
 230:.\RFPoll.c    ****                     buffer_tx[y] = 0x03;y++;
 231:.\RFPoll.c    ****                 }
 232:.\RFPoll.c    ****                 buffer_tx[y] = verificar_check(buffer_tx,y+1);y++;
 233:.\RFPoll.c    ****                 for (x = 0; x < y; x++){
 234:.\RFPoll.c    ****                     RF_Connection_PutChar(buffer_tx[x]);
 235:.\RFPoll.c    ****                 }
 236:.\RFPoll.c    ****                break;
 237:.\RFPoll.c    ****                 
 238:.\RFPoll.c    ****                case 0xA7:               //Impresion general
 239:.\RFPoll.c    ****                 
 240:.\RFPoll.c    ****                 if(buffer_rf[5] == side.a.dir){
 241:.\RFPoll.c    ****                     buffer_tx[5] = side.a.dir;
 242:.\RFPoll.c    ****                     buffer_tx[6] = 0xA7;
 243:.\RFPoll.c    ****                     buffer_tx[7] = side.a.rfState;
 244:.\RFPoll.c    ****                 }  
 245:.\RFPoll.c    ****                 if(buffer_rf[5] == side.b.dir){
ARM GAS  C:\Users\RECEPC~1\AppData\Local\Temp\ccIFDC7N.s 			page 7


 246:.\RFPoll.c    ****                     buffer_tx[5] = side.b.dir;
 247:.\RFPoll.c    ****                     buffer_tx[6] = 0xA7;
 248:.\RFPoll.c    ****                     buffer_tx[7] = side.b.rfState;
 249:.\RFPoll.c    ****                 }
 250:.\RFPoll.c    ****                 if(buffer_rf[5] == side.c.dir){
 251:.\RFPoll.c    ****                     buffer_tx[5] = side.c.dir;
 252:.\RFPoll.c    ****                     buffer_tx[6] = 0xA7;
 253:.\RFPoll.c    ****                     buffer_tx[7] = side.c.rfState;
 254:.\RFPoll.c    ****                 }
 255:.\RFPoll.c    ****                 if(buffer_rf[5] == side.d.dir){
 256:.\RFPoll.c    ****                     buffer_tx[5] = side.d.dir;
 257:.\RFPoll.c    ****                     buffer_tx[6] = 0xA7;
 258:.\RFPoll.c    ****                     buffer_tx[7] = side.d.rfState;
 259:.\RFPoll.c    ****                 }
 260:.\RFPoll.c    ****                 buffer_tx[8] = verificar_check(buffer_tx,9);
 261:.\RFPoll.c    ****                 for (x = 0; x < 9; x++){
 262:.\RFPoll.c    ****                     RF_Connection_PutChar(buffer_tx[x]);
 263:.\RFPoll.c    ****                 }
 264:.\RFPoll.c    ****                 
 265:.\RFPoll.c    ****                break;
 266:.\RFPoll.c    ****                case 0xAB:
 267:.\RFPoll.c    ****                 buffer_tx[0] = 0xBC;
 268:.\RFPoll.c    ****                break;
 269:.\RFPoll.c    ****                 
 270:.\RFPoll.c    ****                case 0xE1:               //Configuracion de la estacion
 271:.\RFPoll.c    ****                 symbols[1] = buffer_rf[8];
 272:.\RFPoll.c    ****                 date[0]    = buffer_rf[9];
 273:.\RFPoll.c    ****                 date[1]    = buffer_rf[10];
 274:.\RFPoll.c    ****                 date[2]    = buffer_rf[11];
 275:.\RFPoll.c    ****                 time[1]    = buffer_rf[12];
 276:.\RFPoll.c    ****                 time[0]    = buffer_rf[13];
 277:.\RFPoll.c    ****                 for(x = 17; x < 47; x++){
 278:.\RFPoll.c    ****                     Encabezado1[x-17] = buffer_rf[x];
 279:.\RFPoll.c    ****                 }
 280:.\RFPoll.c    ****                 for(x = 47; x < 77; x++){
 281:.\RFPoll.c    ****                     Encabezado2[x-47] = buffer_rf[x];
 282:.\RFPoll.c    ****                 }
 283:.\RFPoll.c    ****                 for(x = 77; x < 107; x++){
 284:.\RFPoll.c    ****                     Encabezado3[x-77] = buffer_rf[x];
 285:.\RFPoll.c    ****                 }
 286:.\RFPoll.c    ****                 for(x = 107; x < 137; x++){
 287:.\RFPoll.c    ****                     Encabezado4[x-77] = buffer_rf[x];
 288:.\RFPoll.c    ****                 }
 289:.\RFPoll.c    ****                 CopiasCredito = buffer_rf[16];
 290:.\RFPoll.c    ****                 write_hora();
 291:.\RFPoll.c    ****                 write_fecha(); 
 292:.\RFPoll.c    ****                 for(x =0 ; x <30; x++){
 293:.\RFPoll.c    ****                     EEPROM_1_WriteByte(Encabezado1[x],16+x);
 294:.\RFPoll.c    ****                 }
 295:.\RFPoll.c    ****                 for(x =30 ; x <60; x++){
 296:.\RFPoll.c    ****                     EEPROM_1_WriteByte(Encabezado2[x-30],16+x);
 297:.\RFPoll.c    ****                 }
 298:.\RFPoll.c    ****                 for(x =60 ; x <90; x++){
 299:.\RFPoll.c    ****                     EEPROM_1_WriteByte(Encabezado3[x-30],16+x);
 300:.\RFPoll.c    ****                 }
 301:.\RFPoll.c    ****                 for(x =90 ; x <120; x++){
 302:.\RFPoll.c    ****                     EEPROM_1_WriteByte(Encabezado4[x-30],16+x);
ARM GAS  C:\Users\RECEPC~1\AppData\Local\Temp\ccIFDC7N.s 			page 8


 303:.\RFPoll.c    ****                 }
 304:.\RFPoll.c    ****                 side.a.dir = EEPROM_1_ReadByte(12);
 305:.\RFPoll.c    ****                 side.b.dir = EEPROM_1_ReadByte(13);
 306:.\RFPoll.c    ****                 side.c.dir = EEPROM_1_ReadByte(14);
 307:.\RFPoll.c    ****                 side.d.dir = EEPROM_1_ReadByte(15);
 308:.\RFPoll.c    ****                 imprimir(printPortA,side.a.dir);
 309:.\RFPoll.c    ****                break;
 310:.\RFPoll.c    ****                
 311:.\RFPoll.c    ****                case 0xE2:               //Configuracion de la posicion                             
 312:.\RFPoll.c    ****                 buffer_tx[5] = buffer_rf[5];
 313:.\RFPoll.c    ****                 buffer_tx[6] = 0xE2;
 314:.\RFPoll.c    ****                 buffer_tx[7] = 0x08;
 315:.\RFPoll.c    ****                 buffer_tx[8] = 0x03;
 316:.\RFPoll.c    ****                 buffer_tx[9] = verificar_check(buffer_tx,10);
 317:.\RFPoll.c    ****                 for (x = 0; x < 10; x++){
 318:.\RFPoll.c    ****                     RF_Connection_PutChar(buffer_tx[x]);
 319:.\RFPoll.c    ****                 }
 320:.\RFPoll.c    ****                 for(x = 8; x < 12; x++){
 321:.\RFPoll.c    ****                     GradesHose[x-8] = buffer_rf[x];
 322:.\RFPoll.c    ****                 }
 323:.\RFPoll.c    ****                 lockTurn = buffer_rf[12];
 324:.\RFPoll.c    ****                 EEPROM_1_WriteByte(lockTurn,7);
 325:.\RFPoll.c    ****                break;
 326:.\RFPoll.c    ****            }                       
 327:.\RFPoll.c    ****         } 
 328:.\RFPoll.c    ****         RF_Connection_ClearRxBuffer(); 
 329:.\RFPoll.c    ****     }                            
 330:.\RFPoll.c    ****     //countRX = 0;            
 331:.\RFPoll.c    **** }
 332:.\RFPoll.c    **** 
 333:.\RFPoll.c    **** 
 334:.\RFPoll.c    **** void pollingRFA_Tx(){   
  95              		.loc 1 334 0
  96              		.cfi_startproc
  97              		@ args = 0, pretend = 0, frame = 0
  98              		@ frame_needed = 0, uses_anonymous_args = 0
  99 0000 38B5     		push	{r3, r4, r5, lr}
 100              		.cfi_def_cfa_offset 16
 101              		.cfi_offset 3, -16
 102              		.cfi_offset 4, -12
 103              		.cfi_offset 5, -8
 104              		.cfi_offset 14, -4
 335:.\RFPoll.c    ****     uint16 x;  
 336:.\RFPoll.c    ****     
 337:.\RFPoll.c    ****     /////////////// COPIA DE RECIBO //////////////////
 338:.\RFPoll.c    **** //    if(side.a.rfState == RF_COPY_RECEIPT && side.a.RFstateReport == 1){        
 339:.\RFPoll.c    **** //        buffer_txDisplay[5] = side.a.dir;
 340:.\RFPoll.c    **** //        buffer_txDisplay[6] = 0xE6;
 341:.\RFPoll.c    **** //        buffer_txDisplay[7] = RF_COPY_RECEIPT;
 342:.\RFPoll.c    **** //        buffer_txDisplay[8] = verificar_check(buffer_txDisplay,9);
 343:.\RFPoll.c    **** //        for (x = 0; x < 9; x++){
 344:.\RFPoll.c    **** //            RF_Connection_PutChar(buffer_txDisplay[x]);
 345:.\RFPoll.c    **** //        }
 346:.\RFPoll.c    **** //		side.a.RFstateReport = 0;
 347:.\RFPoll.c    **** //    }    
 348:.\RFPoll.c    ****     ////////////// PRESET - DISPENSANDO ////////////////////////////////////
 349:.\RFPoll.c    ****     if(side.a.pumpState == PUMP_BUSY && side.a.RFstateReport == 1){
ARM GAS  C:\Users\RECEPC~1\AppData\Local\Temp\ccIFDC7N.s 			page 9


 105              		.loc 1 349 0
 106 0002 AE4B     		ldr	r3, .L48
 107 0004 93F80431 		ldrb	r3, [r3, #260]	@ zero_extendqisi2
 108 0008 092B     		cmp	r3, #9
 109 000a 40F08980 		bne	.L8
 110              		.loc 1 349 0 is_stmt 0 discriminator 1
 111 000e AB4B     		ldr	r3, .L48
 112 0010 93F80731 		ldrb	r3, [r3, #263]	@ zero_extendqisi2
 113 0014 012B     		cmp	r3, #1
 114 0016 40F08380 		bne	.L8
 350:.\RFPoll.c    ****         buffer_txPreset[0] = 0xBC;
 115              		.loc 1 350 0 is_stmt 1
 116 001a A94B     		ldr	r3, .L48+4
 117 001c BC22     		movs	r2, #188
 118 001e 1A70     		strb	r2, [r3]
 351:.\RFPoll.c    ****         buffer_txPreset[1] = 0xCB;
 119              		.loc 1 351 0
 120 0020 CB22     		movs	r2, #203
 121 0022 5A70     		strb	r2, [r3, #1]
 352:.\RFPoll.c    ****         buffer_txPreset[2] = 0xC8;
 122              		.loc 1 352 0
 123 0024 C822     		movs	r2, #200
 124 0026 9A70     		strb	r2, [r3, #2]
 353:.\RFPoll.c    ****         buffer_txPreset[3] = IDCast[0];
 125              		.loc 1 353 0
 126 0028 A64A     		ldr	r2, .L48+8
 127 002a 1178     		ldrb	r1, [r2]	@ zero_extendqisi2
 128 002c D970     		strb	r1, [r3, #3]
 354:.\RFPoll.c    ****         buffer_txPreset[4] = IDCast[1];
 129              		.loc 1 354 0
 130 002e 5278     		ldrb	r2, [r2, #1]	@ zero_extendqisi2
 131 0030 1A71     		strb	r2, [r3, #4]
 355:.\RFPoll.c    ****         buffer_txPreset[5]  = side.a.dir;
 132              		.loc 1 355 0
 133 0032 A24A     		ldr	r2, .L48
 134 0034 1178     		ldrb	r1, [r2]	@ zero_extendqisi2
 135 0036 5971     		strb	r1, [r3, #5]
 356:.\RFPoll.c    ****         buffer_txPreset[6]  = 0xAA;
 136              		.loc 1 356 0
 137 0038 AA21     		movs	r1, #170
 138 003a 9971     		strb	r1, [r3, #6]
 357:.\RFPoll.c    ****         buffer_txPreset[7]  = RF_DELIVERING;
 139              		.loc 1 357 0
 140 003c 0121     		movs	r1, #1
 141 003e D971     		strb	r1, [r3, #7]
 358:.\RFPoll.c    ****         buffer_txPreset[8]  = side.a.activeHose;
 142              		.loc 1 358 0
 143 0040 92F80021 		ldrb	r2, [r2, #256]	@ zero_extendqisi2
 144 0044 1A72     		strb	r2, [r3, #8]
 359:.\RFPoll.c    ****         buffer_txPreset[9]  = bufferDisplay1.presetType[0]&0x03;
 145              		.loc 1 359 0
 146 0046 A049     		ldr	r1, .L48+12
 147 0048 91F86320 		ldrb	r2, [r1, #99]	@ zero_extendqisi2
 148 004c 02F00302 		and	r2, r2, #3
 149 0050 5A72     		strb	r2, [r3, #9]
 360:.\RFPoll.c    ****         for(x = bufferDisplay1.presetValue[0][0] ; x > 0; x--){
 150              		.loc 1 360 0
ARM GAS  C:\Users\RECEPC~1\AppData\Local\Temp\ccIFDC7N.s 			page 10


 151 0052 91F86500 		ldrb	r0, [r1, #101]	@ zero_extendqisi2
 152 0056 84B2     		uxth	r4, r0
 153              	.LVL10:
 154 0058 08E0     		b	.L9
 155              	.L10:
 361:.\RFPoll.c    ****             tempPreset[bufferDisplay1.presetValue[0][0]-x] = (bufferDisplay1.presetValue[0][x]); 
 156              		.loc 1 361 0 discriminator 3
 157 005a 021B     		subs	r2, r0, r4
 158 005c 9A4B     		ldr	r3, .L48+12
 159 005e 2344     		add	r3, r3, r4
 160 0060 93F86510 		ldrb	r1, [r3, #101]	@ zero_extendqisi2
 161 0064 994B     		ldr	r3, .L48+16
 162 0066 9954     		strb	r1, [r3, r2]
 360:.\RFPoll.c    ****         for(x = bufferDisplay1.presetValue[0][0] ; x > 0; x--){
 163              		.loc 1 360 0 discriminator 3
 164 0068 013C     		subs	r4, r4, #1
 165              	.LVL11:
 166 006a A4B2     		uxth	r4, r4
 167              	.LVL12:
 168              	.L9:
 360:.\RFPoll.c    ****         for(x = bufferDisplay1.presetValue[0][0] ; x > 0; x--){
 169              		.loc 1 360 0 is_stmt 0 discriminator 1
 170 006c 002C     		cmp	r4, #0
 171 006e F4D1     		bne	.L10
 172 0070 0A23     		movs	r3, #10
 173 0072 0CE0     		b	.L11
 174              	.LVL13:
 175              	.L13:
 362:.\RFPoll.c    ****         }
 363:.\RFPoll.c    ****         for(x = 10; x<=17; x++){
 364:.\RFPoll.c    ****             buffer_txPreset[x] = tempPreset[x-10]; 
 176              		.loc 1 364 0 is_stmt 1
 177 0074 A3F10A02 		sub	r2, r3, #10
 178 0078 9449     		ldr	r1, .L48+16
 179 007a 8A5C     		ldrb	r2, [r1, r2]	@ zero_extendqisi2
 180 007c D2B2     		uxtb	r2, r2
 181 007e 9049     		ldr	r1, .L48+4
 182 0080 CA54     		strb	r2, [r1, r3]
 365:.\RFPoll.c    ****             if(buffer_txPreset[x]== 0x00)
 183              		.loc 1 365 0
 184 0082 12B9     		cbnz	r2, .L12
 366:.\RFPoll.c    ****                 buffer_txPreset[x] = 0x30;
 185              		.loc 1 366 0
 186 0084 3021     		movs	r1, #48
 187 0086 8E4A     		ldr	r2, .L48+4
 188 0088 D154     		strb	r1, [r2, r3]
 189              	.L12:
 363:.\RFPoll.c    ****             buffer_txPreset[x] = tempPreset[x-10]; 
 190              		.loc 1 363 0 discriminator 2
 191 008a 0133     		adds	r3, r3, #1
 192              	.LVL14:
 193 008c 9BB2     		uxth	r3, r3
 194              	.LVL15:
 195              	.L11:
 363:.\RFPoll.c    ****             buffer_txPreset[x] = tempPreset[x-10]; 
 196              		.loc 1 363 0 is_stmt 0 discriminator 1
 197 008e 112B     		cmp	r3, #17
ARM GAS  C:\Users\RECEPC~1\AppData\Local\Temp\ccIFDC7N.s 			page 11


 198 0090 F0D9     		bls	.L13
 367:.\RFPoll.c    ****         }        
 368:.\RFPoll.c    ****         buffer_txPreset[18]  = 0x00;
 199              		.loc 1 368 0 is_stmt 1
 200 0092 0022     		movs	r2, #0
 201 0094 8A4B     		ldr	r3, .L48+4
 202              	.LVL16:
 203 0096 9A74     		strb	r2, [r3, #18]
 369:.\RFPoll.c    ****         if(bufferDisplay1.flagPrint == 0){
 204              		.loc 1 369 0
 205 0098 8B4B     		ldr	r3, .L48+12
 206 009a 93F83431 		ldrb	r3, [r3, #308]	@ zero_extendqisi2
 207 009e 63B1     		cbz	r3, .L44
 208 00a0 2346     		mov	r3, r4
 209 00a2 1BE0     		b	.L15
 210              	.LVL17:
 211              	.L16:
 370:.\RFPoll.c    ****             for(x = 0; x <8 ; x++){
 371:.\RFPoll.c    ****                 buffer_txPreset[19+x]=0x20;
 212              		.loc 1 371 0 discriminator 3
 213 00a4 03F11302 		add	r2, r3, #19
 214 00a8 2020     		movs	r0, #32
 215 00aa 8549     		ldr	r1, .L48+4
 216 00ac 8854     		strb	r0, [r1, r2]
 372:.\RFPoll.c    ****                 tempPreset[x] = 0x00;
 217              		.loc 1 372 0 discriminator 3
 218 00ae 0021     		movs	r1, #0
 219 00b0 864A     		ldr	r2, .L48+16
 220 00b2 D154     		strb	r1, [r2, r3]
 370:.\RFPoll.c    ****             for(x = 0; x <8 ; x++){
 221              		.loc 1 370 0 discriminator 3
 222 00b4 0133     		adds	r3, r3, #1
 223              	.LVL18:
 224 00b6 9BB2     		uxth	r3, r3
 225              	.LVL19:
 226 00b8 00E0     		b	.L14
 227              	.LVL20:
 228              	.L44:
 229 00ba 2346     		mov	r3, r4
 230              	.L14:
 231              	.LVL21:
 370:.\RFPoll.c    ****             for(x = 0; x <8 ; x++){
 232              		.loc 1 370 0 is_stmt 0 discriminator 1
 233 00bc 072B     		cmp	r3, #7
 234 00be F1D9     		bls	.L16
 235 00c0 0EE0     		b	.L17
 236              	.L18:
 373:.\RFPoll.c    ****             }
 374:.\RFPoll.c    ****         }else{
 375:.\RFPoll.c    ****             for(x = 0; x <8 ; x++){
 376:.\RFPoll.c    ****                 buffer_txPreset[19+x]=bufferDisplay1.licenceSale[x+1];
 237              		.loc 1 376 0 is_stmt 1 discriminator 3
 238 00c2 03F11300 		add	r0, r3, #19
 239 00c6 591C     		adds	r1, r3, #1
 240 00c8 7F4A     		ldr	r2, .L48+12
 241 00ca 0A44     		add	r2, r2, r1
 242 00cc 92F8DF50 		ldrb	r5, [r2, #223]	@ zero_extendqisi2
ARM GAS  C:\Users\RECEPC~1\AppData\Local\Temp\ccIFDC7N.s 			page 12


 243 00d0 7B4A     		ldr	r2, .L48+4
 244 00d2 1554     		strb	r5, [r2, r0]
 377:.\RFPoll.c    ****                 tempPreset[x] = 0x00;
 245              		.loc 1 377 0 discriminator 3
 246 00d4 0020     		movs	r0, #0
 247 00d6 7D4A     		ldr	r2, .L48+16
 248 00d8 D054     		strb	r0, [r2, r3]
 375:.\RFPoll.c    ****                 buffer_txPreset[19+x]=bufferDisplay1.licenceSale[x+1];
 249              		.loc 1 375 0 discriminator 3
 250 00da 8BB2     		uxth	r3, r1
 251              	.LVL22:
 252              	.L15:
 375:.\RFPoll.c    ****                 buffer_txPreset[19+x]=bufferDisplay1.licenceSale[x+1];
 253              		.loc 1 375 0 is_stmt 0 discriminator 1
 254 00dc 072B     		cmp	r3, #7
 255 00de F0D9     		bls	.L18
 256              	.L17:
 257 00e0 1B23     		movs	r3, #27
 258              	.LVL23:
 259 00e2 04E0     		b	.L19
 260              	.LVL24:
 261              	.L20:
 378:.\RFPoll.c    ****             }
 379:.\RFPoll.c    ****         }
 380:.\RFPoll.c    ****         for(x=27; x<=37;x++){
 381:.\RFPoll.c    ****             buffer_txPreset[x]= 0x30;
 262              		.loc 1 381 0 is_stmt 1 discriminator 3
 263 00e4 3021     		movs	r1, #48
 264 00e6 764A     		ldr	r2, .L48+4
 265 00e8 D154     		strb	r1, [r2, r3]
 380:.\RFPoll.c    ****             buffer_txPreset[x]= 0x30;
 266              		.loc 1 380 0 discriminator 3
 267 00ea 0133     		adds	r3, r3, #1
 268              	.LVL25:
 269 00ec 9BB2     		uxth	r3, r3
 270              	.LVL26:
 271              	.L19:
 380:.\RFPoll.c    ****             buffer_txPreset[x]= 0x30;
 272              		.loc 1 380 0 is_stmt 0 discriminator 1
 273 00ee 252B     		cmp	r3, #37
 274 00f0 F8D9     		bls	.L20
 382:.\RFPoll.c    ****         }
 383:.\RFPoll.c    ****         buffer_txPreset[38] = verificar_check(buffer_txPreset,39);            
 275              		.loc 1 383 0 is_stmt 1
 276 00f2 734D     		ldr	r5, .L48+4
 277 00f4 2846     		mov	r0, r5
 278 00f6 2721     		movs	r1, #39
 279 00f8 FFF7FEFF 		bl	verificar_check
 280              	.LVL27:
 281 00fc 85F82600 		strb	r0, [r5, #38]
 282              	.LVL28:
 384:.\RFPoll.c    ****         for (x = 0; x < 39; x++){
 283              		.loc 1 384 0
 284 0100 05E0     		b	.L21
 285              	.LVL29:
 286              	.L22:
 385:.\RFPoll.c    ****             RF_Connection_PutChar(buffer_txPreset[x]);
ARM GAS  C:\Users\RECEPC~1\AppData\Local\Temp\ccIFDC7N.s 			page 13


 287              		.loc 1 385 0 discriminator 3
 288 0102 6F4B     		ldr	r3, .L48+4
 289 0104 185D     		ldrb	r0, [r3, r4]	@ zero_extendqisi2
 290 0106 FFF7FEFF 		bl	RF_Connection_PutChar
 291              	.LVL30:
 384:.\RFPoll.c    ****         for (x = 0; x < 39; x++){
 292              		.loc 1 384 0 discriminator 3
 293 010a 0134     		adds	r4, r4, #1
 294              	.LVL31:
 295 010c A4B2     		uxth	r4, r4
 296              	.LVL32:
 297              	.L21:
 384:.\RFPoll.c    ****         for (x = 0; x < 39; x++){
 298              		.loc 1 384 0 is_stmt 0 discriminator 1
 299 010e 262C     		cmp	r4, #38
 300 0110 F7D9     		bls	.L22
 386:.\RFPoll.c    ****         }            
 387:.\RFPoll.c    ****         side.a.rfState = RF_DELIVERING;
 301              		.loc 1 387 0 is_stmt 1
 302 0112 6A4B     		ldr	r3, .L48
 303 0114 0122     		movs	r2, #1
 304 0116 83F80321 		strb	r2, [r3, #259]
 388:.\RFPoll.c    ****         side.a.RFstateReport = 0;
 305              		.loc 1 388 0
 306 011a 0022     		movs	r2, #0
 307 011c 83F80721 		strb	r2, [r3, #263]
 308              	.LVL33:
 309              	.L8:
 389:.\RFPoll.c    ****     }      
 390:.\RFPoll.c    ****     ////////////// FIN VENTA ////////////////////////////////////
 391:.\RFPoll.c    ****     if(bufferDisplay1.flagEndSale == true && side.a.RFstateReport == 1){
 310              		.loc 1 391 0
 311 0120 694B     		ldr	r3, .L48+12
 312 0122 93F80331 		ldrb	r3, [r3, #259]	@ zero_extendqisi2
 313 0126 012B     		cmp	r3, #1
 314 0128 40F0B580 		bne	.L23
 315              		.loc 1 391 0 is_stmt 0 discriminator 1
 316 012c 634B     		ldr	r3, .L48
 317 012e 93F80731 		ldrb	r3, [r3, #263]	@ zero_extendqisi2
 318 0132 012B     		cmp	r3, #1
 319 0134 40F0AF80 		bne	.L23
 392:.\RFPoll.c    ****         buffer_txEOT[0] = 0xBC;
 320              		.loc 1 392 0 is_stmt 1
 321 0138 654B     		ldr	r3, .L48+20
 322 013a BC22     		movs	r2, #188
 323 013c 1A70     		strb	r2, [r3]
 393:.\RFPoll.c    ****         buffer_txEOT[1] = 0xCB;
 324              		.loc 1 393 0
 325 013e CB22     		movs	r2, #203
 326 0140 5A70     		strb	r2, [r3, #1]
 394:.\RFPoll.c    ****         buffer_txEOT[2] = 0xC8;
 327              		.loc 1 394 0
 328 0142 C822     		movs	r2, #200
 329 0144 9A70     		strb	r2, [r3, #2]
 395:.\RFPoll.c    ****         buffer_txEOT[3] = IDCast[0];
 330              		.loc 1 395 0
 331 0146 5F4A     		ldr	r2, .L48+8
ARM GAS  C:\Users\RECEPC~1\AppData\Local\Temp\ccIFDC7N.s 			page 14


 332 0148 1178     		ldrb	r1, [r2]	@ zero_extendqisi2
 333 014a D970     		strb	r1, [r3, #3]
 396:.\RFPoll.c    ****         buffer_txEOT[4] = IDCast[1];
 334              		.loc 1 396 0
 335 014c 5278     		ldrb	r2, [r2, #1]	@ zero_extendqisi2
 336 014e 1A71     		strb	r2, [r3, #4]
 397:.\RFPoll.c    ****         buffer_txEOT[5]  = side.a.dir;
 337              		.loc 1 397 0
 338 0150 5A4A     		ldr	r2, .L48
 339 0152 1178     		ldrb	r1, [r2]	@ zero_extendqisi2
 340 0154 5971     		strb	r1, [r3, #5]
 398:.\RFPoll.c    ****         buffer_txEOT[6]  = 0xA4;
 341              		.loc 1 398 0
 342 0156 A421     		movs	r1, #164
 343 0158 9971     		strb	r1, [r3, #6]
 399:.\RFPoll.c    ****         buffer_txEOT[7]  = RF_CASHSALEREPORT;
 344              		.loc 1 399 0
 345 015a 0221     		movs	r1, #2
 346 015c D971     		strb	r1, [r3, #7]
 400:.\RFPoll.c    ****         buffer_txEOT[8]  = side.a.activeHose;
 347              		.loc 1 400 0
 348 015e 92F80011 		ldrb	r1, [r2, #256]	@ zero_extendqisi2
 349 0162 1972     		strb	r1, [r3, #8]
 401:.\RFPoll.c    ****         for(x=side.a.ppuSale[0];x > 0 ;x--){						   							
 350              		.loc 1 401 0
 351 0164 92F8F100 		ldrb	r0, [r2, #241]	@ zero_extendqisi2
 352 0168 84B2     		uxth	r4, r0
 353              	.LVL34:
 354 016a 08E0     		b	.L24
 355              	.L25:
 402:.\RFPoll.c    ****     		tempPPU[side.a.ppuSale[0]-x]= side.a.ppuSale[x];
 356              		.loc 1 402 0 discriminator 3
 357 016c 021B     		subs	r2, r0, r4
 358 016e 534B     		ldr	r3, .L48
 359 0170 2344     		add	r3, r3, r4
 360 0172 93F8F110 		ldrb	r1, [r3, #241]	@ zero_extendqisi2
 361 0176 574B     		ldr	r3, .L48+24
 362 0178 9954     		strb	r1, [r3, r2]
 401:.\RFPoll.c    ****         for(x=side.a.ppuSale[0];x > 0 ;x--){						   							
 363              		.loc 1 401 0 discriminator 3
 364 017a 013C     		subs	r4, r4, #1
 365              	.LVL35:
 366 017c A4B2     		uxth	r4, r4
 367              	.LVL36:
 368              	.L24:
 401:.\RFPoll.c    ****         for(x=side.a.ppuSale[0];x > 0 ;x--){						   							
 369              		.loc 1 401 0 is_stmt 0 discriminator 1
 370 017e 002C     		cmp	r4, #0
 371 0180 F4D1     		bne	.L25
 372 0182 0923     		movs	r3, #9
 373 0184 0CE0     		b	.L26
 374              	.LVL37:
 375              	.L28:
 403:.\RFPoll.c    ****     	}
 404:.\RFPoll.c    ****         for(x = 9; x<=13; x++){
 405:.\RFPoll.c    ****             buffer_txEOT[x] = tempPPU[x-9]; 
 376              		.loc 1 405 0 is_stmt 1
ARM GAS  C:\Users\RECEPC~1\AppData\Local\Temp\ccIFDC7N.s 			page 15


 377 0186 A3F10902 		sub	r2, r3, #9
 378 018a 5249     		ldr	r1, .L48+24
 379 018c 8A5C     		ldrb	r2, [r1, r2]	@ zero_extendqisi2
 380 018e D2B2     		uxtb	r2, r2
 381 0190 4F49     		ldr	r1, .L48+20
 382 0192 CA54     		strb	r2, [r1, r3]
 406:.\RFPoll.c    ****             if(buffer_txEOT[x]== 0x00)
 383              		.loc 1 406 0
 384 0194 12B9     		cbnz	r2, .L27
 407:.\RFPoll.c    ****                 buffer_txEOT[x] = 0x30;
 385              		.loc 1 407 0
 386 0196 3021     		movs	r1, #48
 387 0198 4D4A     		ldr	r2, .L48+20
 388 019a D154     		strb	r1, [r2, r3]
 389              	.L27:
 404:.\RFPoll.c    ****             buffer_txEOT[x] = tempPPU[x-9]; 
 390              		.loc 1 404 0 discriminator 2
 391 019c 0133     		adds	r3, r3, #1
 392              	.LVL38:
 393 019e 9BB2     		uxth	r3, r3
 394              	.LVL39:
 395              	.L26:
 404:.\RFPoll.c    ****             buffer_txEOT[x] = tempPPU[x-9]; 
 396              		.loc 1 404 0 is_stmt 0 discriminator 1
 397 01a0 0D2B     		cmp	r3, #13
 398 01a2 F0D9     		bls	.L28
 408:.\RFPoll.c    ****         } 
 409:.\RFPoll.c    ****         if(digits ==5 || digits ==6){
 399              		.loc 1 409 0 is_stmt 1
 400 01a4 4C4B     		ldr	r3, .L48+28
 401              	.LVL40:
 402 01a6 1B78     		ldrb	r3, [r3]	@ zero_extendqisi2
 403 01a8 053B     		subs	r3, r3, #5
 404 01aa DBB2     		uxtb	r3, r3
 405 01ac 012B     		cmp	r3, #1
 406 01ae 0CD9     		bls	.L45
 407 01b0 0123     		movs	r3, #1
 408 01b2 1BE0     		b	.L30
 409              	.LVL41:
 410              	.L31:
 410:.\RFPoll.c    ****             for(x=1;x <= side.a.volumeSale[0];x++){						   							
 411:.\RFPoll.c    ****                 buffer_txEOT[x+13]=side.a.volumeSale[7-x];                
 411              		.loc 1 411 0 discriminator 3
 412 01b4 03F10D01 		add	r1, r3, #13
 413 01b8 484A     		ldr	r2, .L48+32
 414 01ba D21A     		subs	r2, r2, r3
 415 01bc 92F8E300 		ldrb	r0, [r2, #227]	@ zero_extendqisi2
 416 01c0 434A     		ldr	r2, .L48+20
 417 01c2 5054     		strb	r0, [r2, r1]
 410:.\RFPoll.c    ****             for(x=1;x <= side.a.volumeSale[0];x++){						   							
 418              		.loc 1 410 0 discriminator 3
 419 01c4 0133     		adds	r3, r3, #1
 420              	.LVL42:
 421 01c6 9BB2     		uxth	r3, r3
 422              	.LVL43:
 423 01c8 00E0     		b	.L29
 424              	.LVL44:
ARM GAS  C:\Users\RECEPC~1\AppData\Local\Temp\ccIFDC7N.s 			page 16


 425              	.L45:
 426 01ca 0123     		movs	r3, #1
 427              	.L29:
 428              	.LVL45:
 410:.\RFPoll.c    ****             for(x=1;x <= side.a.volumeSale[0];x++){						   							
 429              		.loc 1 410 0 is_stmt 0 discriminator 1
 430 01cc 3B4A     		ldr	r2, .L48
 431 01ce 92F8E320 		ldrb	r2, [r2, #227]	@ zero_extendqisi2
 432 01d2 9A42     		cmp	r2, r3
 433 01d4 EED2     		bcs	.L31
 434 01d6 0EE0     		b	.L32
 435              	.L33:
 412:.\RFPoll.c    ****         	}
 413:.\RFPoll.c    ****         }else{
 414:.\RFPoll.c    ****             for(x=1;x <= side.a.volumeSale[0];x++){						   							
 415:.\RFPoll.c    ****                 buffer_txEOT[x+13]=side.a.volumeSale[9-x];                
 436              		.loc 1 415 0 is_stmt 1 discriminator 3
 437 01d8 03F10D01 		add	r1, r3, #13
 438 01dc 404A     		ldr	r2, .L48+36
 439 01de D21A     		subs	r2, r2, r3
 440 01e0 92F8E300 		ldrb	r0, [r2, #227]	@ zero_extendqisi2
 441 01e4 3A4A     		ldr	r2, .L48+20
 442 01e6 5054     		strb	r0, [r2, r1]
 414:.\RFPoll.c    ****                 buffer_txEOT[x+13]=side.a.volumeSale[9-x];                
 443              		.loc 1 414 0 discriminator 3
 444 01e8 0133     		adds	r3, r3, #1
 445              	.LVL46:
 446 01ea 9BB2     		uxth	r3, r3
 447              	.LVL47:
 448              	.L30:
 414:.\RFPoll.c    ****                 buffer_txEOT[x+13]=side.a.volumeSale[9-x];                
 449              		.loc 1 414 0 is_stmt 0 discriminator 1
 450 01ec 334A     		ldr	r2, .L48
 451 01ee 92F8E320 		ldrb	r2, [r2, #227]	@ zero_extendqisi2
 452 01f2 9A42     		cmp	r2, r3
 453 01f4 F0D2     		bcs	.L33
 454              	.L32:
 416:.\RFPoll.c    ****         	}
 417:.\RFPoll.c    ****         }        
 418:.\RFPoll.c    ****         if(buffer_txEOT[20]==0x00){
 455              		.loc 1 418 0 is_stmt 1
 456 01f6 364B     		ldr	r3, .L48+20
 457              	.LVL48:
 458 01f8 1B7D     		ldrb	r3, [r3, #20]	@ zero_extendqisi2
 459 01fa 1BB9     		cbnz	r3, .L34
 419:.\RFPoll.c    ****             buffer_txEOT[20] = 0x30;
 460              		.loc 1 419 0
 461 01fc 344B     		ldr	r3, .L48+20
 462 01fe 3022     		movs	r2, #48
 463 0200 1A75     		strb	r2, [r3, #20]
 420:.\RFPoll.c    ****             buffer_txEOT[21] = 0x30;
 464              		.loc 1 420 0
 465 0202 5A75     		strb	r2, [r3, #21]
 466              	.L34:
 421:.\RFPoll.c    ****         }
 422:.\RFPoll.c    ****         if(digits ==5 || digits ==6){
 467              		.loc 1 422 0
ARM GAS  C:\Users\RECEPC~1\AppData\Local\Temp\ccIFDC7N.s 			page 17


 468 0204 344B     		ldr	r3, .L48+28
 469 0206 1B78     		ldrb	r3, [r3]	@ zero_extendqisi2
 470 0208 053B     		subs	r3, r3, #5
 471 020a DBB2     		uxtb	r3, r3
 472 020c 012B     		cmp	r3, #1
 473 020e 0CD9     		bls	.L46
 474 0210 0123     		movs	r3, #1
 475 0212 1BE0     		b	.L36
 476              	.LVL49:
 477              	.L37:
 423:.\RFPoll.c    ****             for(x=1;x <= side.a.moneySale[0];x++){						   							
 424:.\RFPoll.c    ****         		buffer_txEOT[x+21]=side.a.moneySale[7-x];                
 478              		.loc 1 424 0 discriminator 3
 479 0214 03F11501 		add	r1, r3, #21
 480 0218 304A     		ldr	r2, .L48+32
 481 021a D21A     		subs	r2, r2, r3
 482 021c 92F8D500 		ldrb	r0, [r2, #213]	@ zero_extendqisi2
 483 0220 2B4A     		ldr	r2, .L48+20
 484 0222 5054     		strb	r0, [r2, r1]
 423:.\RFPoll.c    ****             for(x=1;x <= side.a.moneySale[0];x++){						   							
 485              		.loc 1 423 0 discriminator 3
 486 0224 0133     		adds	r3, r3, #1
 487              	.LVL50:
 488 0226 9BB2     		uxth	r3, r3
 489              	.LVL51:
 490 0228 00E0     		b	.L35
 491              	.LVL52:
 492              	.L46:
 493 022a 0123     		movs	r3, #1
 494              	.L35:
 495              	.LVL53:
 423:.\RFPoll.c    ****             for(x=1;x <= side.a.moneySale[0];x++){						   							
 496              		.loc 1 423 0 is_stmt 0 discriminator 1
 497 022c 234A     		ldr	r2, .L48
 498 022e 92F8D520 		ldrb	r2, [r2, #213]	@ zero_extendqisi2
 499 0232 9A42     		cmp	r2, r3
 500 0234 EED2     		bcs	.L37
 501 0236 0EE0     		b	.L38
 502              	.L39:
 425:.\RFPoll.c    ****         	} 
 426:.\RFPoll.c    ****         }else{
 427:.\RFPoll.c    ****             for(x=1;x <= side.a.moneySale[0];x++){						   							
 428:.\RFPoll.c    ****         		buffer_txEOT[x+21]=side.a.moneySale[9-x];                
 503              		.loc 1 428 0 is_stmt 1 discriminator 3
 504 0238 03F11501 		add	r1, r3, #21
 505 023c 284A     		ldr	r2, .L48+36
 506 023e D21A     		subs	r2, r2, r3
 507 0240 92F8D500 		ldrb	r0, [r2, #213]	@ zero_extendqisi2
 508 0244 224A     		ldr	r2, .L48+20
 509 0246 5054     		strb	r0, [r2, r1]
 427:.\RFPoll.c    ****         		buffer_txEOT[x+21]=side.a.moneySale[9-x];                
 510              		.loc 1 427 0 discriminator 3
 511 0248 0133     		adds	r3, r3, #1
 512              	.LVL54:
 513 024a 9BB2     		uxth	r3, r3
 514              	.LVL55:
 515              	.L36:
ARM GAS  C:\Users\RECEPC~1\AppData\Local\Temp\ccIFDC7N.s 			page 18


 427:.\RFPoll.c    ****         		buffer_txEOT[x+21]=side.a.moneySale[9-x];                
 516              		.loc 1 427 0 is_stmt 0 discriminator 1
 517 024c 1B4A     		ldr	r2, .L48
 518 024e 92F8D520 		ldrb	r2, [r2, #213]	@ zero_extendqisi2
 519 0252 9A42     		cmp	r2, r3
 520 0254 F0D2     		bcs	.L39
 521              	.L38:
 429:.\RFPoll.c    ****         	}            
 430:.\RFPoll.c    ****         }
 431:.\RFPoll.c    ****         if(buffer_txEOT[28]==0x00){
 522              		.loc 1 431 0 is_stmt 1
 523 0256 1E4B     		ldr	r3, .L48+20
 524              	.LVL56:
 525 0258 1B7F     		ldrb	r3, [r3, #28]	@ zero_extendqisi2
 526 025a 1BB9     		cbnz	r3, .L40
 432:.\RFPoll.c    ****             buffer_txEOT[28] = 0x30;
 527              		.loc 1 432 0
 528 025c 1C4B     		ldr	r3, .L48+20
 529 025e 3022     		movs	r2, #48
 530 0260 1A77     		strb	r2, [r3, #28]
 433:.\RFPoll.c    ****             buffer_txEOT[29] = 0x30;
 531              		.loc 1 433 0
 532 0262 5A77     		strb	r2, [r3, #29]
 533              	.L40:
 434:.\RFPoll.c    ****         }
 435:.\RFPoll.c    ****         buffer_txEOT[30] = verificar_check(buffer_txEOT,31);                
 534              		.loc 1 435 0
 535 0264 1A4D     		ldr	r5, .L48+20
 536 0266 2846     		mov	r0, r5
 537 0268 1F21     		movs	r1, #31
 538 026a FFF7FEFF 		bl	verificar_check
 539              	.LVL57:
 540 026e A877     		strb	r0, [r5, #30]
 541              	.LVL58:
 436:.\RFPoll.c    ****         for (x = 0; x < 31; x++){
 542              		.loc 1 436 0
 543 0270 05E0     		b	.L41
 544              	.LVL59:
 545              	.L42:
 437:.\RFPoll.c    ****             RF_Connection_PutChar(buffer_txEOT[x]);
 546              		.loc 1 437 0 discriminator 3
 547 0272 174B     		ldr	r3, .L48+20
 548 0274 185D     		ldrb	r0, [r3, r4]	@ zero_extendqisi2
 549 0276 FFF7FEFF 		bl	RF_Connection_PutChar
 550              	.LVL60:
 436:.\RFPoll.c    ****         for (x = 0; x < 31; x++){
 551              		.loc 1 436 0 discriminator 3
 552 027a 0134     		adds	r4, r4, #1
 553              	.LVL61:
 554 027c A4B2     		uxth	r4, r4
 555              	.LVL62:
 556              	.L41:
 436:.\RFPoll.c    ****         for (x = 0; x < 31; x++){
 557              		.loc 1 436 0 is_stmt 0 discriminator 1
 558 027e 1E2C     		cmp	r4, #30
 559 0280 F7D9     		bls	.L42
 438:.\RFPoll.c    ****         }        
ARM GAS  C:\Users\RECEPC~1\AppData\Local\Temp\ccIFDC7N.s 			page 19


 439:.\RFPoll.c    ****         side.a.rfState = RF_IDLE;
 560              		.loc 1 439 0 is_stmt 1
 561 0282 0E4B     		ldr	r3, .L48
 562 0284 0822     		movs	r2, #8
 563 0286 83F80321 		strb	r2, [r3, #259]
 440:.\RFPoll.c    ****         bufferDisplay1.flagActiveSale = false;
 564              		.loc 1 440 0
 565 028a 0022     		movs	r2, #0
 566 028c 0E49     		ldr	r1, .L48+12
 567 028e 81F83521 		strb	r2, [r1, #309]
 441:.\RFPoll.c    ****         side.a.RFstateReport = 0;
 568              		.loc 1 441 0
 569 0292 83F80721 		strb	r2, [r3, #263]
 570              	.LVL63:
 571              	.L23:
 442:.\RFPoll.c    ****     }                                               
 443:.\RFPoll.c    ****     ////////////// TURNOS ////////////////////////////////////
 444:.\RFPoll.c    **** //    if(ShiftState ==1  && side.a.RFstateReport == 1){                                    
 445:.\RFPoll.c    **** //        buffer_txDisplay[5]  = side.a.dir;
 446:.\RFPoll.c    **** //        buffer_txDisplay[6]  = 0xE3;
 447:.\RFPoll.c    **** //        buffer_txDisplay[7]  = RF_WORKSHIFTREQ;
 448:.\RFPoll.c    **** //        for(x=1;x <= bufferDisplay1.shiftId[0] ;x++){						   							
 449:.\RFPoll.c    **** //    		buffer_txDisplay[x+7]= bufferDisplay1.shiftId[(bufferDisplay1.shiftId[0]+1)-x];            
 450:.\RFPoll.c    **** //    	}
 451:.\RFPoll.c    **** //        for(x=8; x<19; x++){
 452:.\RFPoll.c    **** //            if(buffer_txDisplay[x] ==0x00)
 453:.\RFPoll.c    **** //                buffer_txDisplay[x]=0x30;
 454:.\RFPoll.c    **** //        }
 455:.\RFPoll.c    **** //        for(x=1;x <= bufferDisplay1.shiftPassword[0] ;x++){						   							
 456:.\RFPoll.c    **** //    		buffer_txDisplay[x+18]= bufferDisplay1.shiftPassword[(bufferDisplay1.shiftPassword[0]+1)-x]
 457:.\RFPoll.c    **** //    	}
 458:.\RFPoll.c    **** //        for(x=19; x<31; x++){
 459:.\RFPoll.c    **** //            if(buffer_txDisplay[x] ==0x00)
 460:.\RFPoll.c    **** //                buffer_txDisplay[x]=0x30;
 461:.\RFPoll.c    **** //        }
 462:.\RFPoll.c    **** //        buffer_txDisplay[32] = verificar_check(buffer_txDisplay,33);
 463:.\RFPoll.c    **** //        for (x = 0; x < 33; x++){
 464:.\RFPoll.c    **** //            RF_Connection_PutChar(buffer_txDisplay[x]);
 465:.\RFPoll.c    **** //        }
 466:.\RFPoll.c    **** //        side.a.rfState = RF_WORKSHIFTREQ;
 467:.\RFPoll.c    **** //        side.a.RFstateReport = 0;
 468:.\RFPoll.c    **** //    }
 469:.\RFPoll.c    ****     ////////////// CAMBIO PPU ////////////////////////////////////
 470:.\RFPoll.c    ****     if(side.a.changePPU){
 572              		.loc 1 470 0
 573 0296 094B     		ldr	r3, .L48
 574 0298 93F80531 		ldrb	r3, [r3, #261]	@ zero_extendqisi2
 575 029c 6BB1     		cbz	r3, .L7
 471:.\RFPoll.c    ****         if(priceChange(side.a.dir,side.a.grade,side.a.ppuAuthorized[side.a.grade]))
 576              		.loc 1 471 0
 577 029e 074B     		ldr	r3, .L48
 578 02a0 93F80611 		ldrb	r1, [r3, #262]	@ zero_extendqisi2
 579 02a4 03EBC102 		add	r2, r3, r1, lsl #3
 580 02a8 1878     		ldrb	r0, [r3]	@ zero_extendqisi2
 581 02aa B532     		adds	r2, r2, #181
 582 02ac FFF7FEFF 		bl	priceChange
 583              	.LVL64:
ARM GAS  C:\Users\RECEPC~1\AppData\Local\Temp\ccIFDC7N.s 			page 20


 584 02b0 18B1     		cbz	r0, .L7
 472:.\RFPoll.c    ****             side.a.changePPU = false;          
 585              		.loc 1 472 0
 586 02b2 0022     		movs	r2, #0
 587 02b4 014B     		ldr	r3, .L48
 588 02b6 83F80521 		strb	r2, [r3, #261]
 589              	.L7:
 590 02ba 38BD     		pop	{r3, r4, r5, pc}
 591              	.L49:
 592              		.align	2
 593              	.L48:
 594 02bc 00000000 		.word	side
 595 02c0 00000000 		.word	buffer_txPreset
 596 02c4 00000000 		.word	IDCast
 597 02c8 00000000 		.word	bufferDisplay1
 598 02cc 00000000 		.word	tempPreset
 599 02d0 00000000 		.word	buffer_txEOT
 600 02d4 00000000 		.word	tempPPU
 601 02d8 00000000 		.word	digits
 602 02dc 07000000 		.word	side+7
 603 02e0 09000000 		.word	side+9
 604              		.cfi_endproc
 605              	.LFE65:
 606              		.size	pollingRFA_Tx, .-pollingRFA_Tx
 607              		.section	.text.pollingRFB_Tx,"ax",%progbits
 608              		.align	2
 609              		.global	pollingRFB_Tx
 610              		.thumb
 611              		.thumb_func
 612              		.type	pollingRFB_Tx, %function
 613              	pollingRFB_Tx:
 614              	.LFB66:
 473:.\RFPoll.c    ****     }    
 474:.\RFPoll.c    ****     ////////////// TOTALES ////////////////////////////////////
 475:.\RFPoll.c    ****          
 476:.\RFPoll.c    ****  }
 477:.\RFPoll.c    **** 
 478:.\RFPoll.c    **** void pollingRFB_Tx(){   
 615              		.loc 1 478 0
 616              		.cfi_startproc
 617              		@ args = 0, pretend = 0, frame = 0
 618              		@ frame_needed = 0, uses_anonymous_args = 0
 619 0000 38B5     		push	{r3, r4, r5, lr}
 620              		.cfi_def_cfa_offset 16
 621              		.cfi_offset 3, -16
 622              		.cfi_offset 4, -12
 623              		.cfi_offset 5, -8
 624              		.cfi_offset 14, -4
 479:.\RFPoll.c    ****     uint16 x;  
 480:.\RFPoll.c    ****     
 481:.\RFPoll.c    ****     /////////////// COPIA DE RECIBO //////////////////
 482:.\RFPoll.c    **** //    if(side.b.rfState == RF_COPY_RECEIPT && side.b.RFstateReport == 1){        
 483:.\RFPoll.c    **** //        buffer_txDisplay[5] = side.b.dir;
 484:.\RFPoll.c    **** //        buffer_txDisplay[6] = 0xE6;
 485:.\RFPoll.c    **** //        buffer_txDisplay[7] = RF_COPY_RECEIPT;
 486:.\RFPoll.c    **** //        buffer_txDisplay[8] = verificar_check(buffer_txDisplay,9);
 487:.\RFPoll.c    **** //        for (x = 0; x < 9; x++){
ARM GAS  C:\Users\RECEPC~1\AppData\Local\Temp\ccIFDC7N.s 			page 21


 488:.\RFPoll.c    **** //            RF_Connection_PutChar(buffer_txDisplay[x]);
 489:.\RFPoll.c    **** //        }
 490:.\RFPoll.c    **** //		side.b.RFstateReport = 0;
 491:.\RFPoll.c    **** //    }    
 492:.\RFPoll.c    ****     ////////////// PRESET - DISPENSANDO ////////////////////////////////////
 493:.\RFPoll.c    ****     if(side.b.pumpState == PUMP_BUSY && side.b.RFstateReport == 1){
 625              		.loc 1 493 0
 626 0002 B34B     		ldr	r3, .L91
 627 0004 93F80C32 		ldrb	r3, [r3, #524]	@ zero_extendqisi2
 628 0008 092B     		cmp	r3, #9
 629 000a 40F08A80 		bne	.L51
 630              		.loc 1 493 0 is_stmt 0 discriminator 1
 631 000e B04B     		ldr	r3, .L91
 632 0010 93F80F32 		ldrb	r3, [r3, #527]	@ zero_extendqisi2
 633 0014 012B     		cmp	r3, #1
 634 0016 40F08480 		bne	.L51
 494:.\RFPoll.c    ****             buffer_txPreset[0] = 0xBC;
 635              		.loc 1 494 0 is_stmt 1
 636 001a AE4B     		ldr	r3, .L91+4
 637 001c BC22     		movs	r2, #188
 638 001e 1A70     		strb	r2, [r3]
 495:.\RFPoll.c    ****             buffer_txPreset[1] = 0xCB;
 639              		.loc 1 495 0
 640 0020 CB22     		movs	r2, #203
 641 0022 5A70     		strb	r2, [r3, #1]
 496:.\RFPoll.c    ****             buffer_txPreset[2] = 0xC8;
 642              		.loc 1 496 0
 643 0024 C822     		movs	r2, #200
 644 0026 9A70     		strb	r2, [r3, #2]
 497:.\RFPoll.c    ****             buffer_txPreset[3] = IDCast[0];
 645              		.loc 1 497 0
 646 0028 AB4A     		ldr	r2, .L91+8
 647 002a 1178     		ldrb	r1, [r2]	@ zero_extendqisi2
 648 002c D970     		strb	r1, [r3, #3]
 498:.\RFPoll.c    ****             buffer_txPreset[4] = IDCast[1];
 649              		.loc 1 498 0
 650 002e 5278     		ldrb	r2, [r2, #1]	@ zero_extendqisi2
 651 0030 1A71     		strb	r2, [r3, #4]
 499:.\RFPoll.c    ****             buffer_txPreset[5]  = side.b.dir;
 652              		.loc 1 499 0
 653 0032 A74A     		ldr	r2, .L91
 654 0034 92F80811 		ldrb	r1, [r2, #264]	@ zero_extendqisi2
 655 0038 5971     		strb	r1, [r3, #5]
 500:.\RFPoll.c    ****             buffer_txPreset[6]  = 0xAA;
 656              		.loc 1 500 0
 657 003a AA21     		movs	r1, #170
 658 003c 9971     		strb	r1, [r3, #6]
 501:.\RFPoll.c    ****             buffer_txPreset[7]  = RF_DELIVERING;
 659              		.loc 1 501 0
 660 003e 0121     		movs	r1, #1
 661 0040 D971     		strb	r1, [r3, #7]
 502:.\RFPoll.c    ****             buffer_txPreset[8]  = side.b.activeHose;
 662              		.loc 1 502 0
 663 0042 92F80822 		ldrb	r2, [r2, #520]	@ zero_extendqisi2
 664 0046 1A72     		strb	r2, [r3, #8]
 503:.\RFPoll.c    ****             buffer_txPreset[9]  = bufferDisplay2.presetType[0]&0x03;
 665              		.loc 1 503 0
ARM GAS  C:\Users\RECEPC~1\AppData\Local\Temp\ccIFDC7N.s 			page 22


 666 0048 A449     		ldr	r1, .L91+12
 667 004a 91F86320 		ldrb	r2, [r1, #99]	@ zero_extendqisi2
 668 004e 02F00302 		and	r2, r2, #3
 669 0052 5A72     		strb	r2, [r3, #9]
 504:.\RFPoll.c    ****             for(x = bufferDisplay2.presetValue[0][0] ; x > 0; x--){
 670              		.loc 1 504 0
 671 0054 91F86500 		ldrb	r0, [r1, #101]	@ zero_extendqisi2
 672 0058 84B2     		uxth	r4, r0
 673              	.LVL65:
 674 005a 08E0     		b	.L52
 675              	.L53:
 505:.\RFPoll.c    ****                 tempPreset[bufferDisplay2.presetValue[0][0]-x] = (bufferDisplay2.presetValue[0][x])
 676              		.loc 1 505 0 discriminator 3
 677 005c 021B     		subs	r2, r0, r4
 678 005e 9F4B     		ldr	r3, .L91+12
 679 0060 2344     		add	r3, r3, r4
 680 0062 93F86510 		ldrb	r1, [r3, #101]	@ zero_extendqisi2
 681 0066 9E4B     		ldr	r3, .L91+16
 682 0068 9954     		strb	r1, [r3, r2]
 504:.\RFPoll.c    ****             for(x = bufferDisplay2.presetValue[0][0] ; x > 0; x--){
 683              		.loc 1 504 0 discriminator 3
 684 006a 013C     		subs	r4, r4, #1
 685              	.LVL66:
 686 006c A4B2     		uxth	r4, r4
 687              	.LVL67:
 688              	.L52:
 504:.\RFPoll.c    ****             for(x = bufferDisplay2.presetValue[0][0] ; x > 0; x--){
 689              		.loc 1 504 0 is_stmt 0 discriminator 1
 690 006e 002C     		cmp	r4, #0
 691 0070 F4D1     		bne	.L53
 692 0072 0A23     		movs	r3, #10
 693 0074 0CE0     		b	.L54
 694              	.LVL68:
 695              	.L56:
 506:.\RFPoll.c    ****             }
 507:.\RFPoll.c    ****             for(x = 10; x<=17; x++){
 508:.\RFPoll.c    ****                 buffer_txPreset[x] = tempPreset[x-10]; 
 696              		.loc 1 508 0 is_stmt 1
 697 0076 A3F10A02 		sub	r2, r3, #10
 698 007a 9949     		ldr	r1, .L91+16
 699 007c 8A5C     		ldrb	r2, [r1, r2]	@ zero_extendqisi2
 700 007e D2B2     		uxtb	r2, r2
 701 0080 9449     		ldr	r1, .L91+4
 702 0082 CA54     		strb	r2, [r1, r3]
 509:.\RFPoll.c    ****                 if(buffer_txPreset[x]== 0x00)
 703              		.loc 1 509 0
 704 0084 12B9     		cbnz	r2, .L55
 510:.\RFPoll.c    ****                     buffer_txPreset[x] = 0x30;
 705              		.loc 1 510 0
 706 0086 3021     		movs	r1, #48
 707 0088 924A     		ldr	r2, .L91+4
 708 008a D154     		strb	r1, [r2, r3]
 709              	.L55:
 507:.\RFPoll.c    ****                 buffer_txPreset[x] = tempPreset[x-10]; 
 710              		.loc 1 507 0 discriminator 2
 711 008c 0133     		adds	r3, r3, #1
 712              	.LVL69:
ARM GAS  C:\Users\RECEPC~1\AppData\Local\Temp\ccIFDC7N.s 			page 23


 713 008e 9BB2     		uxth	r3, r3
 714              	.LVL70:
 715              	.L54:
 507:.\RFPoll.c    ****                 buffer_txPreset[x] = tempPreset[x-10]; 
 716              		.loc 1 507 0 is_stmt 0 discriminator 1
 717 0090 112B     		cmp	r3, #17
 718 0092 F0D9     		bls	.L56
 511:.\RFPoll.c    ****             }        
 512:.\RFPoll.c    ****             buffer_txPreset[18]  = 0x00;
 719              		.loc 1 512 0 is_stmt 1
 720 0094 0022     		movs	r2, #0
 721 0096 8F4B     		ldr	r3, .L91+4
 722              	.LVL71:
 723 0098 9A74     		strb	r2, [r3, #18]
 513:.\RFPoll.c    ****             if(bufferDisplay2.flagPrint == 0){
 724              		.loc 1 513 0
 725 009a 904B     		ldr	r3, .L91+12
 726 009c 93F83431 		ldrb	r3, [r3, #308]	@ zero_extendqisi2
 727 00a0 63B1     		cbz	r3, .L87
 728 00a2 2346     		mov	r3, r4
 729 00a4 1BE0     		b	.L58
 730              	.LVL72:
 731              	.L59:
 514:.\RFPoll.c    ****                 for(x = 0; x <8 ; x++){
 515:.\RFPoll.c    ****                     buffer_txPreset[19+x]=0x20;
 732              		.loc 1 515 0 discriminator 3
 733 00a6 03F11302 		add	r2, r3, #19
 734 00aa 2020     		movs	r0, #32
 735 00ac 8949     		ldr	r1, .L91+4
 736 00ae 8854     		strb	r0, [r1, r2]
 516:.\RFPoll.c    ****                     tempPreset[x] = 0x00;
 737              		.loc 1 516 0 discriminator 3
 738 00b0 0021     		movs	r1, #0
 739 00b2 8B4A     		ldr	r2, .L91+16
 740 00b4 D154     		strb	r1, [r2, r3]
 514:.\RFPoll.c    ****                 for(x = 0; x <8 ; x++){
 741              		.loc 1 514 0 discriminator 3
 742 00b6 0133     		adds	r3, r3, #1
 743              	.LVL73:
 744 00b8 9BB2     		uxth	r3, r3
 745              	.LVL74:
 746 00ba 00E0     		b	.L57
 747              	.LVL75:
 748              	.L87:
 749 00bc 2346     		mov	r3, r4
 750              	.L57:
 751              	.LVL76:
 514:.\RFPoll.c    ****                 for(x = 0; x <8 ; x++){
 752              		.loc 1 514 0 is_stmt 0 discriminator 1
 753 00be 072B     		cmp	r3, #7
 754 00c0 F1D9     		bls	.L59
 755 00c2 0EE0     		b	.L60
 756              	.L61:
 517:.\RFPoll.c    ****                 }
 518:.\RFPoll.c    ****             }else{
 519:.\RFPoll.c    ****                 for(x = 0; x <8 ; x++){
 520:.\RFPoll.c    ****                     buffer_txPreset[19+x]=bufferDisplay2.licenceSale[x+1];
ARM GAS  C:\Users\RECEPC~1\AppData\Local\Temp\ccIFDC7N.s 			page 24


 757              		.loc 1 520 0 is_stmt 1 discriminator 3
 758 00c4 03F11300 		add	r0, r3, #19
 759 00c8 591C     		adds	r1, r3, #1
 760 00ca 844A     		ldr	r2, .L91+12
 761 00cc 0A44     		add	r2, r2, r1
 762 00ce 92F8DF50 		ldrb	r5, [r2, #223]	@ zero_extendqisi2
 763 00d2 804A     		ldr	r2, .L91+4
 764 00d4 1554     		strb	r5, [r2, r0]
 521:.\RFPoll.c    ****                     tempPreset[x] = 0x00;
 765              		.loc 1 521 0 discriminator 3
 766 00d6 0020     		movs	r0, #0
 767 00d8 814A     		ldr	r2, .L91+16
 768 00da D054     		strb	r0, [r2, r3]
 519:.\RFPoll.c    ****                     buffer_txPreset[19+x]=bufferDisplay2.licenceSale[x+1];
 769              		.loc 1 519 0 discriminator 3
 770 00dc 8BB2     		uxth	r3, r1
 771              	.LVL77:
 772              	.L58:
 519:.\RFPoll.c    ****                     buffer_txPreset[19+x]=bufferDisplay2.licenceSale[x+1];
 773              		.loc 1 519 0 is_stmt 0 discriminator 1
 774 00de 072B     		cmp	r3, #7
 775 00e0 F0D9     		bls	.L61
 776              	.L60:
 777 00e2 1B23     		movs	r3, #27
 778              	.LVL78:
 779 00e4 04E0     		b	.L62
 780              	.LVL79:
 781              	.L63:
 522:.\RFPoll.c    ****                 }
 523:.\RFPoll.c    ****             }
 524:.\RFPoll.c    ****             for(x=27; x<=37;x++){
 525:.\RFPoll.c    ****                 buffer_txPreset[x]= 0x30;
 782              		.loc 1 525 0 is_stmt 1 discriminator 3
 783 00e6 3021     		movs	r1, #48
 784 00e8 7A4A     		ldr	r2, .L91+4
 785 00ea D154     		strb	r1, [r2, r3]
 524:.\RFPoll.c    ****                 buffer_txPreset[x]= 0x30;
 786              		.loc 1 524 0 discriminator 3
 787 00ec 0133     		adds	r3, r3, #1
 788              	.LVL80:
 789 00ee 9BB2     		uxth	r3, r3
 790              	.LVL81:
 791              	.L62:
 524:.\RFPoll.c    ****                 buffer_txPreset[x]= 0x30;
 792              		.loc 1 524 0 is_stmt 0 discriminator 1
 793 00f0 252B     		cmp	r3, #37
 794 00f2 F8D9     		bls	.L63
 526:.\RFPoll.c    ****             }
 527:.\RFPoll.c    ****             buffer_txPreset[38] = verificar_check(buffer_txPreset,39);            
 795              		.loc 1 527 0 is_stmt 1
 796 00f4 774D     		ldr	r5, .L91+4
 797 00f6 2846     		mov	r0, r5
 798 00f8 2721     		movs	r1, #39
 799 00fa FFF7FEFF 		bl	verificar_check
 800              	.LVL82:
 801 00fe 85F82600 		strb	r0, [r5, #38]
 802              	.LVL83:
ARM GAS  C:\Users\RECEPC~1\AppData\Local\Temp\ccIFDC7N.s 			page 25


 528:.\RFPoll.c    ****             for (x = 0; x < 40; x++){
 803              		.loc 1 528 0
 804 0102 05E0     		b	.L64
 805              	.LVL84:
 806              	.L65:
 529:.\RFPoll.c    ****                 RF_Connection_PutChar(buffer_txPreset[x]);
 807              		.loc 1 529 0 discriminator 3
 808 0104 734B     		ldr	r3, .L91+4
 809 0106 185D     		ldrb	r0, [r3, r4]	@ zero_extendqisi2
 810 0108 FFF7FEFF 		bl	RF_Connection_PutChar
 811              	.LVL85:
 528:.\RFPoll.c    ****             for (x = 0; x < 40; x++){
 812              		.loc 1 528 0 discriminator 3
 813 010c 0134     		adds	r4, r4, #1
 814              	.LVL86:
 815 010e A4B2     		uxth	r4, r4
 816              	.LVL87:
 817              	.L64:
 528:.\RFPoll.c    ****             for (x = 0; x < 40; x++){
 818              		.loc 1 528 0 is_stmt 0 discriminator 1
 819 0110 272C     		cmp	r4, #39
 820 0112 F7D9     		bls	.L65
 530:.\RFPoll.c    ****             }            
 531:.\RFPoll.c    ****             side.b.rfState = RF_DELIVERING;
 821              		.loc 1 531 0 is_stmt 1
 822 0114 6E4B     		ldr	r3, .L91
 823 0116 0122     		movs	r2, #1
 824 0118 83F80B22 		strb	r2, [r3, #523]
 532:.\RFPoll.c    ****             side.b.RFstateReport = 0;
 825              		.loc 1 532 0
 826 011c 0022     		movs	r2, #0
 827 011e 83F80F22 		strb	r2, [r3, #527]
 828              	.LVL88:
 829              	.L51:
 533:.\RFPoll.c    ****     }      
 534:.\RFPoll.c    ****     ////////////// FIN VENTA ////////////////////////////////////
 535:.\RFPoll.c    ****     if(bufferDisplay2.flagEndSale == true && side.b.RFstateReport == 1){
 830              		.loc 1 535 0
 831 0122 6E4B     		ldr	r3, .L91+12
 832 0124 93F80331 		ldrb	r3, [r3, #259]	@ zero_extendqisi2
 833 0128 012B     		cmp	r3, #1
 834 012a 40F0BC80 		bne	.L66
 835              		.loc 1 535 0 is_stmt 0 discriminator 1
 836 012e 684B     		ldr	r3, .L91
 837 0130 93F80F32 		ldrb	r3, [r3, #527]	@ zero_extendqisi2
 838 0134 012B     		cmp	r3, #1
 839 0136 40F0B680 		bne	.L66
 536:.\RFPoll.c    ****         buffer_txEOT[0] = 0xBC;
 840              		.loc 1 536 0 is_stmt 1
 841 013a 6A4B     		ldr	r3, .L91+20
 842 013c BC22     		movs	r2, #188
 843 013e 1A70     		strb	r2, [r3]
 537:.\RFPoll.c    ****         buffer_txEOT[1] = 0xCB;
 844              		.loc 1 537 0
 845 0140 CB22     		movs	r2, #203
 846 0142 5A70     		strb	r2, [r3, #1]
 538:.\RFPoll.c    ****         buffer_txEOT[2] = 0xC8;
ARM GAS  C:\Users\RECEPC~1\AppData\Local\Temp\ccIFDC7N.s 			page 26


 847              		.loc 1 538 0
 848 0144 C822     		movs	r2, #200
 849 0146 9A70     		strb	r2, [r3, #2]
 539:.\RFPoll.c    ****         buffer_txEOT[3] = IDCast[0];
 850              		.loc 1 539 0
 851 0148 634A     		ldr	r2, .L91+8
 852 014a 1178     		ldrb	r1, [r2]	@ zero_extendqisi2
 853 014c D970     		strb	r1, [r3, #3]
 540:.\RFPoll.c    ****         buffer_txEOT[4] = IDCast[1];
 854              		.loc 1 540 0
 855 014e 5278     		ldrb	r2, [r2, #1]	@ zero_extendqisi2
 856 0150 1A71     		strb	r2, [r3, #4]
 541:.\RFPoll.c    ****         buffer_txEOT[5]  = side.b.dir;
 857              		.loc 1 541 0
 858 0152 5F4A     		ldr	r2, .L91
 859 0154 92F80811 		ldrb	r1, [r2, #264]	@ zero_extendqisi2
 860 0158 5971     		strb	r1, [r3, #5]
 542:.\RFPoll.c    ****         buffer_txEOT[6]  = 0xA4;
 861              		.loc 1 542 0
 862 015a A421     		movs	r1, #164
 863 015c 9971     		strb	r1, [r3, #6]
 543:.\RFPoll.c    ****         buffer_txEOT[7]  = RF_CASHSALEREPORT;
 864              		.loc 1 543 0
 865 015e 0221     		movs	r1, #2
 866 0160 D971     		strb	r1, [r3, #7]
 544:.\RFPoll.c    ****         buffer_txEOT[8]  = side.b.activeHose;
 867              		.loc 1 544 0
 868 0162 92F80812 		ldrb	r1, [r2, #520]	@ zero_extendqisi2
 869 0166 1972     		strb	r1, [r3, #8]
 545:.\RFPoll.c    ****         for(x=side.b.ppuSale[0];x > 0 ;x--){						   							
 870              		.loc 1 545 0
 871 0168 92F8F901 		ldrb	r0, [r2, #505]	@ zero_extendqisi2
 872 016c 84B2     		uxth	r4, r0
 873              	.LVL89:
 874 016e 08E0     		b	.L67
 875              	.L68:
 546:.\RFPoll.c    ****     		tempPPU[side.b.ppuSale[0]-x]= side.b.ppuSale[x];
 876              		.loc 1 546 0 discriminator 3
 877 0170 021B     		subs	r2, r0, r4
 878 0172 574B     		ldr	r3, .L91
 879 0174 2344     		add	r3, r3, r4
 880 0176 93F8F911 		ldrb	r1, [r3, #505]	@ zero_extendqisi2
 881 017a 5B4B     		ldr	r3, .L91+24
 882 017c 9954     		strb	r1, [r3, r2]
 545:.\RFPoll.c    ****         for(x=side.b.ppuSale[0];x > 0 ;x--){						   							
 883              		.loc 1 545 0 discriminator 3
 884 017e 013C     		subs	r4, r4, #1
 885              	.LVL90:
 886 0180 A4B2     		uxth	r4, r4
 887              	.LVL91:
 888              	.L67:
 545:.\RFPoll.c    ****         for(x=side.b.ppuSale[0];x > 0 ;x--){						   							
 889              		.loc 1 545 0 is_stmt 0 discriminator 1
 890 0182 002C     		cmp	r4, #0
 891 0184 F4D1     		bne	.L68
 892 0186 0923     		movs	r3, #9
 893 0188 0CE0     		b	.L69
ARM GAS  C:\Users\RECEPC~1\AppData\Local\Temp\ccIFDC7N.s 			page 27


 894              	.LVL92:
 895              	.L71:
 547:.\RFPoll.c    ****     	}
 548:.\RFPoll.c    ****         for(x = 9; x<=13; x++){
 549:.\RFPoll.c    ****             buffer_txEOT[x] = tempPPU[x-9]; 
 896              		.loc 1 549 0 is_stmt 1
 897 018a A3F10902 		sub	r2, r3, #9
 898 018e 5649     		ldr	r1, .L91+24
 899 0190 8A5C     		ldrb	r2, [r1, r2]	@ zero_extendqisi2
 900 0192 D2B2     		uxtb	r2, r2
 901 0194 5349     		ldr	r1, .L91+20
 902 0196 CA54     		strb	r2, [r1, r3]
 550:.\RFPoll.c    ****             if(buffer_txEOT[x]== 0x00)
 903              		.loc 1 550 0
 904 0198 12B9     		cbnz	r2, .L70
 551:.\RFPoll.c    ****                 buffer_txEOT[x] = 0x30;
 905              		.loc 1 551 0
 906 019a 3021     		movs	r1, #48
 907 019c 514A     		ldr	r2, .L91+20
 908 019e D154     		strb	r1, [r2, r3]
 909              	.L70:
 548:.\RFPoll.c    ****             buffer_txEOT[x] = tempPPU[x-9]; 
 910              		.loc 1 548 0 discriminator 2
 911 01a0 0133     		adds	r3, r3, #1
 912              	.LVL93:
 913 01a2 9BB2     		uxth	r3, r3
 914              	.LVL94:
 915              	.L69:
 548:.\RFPoll.c    ****             buffer_txEOT[x] = tempPPU[x-9]; 
 916              		.loc 1 548 0 is_stmt 0 discriminator 1
 917 01a4 0D2B     		cmp	r3, #13
 918 01a6 F0D9     		bls	.L71
 552:.\RFPoll.c    ****         } 
 553:.\RFPoll.c    ****         if(digits ==5 || digits ==6){
 919              		.loc 1 553 0 is_stmt 1
 920 01a8 504B     		ldr	r3, .L91+28
 921              	.LVL95:
 922 01aa 1B78     		ldrb	r3, [r3]	@ zero_extendqisi2
 923 01ac 053B     		subs	r3, r3, #5
 924 01ae DBB2     		uxtb	r3, r3
 925 01b0 012B     		cmp	r3, #1
 926 01b2 0CD9     		bls	.L88
 927 01b4 0123     		movs	r3, #1
 928 01b6 1BE0     		b	.L73
 929              	.LVL96:
 930              	.L74:
 554:.\RFPoll.c    ****             for(x=1;x <= side.b.volumeSale[0];x++){						   							
 555:.\RFPoll.c    ****                 buffer_txEOT[x+13]=side.b.volumeSale[7-x];                
 931              		.loc 1 555 0 discriminator 3
 932 01b8 03F10D01 		add	r1, r3, #13
 933 01bc 4C4A     		ldr	r2, .L91+32
 934 01be D21A     		subs	r2, r2, r3
 935 01c0 92F8EB01 		ldrb	r0, [r2, #491]	@ zero_extendqisi2
 936 01c4 474A     		ldr	r2, .L91+20
 937 01c6 5054     		strb	r0, [r2, r1]
 554:.\RFPoll.c    ****             for(x=1;x <= side.b.volumeSale[0];x++){						   							
 938              		.loc 1 554 0 discriminator 3
ARM GAS  C:\Users\RECEPC~1\AppData\Local\Temp\ccIFDC7N.s 			page 28


 939 01c8 0133     		adds	r3, r3, #1
 940              	.LVL97:
 941 01ca 9BB2     		uxth	r3, r3
 942              	.LVL98:
 943 01cc 00E0     		b	.L72
 944              	.LVL99:
 945              	.L88:
 946 01ce 0123     		movs	r3, #1
 947              	.L72:
 948              	.LVL100:
 554:.\RFPoll.c    ****             for(x=1;x <= side.b.volumeSale[0];x++){						   							
 949              		.loc 1 554 0 is_stmt 0 discriminator 1
 950 01d0 3F4A     		ldr	r2, .L91
 951 01d2 92F8EB21 		ldrb	r2, [r2, #491]	@ zero_extendqisi2
 952 01d6 9A42     		cmp	r2, r3
 953 01d8 EED2     		bcs	.L74
 954 01da 0EE0     		b	.L75
 955              	.L76:
 556:.\RFPoll.c    ****         	}
 557:.\RFPoll.c    ****         }else{
 558:.\RFPoll.c    ****             for(x=1;x <= side.b.volumeSale[0];x++){						   							
 559:.\RFPoll.c    ****                 buffer_txEOT[x+13]=side.b.volumeSale[9-x];                
 956              		.loc 1 559 0 is_stmt 1 discriminator 3
 957 01dc 03F10D01 		add	r1, r3, #13
 958 01e0 444A     		ldr	r2, .L91+36
 959 01e2 D21A     		subs	r2, r2, r3
 960 01e4 92F8EB01 		ldrb	r0, [r2, #491]	@ zero_extendqisi2
 961 01e8 3E4A     		ldr	r2, .L91+20
 962 01ea 5054     		strb	r0, [r2, r1]
 558:.\RFPoll.c    ****                 buffer_txEOT[x+13]=side.b.volumeSale[9-x];                
 963              		.loc 1 558 0 discriminator 3
 964 01ec 0133     		adds	r3, r3, #1
 965              	.LVL101:
 966 01ee 9BB2     		uxth	r3, r3
 967              	.LVL102:
 968              	.L73:
 558:.\RFPoll.c    ****                 buffer_txEOT[x+13]=side.b.volumeSale[9-x];                
 969              		.loc 1 558 0 is_stmt 0 discriminator 1
 970 01f0 374A     		ldr	r2, .L91
 971 01f2 92F8EB21 		ldrb	r2, [r2, #491]	@ zero_extendqisi2
 972 01f6 9A42     		cmp	r2, r3
 973 01f8 F0D2     		bcs	.L76
 974              	.L75:
 560:.\RFPoll.c    ****         	}
 561:.\RFPoll.c    ****         }        
 562:.\RFPoll.c    ****         if(buffer_txEOT[20]==0x00){
 975              		.loc 1 562 0 is_stmt 1
 976 01fa 3A4B     		ldr	r3, .L91+20
 977              	.LVL103:
 978 01fc 1B7D     		ldrb	r3, [r3, #20]	@ zero_extendqisi2
 979 01fe 1BB9     		cbnz	r3, .L77
 563:.\RFPoll.c    ****             buffer_txEOT[20] = 0x30;
 980              		.loc 1 563 0
 981 0200 384B     		ldr	r3, .L91+20
 982 0202 3022     		movs	r2, #48
 983 0204 1A75     		strb	r2, [r3, #20]
 564:.\RFPoll.c    ****             buffer_txEOT[21] = 0x30;
ARM GAS  C:\Users\RECEPC~1\AppData\Local\Temp\ccIFDC7N.s 			page 29


 984              		.loc 1 564 0
 985 0206 5A75     		strb	r2, [r3, #21]
 986              	.L77:
 565:.\RFPoll.c    ****         }
 566:.\RFPoll.c    ****         if(digits ==5 || digits ==6){
 987              		.loc 1 566 0
 988 0208 384B     		ldr	r3, .L91+28
 989 020a 1B78     		ldrb	r3, [r3]	@ zero_extendqisi2
 990 020c 053B     		subs	r3, r3, #5
 991 020e DBB2     		uxtb	r3, r3
 992 0210 012B     		cmp	r3, #1
 993 0212 0CD9     		bls	.L89
 994 0214 0123     		movs	r3, #1
 995 0216 1BE0     		b	.L79
 996              	.LVL104:
 997              	.L80:
 567:.\RFPoll.c    ****             for(x=1;x <= side.b.moneySale[0];x++){						   							
 568:.\RFPoll.c    ****         		buffer_txEOT[x+21]=side.b.moneySale[7-x];                
 998              		.loc 1 568 0 discriminator 3
 999 0218 03F11501 		add	r1, r3, #21
 1000 021c 344A     		ldr	r2, .L91+32
 1001 021e D21A     		subs	r2, r2, r3
 1002 0220 92F8DD01 		ldrb	r0, [r2, #477]	@ zero_extendqisi2
 1003 0224 2F4A     		ldr	r2, .L91+20
 1004 0226 5054     		strb	r0, [r2, r1]
 567:.\RFPoll.c    ****             for(x=1;x <= side.b.moneySale[0];x++){						   							
 1005              		.loc 1 567 0 discriminator 3
 1006 0228 0133     		adds	r3, r3, #1
 1007              	.LVL105:
 1008 022a 9BB2     		uxth	r3, r3
 1009              	.LVL106:
 1010 022c 00E0     		b	.L78
 1011              	.LVL107:
 1012              	.L89:
 1013 022e 0123     		movs	r3, #1
 1014              	.L78:
 1015              	.LVL108:
 567:.\RFPoll.c    ****             for(x=1;x <= side.b.moneySale[0];x++){						   							
 1016              		.loc 1 567 0 is_stmt 0 discriminator 1
 1017 0230 274A     		ldr	r2, .L91
 1018 0232 92F8DD21 		ldrb	r2, [r2, #477]	@ zero_extendqisi2
 1019 0236 9A42     		cmp	r2, r3
 1020 0238 EED2     		bcs	.L80
 1021 023a 0EE0     		b	.L81
 1022              	.L82:
 569:.\RFPoll.c    ****         	} 
 570:.\RFPoll.c    ****         }else{
 571:.\RFPoll.c    ****             for(x=1;x <= side.b.moneySale[0];x++){						   							
 572:.\RFPoll.c    ****         		buffer_txEOT[x+21]=side.b.moneySale[9-x];                
 1023              		.loc 1 572 0 is_stmt 1 discriminator 3
 1024 023c 03F11501 		add	r1, r3, #21
 1025 0240 2C4A     		ldr	r2, .L91+36
 1026 0242 D21A     		subs	r2, r2, r3
 1027 0244 92F8DD01 		ldrb	r0, [r2, #477]	@ zero_extendqisi2
 1028 0248 264A     		ldr	r2, .L91+20
 1029 024a 5054     		strb	r0, [r2, r1]
 571:.\RFPoll.c    ****         		buffer_txEOT[x+21]=side.b.moneySale[9-x];                
ARM GAS  C:\Users\RECEPC~1\AppData\Local\Temp\ccIFDC7N.s 			page 30


 1030              		.loc 1 571 0 discriminator 3
 1031 024c 0133     		adds	r3, r3, #1
 1032              	.LVL109:
 1033 024e 9BB2     		uxth	r3, r3
 1034              	.LVL110:
 1035              	.L79:
 571:.\RFPoll.c    ****         		buffer_txEOT[x+21]=side.b.moneySale[9-x];                
 1036              		.loc 1 571 0 is_stmt 0 discriminator 1
 1037 0250 1F4A     		ldr	r2, .L91
 1038 0252 92F8DD21 		ldrb	r2, [r2, #477]	@ zero_extendqisi2
 1039 0256 9A42     		cmp	r2, r3
 1040 0258 F0D2     		bcs	.L82
 1041              	.L81:
 573:.\RFPoll.c    ****         	}            
 574:.\RFPoll.c    ****         }
 575:.\RFPoll.c    ****         if(buffer_txEOT[28]==0x00){
 1042              		.loc 1 575 0 is_stmt 1
 1043 025a 224B     		ldr	r3, .L91+20
 1044              	.LVL111:
 1045 025c 1B7F     		ldrb	r3, [r3, #28]	@ zero_extendqisi2
 1046 025e 1BB9     		cbnz	r3, .L83
 576:.\RFPoll.c    ****             buffer_txEOT[28] = 0x30;
 1047              		.loc 1 576 0
 1048 0260 204B     		ldr	r3, .L91+20
 1049 0262 3022     		movs	r2, #48
 1050 0264 1A77     		strb	r2, [r3, #28]
 577:.\RFPoll.c    ****             buffer_txEOT[29] = 0x30;
 1051              		.loc 1 577 0
 1052 0266 5A77     		strb	r2, [r3, #29]
 1053              	.L83:
 578:.\RFPoll.c    ****         }
 579:.\RFPoll.c    ****         buffer_txEOT[30] = verificar_check(buffer_txEOT,31);
 1054              		.loc 1 579 0
 1055 0268 1E4D     		ldr	r5, .L91+20
 1056 026a 2846     		mov	r0, r5
 1057 026c 1F21     		movs	r1, #31
 1058 026e FFF7FEFF 		bl	verificar_check
 1059              	.LVL112:
 1060 0272 A877     		strb	r0, [r5, #30]
 580:.\RFPoll.c    ****         CyDelay(10);
 1061              		.loc 1 580 0
 1062 0274 0A20     		movs	r0, #10
 1063 0276 FFF7FEFF 		bl	CyDelay
 1064              	.LVL113:
 581:.\RFPoll.c    ****         for (x = 0; x < 31; x++){
 1065              		.loc 1 581 0
 1066 027a 05E0     		b	.L84
 1067              	.LVL114:
 1068              	.L85:
 582:.\RFPoll.c    ****             RF_Connection_PutChar(buffer_txEOT[x]);
 1069              		.loc 1 582 0 discriminator 3
 1070 027c 194B     		ldr	r3, .L91+20
 1071 027e 185D     		ldrb	r0, [r3, r4]	@ zero_extendqisi2
 1072 0280 FFF7FEFF 		bl	RF_Connection_PutChar
 1073              	.LVL115:
 581:.\RFPoll.c    ****         for (x = 0; x < 31; x++){
 1074              		.loc 1 581 0 discriminator 3
ARM GAS  C:\Users\RECEPC~1\AppData\Local\Temp\ccIFDC7N.s 			page 31


 1075 0284 0134     		adds	r4, r4, #1
 1076              	.LVL116:
 1077 0286 A4B2     		uxth	r4, r4
 1078              	.LVL117:
 1079              	.L84:
 581:.\RFPoll.c    ****         for (x = 0; x < 31; x++){
 1080              		.loc 1 581 0 is_stmt 0 discriminator 1
 1081 0288 1E2C     		cmp	r4, #30
 1082 028a F7D9     		bls	.L85
 583:.\RFPoll.c    ****         }
 584:.\RFPoll.c    ****         CyDelay(10);
 1083              		.loc 1 584 0 is_stmt 1
 1084 028c 0A20     		movs	r0, #10
 1085 028e FFF7FEFF 		bl	CyDelay
 1086              	.LVL118:
 585:.\RFPoll.c    ****         side.b.rfState = RF_IDLE;
 1087              		.loc 1 585 0
 1088 0292 0F4B     		ldr	r3, .L91
 1089 0294 0822     		movs	r2, #8
 1090 0296 83F80B22 		strb	r2, [r3, #523]
 586:.\RFPoll.c    ****         bufferDisplay2.flagActiveSale = false;
 1091              		.loc 1 586 0
 1092 029a 0022     		movs	r2, #0
 1093 029c 0F49     		ldr	r1, .L91+12
 1094 029e 81F83521 		strb	r2, [r1, #309]
 587:.\RFPoll.c    ****         side.b.RFstateReport = 0;
 1095              		.loc 1 587 0
 1096 02a2 83F80F22 		strb	r2, [r3, #527]
 1097              	.LVL119:
 1098              	.L66:
 588:.\RFPoll.c    ****     }                                               
 589:.\RFPoll.c    ****     ////////////// TURNOS ////////////////////////////////////
 590:.\RFPoll.c    **** //    if(ShiftState ==1  && side.b.RFstateReport == 1){                                    
 591:.\RFPoll.c    **** //        buffer_txDisplay[5]  = side.b.dir;
 592:.\RFPoll.c    **** //        buffer_txDisplay[6]  = 0xE3;
 593:.\RFPoll.c    **** //        buffer_txDisplay[7]  = RF_WORKSHIFTREQ;
 594:.\RFPoll.c    **** //        for(x=1;x <= bufferDisplay2.shiftId[0] ;x++){						   							
 595:.\RFPoll.c    **** //    		buffer_txDisplay[x+7]= bufferDisplay2.shiftId[(bufferDisplay2.shiftId[0]+1)-x];            
 596:.\RFPoll.c    **** //    	}
 597:.\RFPoll.c    **** //        for(x=8; x<19; x++){
 598:.\RFPoll.c    **** //            if(buffer_txDisplay[x] ==0x00)
 599:.\RFPoll.c    **** //                buffer_txDisplay[x]=0x30;
 600:.\RFPoll.c    **** //        }
 601:.\RFPoll.c    **** //        for(x=1;x <= bufferDisplay2.shiftPassword[0] ;x++){						   							
 602:.\RFPoll.c    **** //    		buffer_txDisplay[x+18]= bufferDisplay2.shiftPassword[(bufferDisplay2.shiftPassword[0]+1)-x]
 603:.\RFPoll.c    **** //    	}
 604:.\RFPoll.c    **** //        for(x=19; x<31; x++){
 605:.\RFPoll.c    **** //            if(buffer_txDisplay[x] ==0x00)
 606:.\RFPoll.c    **** //                buffer_txDisplay[x]=0x30;
 607:.\RFPoll.c    **** //        }
 608:.\RFPoll.c    **** //        buffer_txDisplay[32] = verificar_check(buffer_txDisplay,33);
 609:.\RFPoll.c    **** //        for (x = 0; x < 33; x++){
 610:.\RFPoll.c    **** //            RF_Connection_PutChar(buffer_txDisplay[x]);
 611:.\RFPoll.c    **** //        }
 612:.\RFPoll.c    **** //        side.b.rfState = RF_WORKSHIFTREQ;
 613:.\RFPoll.c    **** //        side.b.RFstateReport = 0;
 614:.\RFPoll.c    **** //    }
ARM GAS  C:\Users\RECEPC~1\AppData\Local\Temp\ccIFDC7N.s 			page 32


 615:.\RFPoll.c    ****     ////////////// CAMBIO PPU ////////////////////////////////////
 616:.\RFPoll.c    ****     if(side.b.changePPU){
 1099              		.loc 1 616 0
 1100 02a6 0A4B     		ldr	r3, .L91
 1101 02a8 93F80D32 		ldrb	r3, [r3, #525]	@ zero_extendqisi2
 1102 02ac 7BB1     		cbz	r3, .L50
 617:.\RFPoll.c    ****         if(priceChange(side.b.dir,side.b.grade,side.b.ppuAuthorized[side.b.grade]))
 1103              		.loc 1 617 0
 1104 02ae 084B     		ldr	r3, .L91
 1105 02b0 93F80E12 		ldrb	r1, [r3, #526]	@ zero_extendqisi2
 1106 02b4 03EBC102 		add	r2, r3, r1, lsl #3
 1107 02b8 93F80801 		ldrb	r0, [r3, #264]	@ zero_extendqisi2
 1108 02bc 02F2BD12 		addw	r2, r2, #445
 1109 02c0 FFF7FEFF 		bl	priceChange
 1110              	.LVL120:
 1111 02c4 18B1     		cbz	r0, .L50
 618:.\RFPoll.c    ****             side.b.changePPU = false;          
 1112              		.loc 1 618 0
 1113 02c6 0022     		movs	r2, #0
 1114 02c8 014B     		ldr	r3, .L91
 1115 02ca 83F80D22 		strb	r2, [r3, #525]
 1116              	.L50:
 1117 02ce 38BD     		pop	{r3, r4, r5, pc}
 1118              	.L92:
 1119              		.align	2
 1120              	.L91:
 1121 02d0 00000000 		.word	side
 1122 02d4 00000000 		.word	buffer_txPreset
 1123 02d8 00000000 		.word	IDCast
 1124 02dc 00000000 		.word	bufferDisplay2
 1125 02e0 00000000 		.word	tempPreset
 1126 02e4 00000000 		.word	buffer_txEOT
 1127 02e8 00000000 		.word	tempPPU
 1128 02ec 00000000 		.word	digits
 1129 02f0 07000000 		.word	side+7
 1130 02f4 09000000 		.word	side+9
 1131              		.cfi_endproc
 1132              	.LFE66:
 1133              		.size	pollingRFB_Tx, .-pollingRFB_Tx
 1134              		.section	.text.pollingRF_Rx,"ax",%progbits
 1135              		.align	2
 1136              		.global	pollingRF_Rx
 1137              		.thumb
 1138              		.thumb_func
 1139              		.type	pollingRF_Rx, %function
 1140              	pollingRF_Rx:
 1141              	.LFB64:
  54:.\RFPoll.c    ****     uint16 i,x,y,z;       
 1142              		.loc 1 54 0
 1143              		.cfi_startproc
 1144              		@ args = 0, pretend = 0, frame = 0
 1145              		@ frame_needed = 0, uses_anonymous_args = 0
 1146 0000 70B5     		push	{r4, r5, r6, lr}
 1147              		.cfi_def_cfa_offset 16
 1148              		.cfi_offset 4, -16
 1149              		.cfi_offset 5, -12
 1150              		.cfi_offset 6, -8
ARM GAS  C:\Users\RECEPC~1\AppData\Local\Temp\ccIFDC7N.s 			page 33


 1151              		.cfi_offset 14, -4
  56:.\RFPoll.c    ****     if(RF_Connection_GetRxBufferSize() >= 1){
 1152              		.loc 1 56 0
 1153 0002 1E20     		movs	r0, #30
 1154 0004 FFF7FEFF 		bl	CyDelay
 1155              	.LVL121:
  57:.\RFPoll.c    ****         ActiveRF=1;
 1156              		.loc 1 57 0
 1157 0008 FFF7FEFF 		bl	RF_Connection_GetRxBufferSize
 1158              	.LVL122:
 1159 000c 0028     		cmp	r0, #0
 1160 000e 00F0D783 		beq	.L93
  58:.\RFPoll.c    ****         counterRF = 0;
 1161              		.loc 1 58 0
 1162 0012 0122     		movs	r2, #1
 1163 0014 A94B     		ldr	r3, .L201
 1164 0016 1A70     		strb	r2, [r3]
  59:.\RFPoll.c    ****         i=0;
 1165              		.loc 1 59 0
 1166 0018 0024     		movs	r4, #0
 1167 001a A94B     		ldr	r3, .L201+4
 1168 001c 1C70     		strb	r4, [r3]
 1169              	.LVL123:
  61:.\RFPoll.c    ****            buffer_rf[i]=RF_Connection_ReadRxData(); 	
 1170              		.loc 1 61 0
 1171 001e 05E0     		b	.L95
 1172              	.LVL124:
 1173              	.L96:
  62:.\RFPoll.c    ****     	   i++;	
 1174              		.loc 1 62 0
 1175 0020 FFF7FEFF 		bl	RF_Connection_ReadRxData
 1176              	.LVL125:
 1177 0024 A74B     		ldr	r3, .L201+8
 1178 0026 1855     		strb	r0, [r3, r4]
  63:.\RFPoll.c    ****         } 
 1179              		.loc 1 63 0
 1180 0028 0134     		adds	r4, r4, #1
 1181              	.LVL126:
 1182 002a A4B2     		uxth	r4, r4
 1183              	.LVL127:
 1184              	.L95:
  61:.\RFPoll.c    ****            buffer_rf[i]=RF_Connection_ReadRxData(); 	
 1185              		.loc 1 61 0
 1186 002c FFF7FEFF 		bl	RF_Connection_GetRxBufferSize
 1187              	.LVL128:
 1188 0030 0028     		cmp	r0, #0
 1189 0032 F5D1     		bne	.L96
 1190              	.LVL129:
  66:.\RFPoll.c    ****         buffer_tx[y] = 0xCB; y++;
 1191              		.loc 1 66 0
 1192 0034 A44B     		ldr	r3, .L201+12
 1193 0036 BC22     		movs	r2, #188
 1194 0038 1A70     		strb	r2, [r3]
 1195              	.LVL130:
  67:.\RFPoll.c    ****         buffer_tx[y] = 0xC8; y++;
 1196              		.loc 1 67 0
 1197 003a CB22     		movs	r2, #203
ARM GAS  C:\Users\RECEPC~1\AppData\Local\Temp\ccIFDC7N.s 			page 34


 1198 003c 5A70     		strb	r2, [r3, #1]
 1199              	.LVL131:
  68:.\RFPoll.c    ****         buffer_tx[y] = IDCast[0]; y++;
 1200              		.loc 1 68 0
 1201 003e C822     		movs	r2, #200
 1202 0040 9A70     		strb	r2, [r3, #2]
 1203              	.LVL132:
  69:.\RFPoll.c    ****         buffer_tx[y] = IDCast[1]; y++;
 1204              		.loc 1 69 0
 1205 0042 A24A     		ldr	r2, .L201+16
 1206 0044 1178     		ldrb	r1, [r2]	@ zero_extendqisi2
 1207 0046 D970     		strb	r1, [r3, #3]
 1208              	.LVL133:
  70:.\RFPoll.c    ****         if(((buffer_rf[0]==0xBC)&&(buffer_rf[1]==0xBB)&&(buffer_rf[2]==0xB8)&&(buffer_rf[3]==IDCast
 1209              		.loc 1 70 0
 1210 0048 5278     		ldrb	r2, [r2, #1]	@ zero_extendqisi2
 1211 004a 1A71     		strb	r2, [r3, #4]
 1212              	.LVL134:
  71:.\RFPoll.c    ****             switch(buffer_rf[6]){
 1213              		.loc 1 71 0
 1214 004c 9D4B     		ldr	r3, .L201+8
 1215 004e 1B78     		ldrb	r3, [r3]	@ zero_extendqisi2
 1216 0050 BC2B     		cmp	r3, #188
 1217 0052 40F0B383 		bne	.L97
  71:.\RFPoll.c    ****             switch(buffer_rf[6]){
 1218              		.loc 1 71 0 is_stmt 0 discriminator 1
 1219 0056 9B4B     		ldr	r3, .L201+8
 1220 0058 5B78     		ldrb	r3, [r3, #1]	@ zero_extendqisi2
 1221 005a BB2B     		cmp	r3, #187
 1222 005c 40F0AE83 		bne	.L97
  71:.\RFPoll.c    ****             switch(buffer_rf[6]){
 1223              		.loc 1 71 0 discriminator 2
 1224 0060 984B     		ldr	r3, .L201+8
 1225 0062 9B78     		ldrb	r3, [r3, #2]	@ zero_extendqisi2
 1226 0064 B82B     		cmp	r3, #184
 1227 0066 40F0A983 		bne	.L97
  71:.\RFPoll.c    ****             switch(buffer_rf[6]){
 1228              		.loc 1 71 0 discriminator 3
 1229 006a 984B     		ldr	r3, .L201+16
 1230 006c 1B78     		ldrb	r3, [r3]	@ zero_extendqisi2
 1231 006e 954A     		ldr	r2, .L201+8
 1232 0070 D278     		ldrb	r2, [r2, #3]	@ zero_extendqisi2
 1233 0072 9A42     		cmp	r2, r3
 1234 0074 40F0A283 		bne	.L97
  71:.\RFPoll.c    ****             switch(buffer_rf[6]){
 1235              		.loc 1 71 0 discriminator 4
 1236 0078 944B     		ldr	r3, .L201+16
 1237 007a 5B78     		ldrb	r3, [r3, #1]	@ zero_extendqisi2
 1238 007c 914A     		ldr	r2, .L201+8
 1239 007e 1279     		ldrb	r2, [r2, #4]	@ zero_extendqisi2
 1240 0080 9A42     		cmp	r2, r3
 1241 0082 40F09B83 		bne	.L97
  72:.\RFPoll.c    ****                case 0xA1:               //Peticion de estado
 1242              		.loc 1 72 0 is_stmt 1
 1243 0086 8F4B     		ldr	r3, .L201+8
 1244 0088 9B79     		ldrb	r3, [r3, #6]	@ zero_extendqisi2
 1245 008a A62B     		cmp	r3, #166
ARM GAS  C:\Users\RECEPC~1\AppData\Local\Temp\ccIFDC7N.s 			page 35


 1246 008c 00F0CB81 		beq	.L98
 1247 0090 05D8     		bhi	.L99
 1248 0092 A12B     		cmp	r3, #161
 1249 0094 0DD0     		beq	.L100
 1250 0096 A52B     		cmp	r3, #165
 1251 0098 00F0B180 		beq	.L101
 1252 009c 8EE3     		b	.L97
 1253              	.L99:
 1254 009e E12B     		cmp	r3, #225
 1255 00a0 00F0C482 		beq	.L102
 1256 00a4 E22B     		cmp	r3, #226
 1257 00a6 00F05D83 		beq	.L103
 1258 00aa A72B     		cmp	r3, #167
 1259 00ac 40F08683 		bne	.L97
 1260 00b0 76E2     		b	.L104
 1261              	.L100:
  74:.\RFPoll.c    ****                     if(side.a.RFstateReport == 0){                        
 1262              		.loc 1 74 0
 1263 00b2 844B     		ldr	r3, .L201+8
 1264 00b4 5A79     		ldrb	r2, [r3, #5]	@ zero_extendqisi2
 1265 00b6 864B     		ldr	r3, .L201+20
 1266 00b8 1B78     		ldrb	r3, [r3]	@ zero_extendqisi2
 1267 00ba 9A42     		cmp	r2, r3
 1268 00bc 20D1     		bne	.L192
  75:.\RFPoll.c    ****                         buffer_tx[5] = side.a.dir;y++;
 1269              		.loc 1 75 0
 1270 00be 844A     		ldr	r2, .L201+20
 1271 00c0 92F80721 		ldrb	r2, [r2, #263]	@ zero_extendqisi2
 1272 00c4 C2B9     		cbnz	r2, .L106
  76:.\RFPoll.c    ****                         buffer_tx[y] = 0xA1;y++;
 1273              		.loc 1 76 0
 1274 00c6 804C     		ldr	r4, .L201+12
 1275              	.LVL135:
 1276 00c8 6371     		strb	r3, [r4, #5]
 1277              	.LVL136:
  77:.\RFPoll.c    ****                         buffer_tx[y] = side.a.rfState; y++;
 1278              		.loc 1 77 0
 1279 00ca A123     		movs	r3, #161
 1280 00cc A371     		strb	r3, [r4, #6]
 1281              	.LVL137:
  78:.\RFPoll.c    ****                         buffer_tx[y] = verificar_check(buffer_tx,y+1);y++;
 1282              		.loc 1 78 0
 1283 00ce 804B     		ldr	r3, .L201+20
 1284 00d0 93F80331 		ldrb	r3, [r3, #259]	@ zero_extendqisi2
 1285 00d4 E371     		strb	r3, [r4, #7]
 1286              	.LVL138:
  79:.\RFPoll.c    ****                         for (x = 0; x < y; x++){
 1287              		.loc 1 79 0
 1288 00d6 2046     		mov	r0, r4
 1289 00d8 0921     		movs	r1, #9
 1290 00da FFF7FEFF 		bl	verificar_check
 1291              	.LVL139:
 1292 00de 2072     		strb	r0, [r4, #8]
 1293              	.LVL140:
  80:.\RFPoll.c    ****                             RF_Connection_PutChar(buffer_tx[x]);
 1294              		.loc 1 80 0
 1295 00e0 0024     		movs	r4, #0
ARM GAS  C:\Users\RECEPC~1\AppData\Local\Temp\ccIFDC7N.s 			page 36


 1296 00e2 05E0     		b	.L107
 1297              	.LVL141:
 1298              	.L108:
  81:.\RFPoll.c    ****                         }
 1299              		.loc 1 81 0 discriminator 3
 1300 00e4 784B     		ldr	r3, .L201+12
 1301 00e6 185D     		ldrb	r0, [r3, r4]	@ zero_extendqisi2
 1302 00e8 FFF7FEFF 		bl	RF_Connection_PutChar
 1303              	.LVL142:
  80:.\RFPoll.c    ****                             RF_Connection_PutChar(buffer_tx[x]);
 1304              		.loc 1 80 0 discriminator 3
 1305 00ec 0134     		adds	r4, r4, #1
 1306              	.LVL143:
 1307 00ee A4B2     		uxth	r4, r4
 1308              	.LVL144:
 1309              	.L107:
  80:.\RFPoll.c    ****                             RF_Connection_PutChar(buffer_tx[x]);
 1310              		.loc 1 80 0 is_stmt 0 discriminator 1
 1311 00f0 082C     		cmp	r4, #8
 1312 00f2 F7D9     		bls	.L108
  79:.\RFPoll.c    ****                         for (x = 0; x < y; x++){
 1313              		.loc 1 79 0 is_stmt 1
 1314 00f4 0924     		movs	r4, #9
 1315              	.LVL145:
 1316 00f6 04E0     		b	.L105
 1317              	.LVL146:
 1318              	.L106:
  84:.\RFPoll.c    ****                     } 
 1319              		.loc 1 84 0
 1320 00f8 FFF7FEFF 		bl	pollingRFA_Tx
 1321              	.LVL147:
  70:.\RFPoll.c    ****         if(((buffer_rf[0]==0xBC)&&(buffer_rf[1]==0xBB)&&(buffer_rf[2]==0xB8)&&(buffer_rf[3]==IDCast
 1322              		.loc 1 70 0
 1323 00fc 0524     		movs	r4, #5
 1324              	.LVL148:
 1325 00fe 00E0     		b	.L105
 1326              	.LVL149:
 1327              	.L192:
 1328 0100 0524     		movs	r4, #5
 1329              	.LVL150:
 1330              	.L105:
  87:.\RFPoll.c    ****                     if(side.b.RFstateReport == 0){
 1331              		.loc 1 87 0
 1332 0102 704B     		ldr	r3, .L201+8
 1333 0104 5A79     		ldrb	r2, [r3, #5]	@ zero_extendqisi2
 1334 0106 724B     		ldr	r3, .L201+20
 1335 0108 93F80831 		ldrb	r3, [r3, #264]	@ zero_extendqisi2
 1336 010c 9A42     		cmp	r2, r3
 1337 010e 26D1     		bne	.L109
  88:.\RFPoll.c    ****                         buffer_tx[5] = side.b.dir;y++;
 1338              		.loc 1 88 0
 1339 0110 6F4A     		ldr	r2, .L201+20
 1340 0112 92F80F22 		ldrb	r2, [r2, #527]	@ zero_extendqisi2
 1341 0116 02BB     		cbnz	r2, .L110
  89:.\RFPoll.c    ****                         buffer_tx[y] = 0xA1;y++;
 1342              		.loc 1 89 0
 1343 0118 6B4D     		ldr	r5, .L201+12
ARM GAS  C:\Users\RECEPC~1\AppData\Local\Temp\ccIFDC7N.s 			page 37


 1344 011a 6B71     		strb	r3, [r5, #5]
 1345 011c 631C     		adds	r3, r4, #1
 1346 011e 9BB2     		uxth	r3, r3
 1347              	.LVL151:
  90:.\RFPoll.c    ****                         buffer_tx[y] = side.b.rfState;y++;
 1348              		.loc 1 90 0
 1349 0120 A122     		movs	r2, #161
 1350 0122 EA54     		strb	r2, [r5, r3]
 1351 0124 0133     		adds	r3, r3, #1
 1352              	.LVL152:
 1353 0126 9BB2     		uxth	r3, r3
 1354              	.LVL153:
  91:.\RFPoll.c    ****                         buffer_tx[y] = verificar_check(buffer_tx,y+1);y++;
 1355              		.loc 1 91 0
 1356 0128 694A     		ldr	r2, .L201+20
 1357 012a 92F80B22 		ldrb	r2, [r2, #523]	@ zero_extendqisi2
 1358 012e EA54     		strb	r2, [r5, r3]
 1359 0130 5C1C     		adds	r4, r3, #1
 1360 0132 A4B2     		uxth	r4, r4
 1361              	.LVL154:
  92:.\RFPoll.c    ****                         for (x = 0; x < y; x++){
 1362              		.loc 1 92 0
 1363 0134 991C     		adds	r1, r3, #2
 1364 0136 2846     		mov	r0, r5
 1365 0138 89B2     		uxth	r1, r1
 1366 013a FFF7FEFF 		bl	verificar_check
 1367              	.LVL155:
 1368 013e 2855     		strb	r0, [r5, r4]
 1369 0140 0134     		adds	r4, r4, #1
 1370              	.LVL156:
 1371 0142 A4B2     		uxth	r4, r4
 1372              	.LVL157:
  93:.\RFPoll.c    ****                             RF_Connection_PutChar(buffer_tx[x]);
 1373              		.loc 1 93 0
 1374 0144 0025     		movs	r5, #0
 1375 0146 05E0     		b	.L111
 1376              	.LVL158:
 1377              	.L112:
  94:.\RFPoll.c    ****                         }
 1378              		.loc 1 94 0 discriminator 3
 1379 0148 5F4B     		ldr	r3, .L201+12
 1380 014a 585D     		ldrb	r0, [r3, r5]	@ zero_extendqisi2
 1381 014c FFF7FEFF 		bl	RF_Connection_PutChar
 1382              	.LVL159:
  93:.\RFPoll.c    ****                             RF_Connection_PutChar(buffer_tx[x]);
 1383              		.loc 1 93 0 discriminator 3
 1384 0150 0135     		adds	r5, r5, #1
 1385              	.LVL160:
 1386 0152 ADB2     		uxth	r5, r5
 1387              	.LVL161:
 1388              	.L111:
  93:.\RFPoll.c    ****                             RF_Connection_PutChar(buffer_tx[x]);
 1389              		.loc 1 93 0 is_stmt 0 discriminator 1
 1390 0154 A542     		cmp	r5, r4
 1391 0156 F7D3     		bcc	.L112
 1392 0158 01E0     		b	.L109
 1393              	.LVL162:
ARM GAS  C:\Users\RECEPC~1\AppData\Local\Temp\ccIFDC7N.s 			page 38


 1394              	.L110:
  97:.\RFPoll.c    ****                     } 
 1395              		.loc 1 97 0 is_stmt 1
 1396 015a FFF7FEFF 		bl	pollingRFB_Tx
 1397              	.LVL163:
 1398              	.L109:
 100:.\RFPoll.c    ****                     buffer_tx[5] = side.c.dir; y++;
 1399              		.loc 1 100 0
 1400 015e 594B     		ldr	r3, .L201+8
 1401 0160 5A79     		ldrb	r2, [r3, #5]	@ zero_extendqisi2
 1402 0162 5B4B     		ldr	r3, .L201+20
 1403 0164 93F81032 		ldrb	r3, [r3, #528]	@ zero_extendqisi2
 1404 0168 9A42     		cmp	r2, r3
 1405 016a 1FD1     		bne	.L113
 101:.\RFPoll.c    ****                     buffer_tx[y] = 0xA1; y++;
 1406              		.loc 1 101 0
 1407 016c 564D     		ldr	r5, .L201+12
 1408 016e 6B71     		strb	r3, [r5, #5]
 1409 0170 631C     		adds	r3, r4, #1
 1410 0172 9BB2     		uxth	r3, r3
 1411              	.LVL164:
 102:.\RFPoll.c    ****                     buffer_tx[y] = side.c.rfState; y++;
 1412              		.loc 1 102 0
 1413 0174 A122     		movs	r2, #161
 1414 0176 EA54     		strb	r2, [r5, r3]
 1415 0178 0133     		adds	r3, r3, #1
 1416              	.LVL165:
 1417 017a 9BB2     		uxth	r3, r3
 1418              	.LVL166:
 103:.\RFPoll.c    ****                     buffer_tx[y] = verificar_check(buffer_tx,y+1);y++;
 1419              		.loc 1 103 0
 1420 017c 544A     		ldr	r2, .L201+20
 1421 017e 92F81323 		ldrb	r2, [r2, #787]	@ zero_extendqisi2
 1422 0182 EA54     		strb	r2, [r5, r3]
 1423 0184 5C1C     		adds	r4, r3, #1
 1424 0186 A4B2     		uxth	r4, r4
 1425              	.LVL167:
 104:.\RFPoll.c    ****                     for (x = 0; x < y; x++){
 1426              		.loc 1 104 0
 1427 0188 991C     		adds	r1, r3, #2
 1428 018a 2846     		mov	r0, r5
 1429 018c 89B2     		uxth	r1, r1
 1430 018e FFF7FEFF 		bl	verificar_check
 1431              	.LVL168:
 1432 0192 2855     		strb	r0, [r5, r4]
 1433 0194 0134     		adds	r4, r4, #1
 1434              	.LVL169:
 1435 0196 A4B2     		uxth	r4, r4
 1436              	.LVL170:
 105:.\RFPoll.c    ****                         RF_Connection_PutChar(buffer_tx[x]);
 1437              		.loc 1 105 0
 1438 0198 0025     		movs	r5, #0
 1439 019a 05E0     		b	.L114
 1440              	.LVL171:
 1441              	.L115:
 106:.\RFPoll.c    ****                     }
 1442              		.loc 1 106 0 discriminator 3
ARM GAS  C:\Users\RECEPC~1\AppData\Local\Temp\ccIFDC7N.s 			page 39


 1443 019c 4A4B     		ldr	r3, .L201+12
 1444 019e 585D     		ldrb	r0, [r3, r5]	@ zero_extendqisi2
 1445 01a0 FFF7FEFF 		bl	RF_Connection_PutChar
 1446              	.LVL172:
 105:.\RFPoll.c    ****                         RF_Connection_PutChar(buffer_tx[x]);
 1447              		.loc 1 105 0 discriminator 3
 1448 01a4 0135     		adds	r5, r5, #1
 1449              	.LVL173:
 1450 01a6 ADB2     		uxth	r5, r5
 1451              	.LVL174:
 1452              	.L114:
 105:.\RFPoll.c    ****                         RF_Connection_PutChar(buffer_tx[x]);
 1453              		.loc 1 105 0 is_stmt 0 discriminator 1
 1454 01a8 A542     		cmp	r5, r4
 1455 01aa F7D3     		bcc	.L115
 1456              	.LVL175:
 1457              	.L113:
 109:.\RFPoll.c    ****                     buffer_tx[5] = side.d.dir; y++;
 1458              		.loc 1 109 0 is_stmt 1
 1459 01ac 454B     		ldr	r3, .L201+8
 1460 01ae 5A79     		ldrb	r2, [r3, #5]	@ zero_extendqisi2
 1461 01b0 474B     		ldr	r3, .L201+20
 1462 01b2 93F81833 		ldrb	r3, [r3, #792]	@ zero_extendqisi2
 1463 01b6 9A42     		cmp	r2, r3
 1464 01b8 40F00083 		bne	.L97
 110:.\RFPoll.c    ****                     buffer_tx[y] = 0xA1; y++;
 1465              		.loc 1 110 0
 1466 01bc 424D     		ldr	r5, .L201+12
 1467 01be 6B71     		strb	r3, [r5, #5]
 1468 01c0 631C     		adds	r3, r4, #1
 1469 01c2 9BB2     		uxth	r3, r3
 1470              	.LVL176:
 111:.\RFPoll.c    ****                     buffer_tx[y] = side.d.rfState; y++;
 1471              		.loc 1 111 0
 1472 01c4 A122     		movs	r2, #161
 1473 01c6 EA54     		strb	r2, [r5, r3]
 1474 01c8 0133     		adds	r3, r3, #1
 1475              	.LVL177:
 1476 01ca 9BB2     		uxth	r3, r3
 1477              	.LVL178:
 112:.\RFPoll.c    ****                     buffer_tx[y] = verificar_check(buffer_tx,y+1);y++;
 1478              		.loc 1 112 0
 1479 01cc 404A     		ldr	r2, .L201+20
 1480 01ce 92F81B24 		ldrb	r2, [r2, #1051]	@ zero_extendqisi2
 1481 01d2 EA54     		strb	r2, [r5, r3]
 1482 01d4 5C1C     		adds	r4, r3, #1
 1483 01d6 A4B2     		uxth	r4, r4
 1484              	.LVL179:
 113:.\RFPoll.c    ****                     for (x = 0; x < y; x++){
 1485              		.loc 1 113 0
 1486 01d8 991C     		adds	r1, r3, #2
 1487 01da 2846     		mov	r0, r5
 1488 01dc 89B2     		uxth	r1, r1
 1489 01de FFF7FEFF 		bl	verificar_check
 1490              	.LVL180:
 1491 01e2 2855     		strb	r0, [r5, r4]
 1492 01e4 0134     		adds	r4, r4, #1
ARM GAS  C:\Users\RECEPC~1\AppData\Local\Temp\ccIFDC7N.s 			page 40


 1493              	.LVL181:
 1494 01e6 A4B2     		uxth	r4, r4
 1495              	.LVL182:
 114:.\RFPoll.c    ****                         RF_Connection_PutChar(buffer_tx[x]);
 1496              		.loc 1 114 0
 1497 01e8 0025     		movs	r5, #0
 1498 01ea 05E0     		b	.L116
 1499              	.LVL183:
 1500              	.L117:
 115:.\RFPoll.c    ****                     }
 1501              		.loc 1 115 0 discriminator 3
 1502 01ec 364B     		ldr	r3, .L201+12
 1503 01ee 585D     		ldrb	r0, [r3, r5]	@ zero_extendqisi2
 1504 01f0 FFF7FEFF 		bl	RF_Connection_PutChar
 1505              	.LVL184:
 114:.\RFPoll.c    ****                         RF_Connection_PutChar(buffer_tx[x]);
 1506              		.loc 1 114 0 discriminator 3
 1507 01f4 0135     		adds	r5, r5, #1
 1508              	.LVL185:
 1509 01f6 ADB2     		uxth	r5, r5
 1510              	.LVL186:
 1511              	.L116:
 114:.\RFPoll.c    ****                         RF_Connection_PutChar(buffer_tx[x]);
 1512              		.loc 1 114 0 is_stmt 0 discriminator 1
 1513 01f8 A542     		cmp	r5, r4
 1514 01fa F7D3     		bcc	.L117
 1515 01fc DEE2     		b	.L97
 1516              	.LVL187:
 1517              	.L101:
 122:.\RFPoll.c    ****                     getTotals(side.a.dir);
 1518              		.loc 1 122 0 is_stmt 1
 1519 01fe 314B     		ldr	r3, .L201+8
 1520 0200 5B79     		ldrb	r3, [r3, #5]	@ zero_extendqisi2
 1521 0202 334A     		ldr	r2, .L201+20
 1522 0204 1078     		ldrb	r0, [r2]	@ zero_extendqisi2
 1523 0206 8342     		cmp	r3, r0
 1524 0208 79D1     		bne	.L193
 123:.\RFPoll.c    ****                     buffer_tx[5] = side.a.dir; y++;
 1525              		.loc 1 123 0
 1526 020a FFF7FEFF 		bl	getTotals
 1527              	.LVL188:
 124:.\RFPoll.c    ****                     buffer_tx[y] = 0xE8; y++;
 1528              		.loc 1 124 0
 1529 020e 304A     		ldr	r2, .L201+20
 1530 0210 1178     		ldrb	r1, [r2]	@ zero_extendqisi2
 1531 0212 2D4B     		ldr	r3, .L201+12
 1532 0214 5971     		strb	r1, [r3, #5]
 1533              	.LVL189:
 125:.\RFPoll.c    ****                     buffer_tx[y] = side.a.rfState; y++;
 1534              		.loc 1 125 0
 1535 0216 E821     		movs	r1, #232
 1536 0218 9971     		strb	r1, [r3, #6]
 1537              	.LVL190:
 126:.\RFPoll.c    ****                     buffer_tx[y] = 0x00; y++;
 1538              		.loc 1 126 0
 1539 021a 92F80321 		ldrb	r2, [r2, #259]	@ zero_extendqisi2
 1540 021e DA71     		strb	r2, [r3, #7]
ARM GAS  C:\Users\RECEPC~1\AppData\Local\Temp\ccIFDC7N.s 			page 41


 1541              	.LVL191:
 127:.\RFPoll.c    ****                     for(z=1;z <= side.a.hoseNumber; z++){
 1542              		.loc 1 127 0
 1543 0220 0022     		movs	r2, #0
 1544 0222 1A72     		strb	r2, [r3, #8]
 1545              	.LVL192:
 128:.\RFPoll.c    ****                         buffer_tx[y] = z; y++;                    
 1546              		.loc 1 128 0
 1547 0224 0122     		movs	r2, #1
 127:.\RFPoll.c    ****                     for(z=1;z <= side.a.hoseNumber; z++){
 1548              		.loc 1 127 0
 1549 0226 0924     		movs	r4, #9
 1550              	.LVL193:
 128:.\RFPoll.c    ****                         buffer_tx[y] = z; y++;                    
 1551              		.loc 1 128 0
 1552 0228 63E0     		b	.L119
 1553              	.LVL194:
 1554              	.L133:
 129:.\RFPoll.c    ****                         if (digits == 6 || digits == 5){                            
 1555              		.loc 1 129 0
 1556 022a 274B     		ldr	r3, .L201+12
 1557 022c 1A55     		strb	r2, [r3, r4]
 1558 022e 0134     		adds	r4, r4, #1
 1559              	.LVL195:
 1560 0230 A4B2     		uxth	r4, r4
 1561              	.LVL196:
 130:.\RFPoll.c    ****                             for(x = 8; x > 0; x--){ //Volumen
 1562              		.loc 1 130 0
 1563 0232 284B     		ldr	r3, .L201+24
 1564 0234 1B78     		ldrb	r3, [r3]	@ zero_extendqisi2
 1565 0236 053B     		subs	r3, r3, #5
 1566 0238 DBB2     		uxtb	r3, r3
 1567 023a 012B     		cmp	r3, #1
 1568 023c 0BD9     		bls	.L194
 1569 023e 0C23     		movs	r3, #12
 1570 0240 37E0     		b	.L121
 1571              	.LVL197:
 1572              	.L122:
 132:.\RFPoll.c    ****                             }
 1573              		.loc 1 132 0 discriminator 3
 1574 0242 2349     		ldr	r1, .L201+20
 1575 0244 1944     		add	r1, r1, r3
 1576 0246 4878     		ldrb	r0, [r1, #1]	@ zero_extendqisi2
 1577 0248 1F49     		ldr	r1, .L201+12
 1578 024a 0855     		strb	r0, [r1, r4]
 1579 024c 0134     		adds	r4, r4, #1
 1580              	.LVL198:
 1581 024e A4B2     		uxth	r4, r4
 1582              	.LVL199:
 131:.\RFPoll.c    ****                                 buffer_tx[y] = side.a.totalsHandle[0][0][x];y++;
 1583              		.loc 1 131 0 discriminator 3
 1584 0250 013B     		subs	r3, r3, #1
 1585              	.LVL200:
 1586 0252 9BB2     		uxth	r3, r3
 1587              	.LVL201:
 1588 0254 00E0     		b	.L120
 1589              	.LVL202:
ARM GAS  C:\Users\RECEPC~1\AppData\Local\Temp\ccIFDC7N.s 			page 42


 1590              	.L194:
 1591 0256 0823     		movs	r3, #8
 1592              	.L120:
 1593              	.LVL203:
 131:.\RFPoll.c    ****                                 buffer_tx[y] = side.a.totalsHandle[0][0][x];y++;
 1594              		.loc 1 131 0 is_stmt 0 discriminator 1
 1595 0258 002B     		cmp	r3, #0
 1596 025a F2D1     		bne	.L122
 1597 025c 06E0     		b	.L123
 1598              	.L124:
 135:.\RFPoll.c    ****                             }
 1599              		.loc 1 135 0 is_stmt 1 discriminator 3
 1600 025e 3020     		movs	r0, #48
 1601 0260 1949     		ldr	r1, .L201+12
 1602 0262 0855     		strb	r0, [r1, r4]
 1603 0264 0134     		adds	r4, r4, #1
 1604              	.LVL204:
 1605 0266 A4B2     		uxth	r4, r4
 1606              	.LVL205:
 134:.\RFPoll.c    ****                                 buffer_tx[y] = 0x30;y++;
 1607              		.loc 1 134 0 discriminator 3
 1608 0268 0133     		adds	r3, r3, #1
 1609              	.LVL206:
 1610 026a 9BB2     		uxth	r3, r3
 1611              	.LVL207:
 1612              	.L123:
 134:.\RFPoll.c    ****                                 buffer_tx[y] = 0x30;y++;
 1613              		.loc 1 134 0 is_stmt 0 discriminator 1
 1614 026c 032B     		cmp	r3, #3
 1615 026e F6D9     		bls	.L124
 1616 0270 0823     		movs	r3, #8
 1617              	.LVL208:
 1618 0272 08E0     		b	.L125
 1619              	.LVL209:
 1620              	.L126:
 138:.\RFPoll.c    ****                             }
 1621              		.loc 1 138 0 is_stmt 1 discriminator 3
 1622 0274 1649     		ldr	r1, .L201+20
 1623 0276 1944     		add	r1, r1, r3
 1624 0278 087C     		ldrb	r0, [r1, #16]	@ zero_extendqisi2
 1625 027a 1349     		ldr	r1, .L201+12
 1626 027c 0855     		strb	r0, [r1, r4]
 1627 027e 0134     		adds	r4, r4, #1
 1628              	.LVL210:
 1629 0280 A4B2     		uxth	r4, r4
 1630              	.LVL211:
 137:.\RFPoll.c    ****                                 buffer_tx[y] = side.a.totalsHandle[0][1][x];y++;
 1631              		.loc 1 137 0 discriminator 3
 1632 0282 013B     		subs	r3, r3, #1
 1633              	.LVL212:
 1634 0284 9BB2     		uxth	r3, r3
 1635              	.LVL213:
 1636              	.L125:
 137:.\RFPoll.c    ****                                 buffer_tx[y] = side.a.totalsHandle[0][1][x];y++;
 1637              		.loc 1 137 0 is_stmt 0 discriminator 1
 1638 0286 002B     		cmp	r3, #0
 1639 0288 F4D1     		bne	.L126
ARM GAS  C:\Users\RECEPC~1\AppData\Local\Temp\ccIFDC7N.s 			page 43


 1640 028a 06E0     		b	.L127
 1641              	.L128:
 141:.\RFPoll.c    ****                             }
 1642              		.loc 1 141 0 is_stmt 1 discriminator 3
 1643 028c 3020     		movs	r0, #48
 1644 028e 0E49     		ldr	r1, .L201+12
 1645 0290 0855     		strb	r0, [r1, r4]
 1646 0292 0134     		adds	r4, r4, #1
 1647              	.LVL214:
 1648 0294 A4B2     		uxth	r4, r4
 1649              	.LVL215:
 140:.\RFPoll.c    ****                                 buffer_tx[y] = 0x30;y++;
 1650              		.loc 1 140 0 discriminator 3
 1651 0296 0133     		adds	r3, r3, #1
 1652              	.LVL216:
 1653 0298 9BB2     		uxth	r3, r3
 1654              	.LVL217:
 1655              	.L127:
 140:.\RFPoll.c    ****                                 buffer_tx[y] = 0x30;y++;
 1656              		.loc 1 140 0 is_stmt 0 discriminator 1
 1657 029a 032B     		cmp	r3, #3
 1658 029c F6D9     		bls	.L128
 1659 029e 26E0     		b	.L129
 1660              	.L130:
 145:.\RFPoll.c    ****                             }                        
 1661              		.loc 1 145 0 is_stmt 1 discriminator 3
 1662 02a0 0B49     		ldr	r1, .L201+20
 1663 02a2 1944     		add	r1, r1, r3
 1664 02a4 4878     		ldrb	r0, [r1, #1]	@ zero_extendqisi2
 1665 02a6 0849     		ldr	r1, .L201+12
 1666 02a8 0855     		strb	r0, [r1, r4]
 1667 02aa 0134     		adds	r4, r4, #1
 1668              	.LVL218:
 1669 02ac A4B2     		uxth	r4, r4
 1670              	.LVL219:
 144:.\RFPoll.c    ****                                 buffer_tx[y] = side.a.totalsHandle[0][0][x];y++;
 1671              		.loc 1 144 0 discriminator 3
 1672 02ae 013B     		subs	r3, r3, #1
 1673              	.LVL220:
 1674 02b0 9BB2     		uxth	r3, r3
 1675              	.LVL221:
 1676              	.L121:
 144:.\RFPoll.c    ****                                 buffer_tx[y] = side.a.totalsHandle[0][0][x];y++;
 1677              		.loc 1 144 0 is_stmt 0 discriminator 1
 1678 02b2 002B     		cmp	r3, #0
 1679 02b4 F4D1     		bne	.L130
 1680 02b6 0C23     		movs	r3, #12
 1681              	.LVL222:
 1682 02b8 17E0     		b	.L131
 1683              	.L202:
 1684 02ba 00BF     		.align	2
 1685              	.L201:
 1686 02bc 00000000 		.word	ActiveRF
 1687 02c0 00000000 		.word	counterRF
 1688 02c4 00000000 		.word	buffer_rf
 1689 02c8 00000000 		.word	buffer_tx
 1690 02cc 00000000 		.word	IDCast
ARM GAS  C:\Users\RECEPC~1\AppData\Local\Temp\ccIFDC7N.s 			page 44


 1691 02d0 00000000 		.word	side
 1692 02d4 00000000 		.word	digits
 1693              	.LVL223:
 1694              	.L132:
 148:.\RFPoll.c    ****                             }                        
 1695              		.loc 1 148 0 is_stmt 1 discriminator 3
 1696 02d8 AD49     		ldr	r1, .L203
 1697 02da 1944     		add	r1, r1, r3
 1698 02dc 087C     		ldrb	r0, [r1, #16]	@ zero_extendqisi2
 1699 02de AD49     		ldr	r1, .L203+4
 1700 02e0 0855     		strb	r0, [r1, r4]
 1701 02e2 0134     		adds	r4, r4, #1
 1702              	.LVL224:
 1703 02e4 A4B2     		uxth	r4, r4
 1704              	.LVL225:
 147:.\RFPoll.c    ****                                 buffer_tx[y] = side.a.totalsHandle[0][1][x];y++;
 1705              		.loc 1 147 0 discriminator 3
 1706 02e6 013B     		subs	r3, r3, #1
 1707              	.LVL226:
 1708 02e8 9BB2     		uxth	r3, r3
 1709              	.LVL227:
 1710              	.L131:
 147:.\RFPoll.c    ****                                 buffer_tx[y] = side.a.totalsHandle[0][1][x];y++;
 1711              		.loc 1 147 0 is_stmt 0 discriminator 1
 1712 02ea 002B     		cmp	r3, #0
 1713 02ec F4D1     		bne	.L132
 1714              	.L129:
 128:.\RFPoll.c    ****                         buffer_tx[y] = z; y++;                    
 1715              		.loc 1 128 0 is_stmt 1 discriminator 2
 1716 02ee 0132     		adds	r2, r2, #1
 1717              	.LVL228:
 1718 02f0 92B2     		uxth	r2, r2
 1719              	.LVL229:
 1720              	.L119:
 128:.\RFPoll.c    ****                         buffer_tx[y] = z; y++;                    
 1721              		.loc 1 128 0 is_stmt 0 discriminator 1
 1722 02f2 A74B     		ldr	r3, .L203
 1723 02f4 93F80231 		ldrb	r3, [r3, #258]	@ zero_extendqisi2
 1724 02f8 9342     		cmp	r3, r2
 1725 02fa 96D2     		bcs	.L133
 1726 02fc 00E0     		b	.L118
 1727              	.LVL230:
 1728              	.L193:
  70:.\RFPoll.c    ****         if(((buffer_rf[0]==0xBC)&&(buffer_rf[1]==0xBB)&&(buffer_rf[2]==0xB8)&&(buffer_rf[3]==IDCast
 1729              		.loc 1 70 0 is_stmt 1
 1730 02fe 0524     		movs	r4, #5
 1731              	.LVL231:
 1732              	.L118:
 153:.\RFPoll.c    ****                     getTotals(side.b.dir);
 1733              		.loc 1 153 0
 1734 0300 A54B     		ldr	r3, .L203+8
 1735 0302 5B79     		ldrb	r3, [r3, #5]	@ zero_extendqisi2
 1736 0304 A24A     		ldr	r2, .L203
 1737 0306 92F80801 		ldrb	r0, [r2, #264]	@ zero_extendqisi2
 1738 030a 8342     		cmp	r3, r0
 1739 030c 75D1     		bne	.L134
 154:.\RFPoll.c    ****                     buffer_tx[5] = side.b.dir; y++;
ARM GAS  C:\Users\RECEPC~1\AppData\Local\Temp\ccIFDC7N.s 			page 45


 1740              		.loc 1 154 0
 1741 030e FFF7FEFF 		bl	getTotals
 1742              	.LVL232:
 155:.\RFPoll.c    ****                     buffer_tx[y] = 0xE8; y++;
 1743              		.loc 1 155 0
 1744 0312 9F49     		ldr	r1, .L203
 1745 0314 91F80831 		ldrb	r3, [r1, #264]	@ zero_extendqisi2
 1746 0318 9E4A     		ldr	r2, .L203+4
 1747 031a 5371     		strb	r3, [r2, #5]
 1748 031c 631C     		adds	r3, r4, #1
 1749 031e 9BB2     		uxth	r3, r3
 1750              	.LVL233:
 156:.\RFPoll.c    ****                     buffer_tx[y] = side.b.rfState; y++;
 1751              		.loc 1 156 0
 1752 0320 E820     		movs	r0, #232
 1753 0322 D054     		strb	r0, [r2, r3]
 1754 0324 0133     		adds	r3, r3, #1
 1755              	.LVL234:
 1756 0326 9BB2     		uxth	r3, r3
 1757              	.LVL235:
 157:.\RFPoll.c    ****                     buffer_tx[y] = 0x00; y++;
 1758              		.loc 1 157 0
 1759 0328 91F80B12 		ldrb	r1, [r1, #523]	@ zero_extendqisi2
 1760 032c D154     		strb	r1, [r2, r3]
 1761 032e 0133     		adds	r3, r3, #1
 1762              	.LVL236:
 1763 0330 9BB2     		uxth	r3, r3
 1764              	.LVL237:
 158:.\RFPoll.c    ****                     for(z=1;z <= side.b.hoseNumber; z++){
 1765              		.loc 1 158 0
 1766 0332 0021     		movs	r1, #0
 1767 0334 D154     		strb	r1, [r2, r3]
 1768 0336 0133     		adds	r3, r3, #1
 1769              	.LVL238:
 1770 0338 9CB2     		uxth	r4, r3
 1771              	.LVL239:
 159:.\RFPoll.c    ****                         buffer_tx[y] = z; y++;
 1772              		.loc 1 159 0
 1773 033a 0122     		movs	r2, #1
 1774 033c 58E0     		b	.L135
 1775              	.LVL240:
 1776              	.L149:
 160:.\RFPoll.c    ****                         if (digits == 6 || digits == 5){                            
 1777              		.loc 1 160 0
 1778 033e 954B     		ldr	r3, .L203+4
 1779 0340 1A55     		strb	r2, [r3, r4]
 1780 0342 0134     		adds	r4, r4, #1
 1781              	.LVL241:
 1782 0344 A4B2     		uxth	r4, r4
 1783              	.LVL242:
 161:.\RFPoll.c    ****                             for(x = 8; x > 0; x--){ //Volumen
 1784              		.loc 1 161 0
 1785 0346 954B     		ldr	r3, .L203+12
 1786 0348 1B78     		ldrb	r3, [r3]	@ zero_extendqisi2
 1787 034a 053B     		subs	r3, r3, #5
 1788 034c DBB2     		uxtb	r3, r3
 1789 034e 012B     		cmp	r3, #1
ARM GAS  C:\Users\RECEPC~1\AppData\Local\Temp\ccIFDC7N.s 			page 46


 1790 0350 0CD9     		bls	.L195
 1791 0352 0C23     		movs	r3, #12
 1792 0354 3AE0     		b	.L137
 1793              	.LVL243:
 1794              	.L138:
 163:.\RFPoll.c    ****                             }
 1795              		.loc 1 163 0 discriminator 3
 1796 0356 8E49     		ldr	r1, .L203
 1797 0358 1944     		add	r1, r1, r3
 1798 035a 91F80901 		ldrb	r0, [r1, #265]	@ zero_extendqisi2
 1799 035e 8D49     		ldr	r1, .L203+4
 1800 0360 0855     		strb	r0, [r1, r4]
 1801 0362 0134     		adds	r4, r4, #1
 1802              	.LVL244:
 1803 0364 A4B2     		uxth	r4, r4
 1804              	.LVL245:
 162:.\RFPoll.c    ****                                 buffer_tx[y] = side.b.totalsHandle[0][0][x];y++;
 1805              		.loc 1 162 0 discriminator 3
 1806 0366 013B     		subs	r3, r3, #1
 1807              	.LVL246:
 1808 0368 9BB2     		uxth	r3, r3
 1809              	.LVL247:
 1810 036a 00E0     		b	.L136
 1811              	.LVL248:
 1812              	.L195:
 1813 036c 0823     		movs	r3, #8
 1814              	.L136:
 1815              	.LVL249:
 162:.\RFPoll.c    ****                                 buffer_tx[y] = side.b.totalsHandle[0][0][x];y++;
 1816              		.loc 1 162 0 is_stmt 0 discriminator 1
 1817 036e 002B     		cmp	r3, #0
 1818 0370 F1D1     		bne	.L138
 1819 0372 06E0     		b	.L139
 1820              	.L140:
 166:.\RFPoll.c    ****                             }
 1821              		.loc 1 166 0 is_stmt 1 discriminator 3
 1822 0374 3020     		movs	r0, #48
 1823 0376 8749     		ldr	r1, .L203+4
 1824 0378 0855     		strb	r0, [r1, r4]
 1825 037a 0134     		adds	r4, r4, #1
 1826              	.LVL250:
 1827 037c A4B2     		uxth	r4, r4
 1828              	.LVL251:
 165:.\RFPoll.c    ****                                 buffer_tx[y] = 0x30;y++;
 1829              		.loc 1 165 0 discriminator 3
 1830 037e 0133     		adds	r3, r3, #1
 1831              	.LVL252:
 1832 0380 9BB2     		uxth	r3, r3
 1833              	.LVL253:
 1834              	.L139:
 165:.\RFPoll.c    ****                                 buffer_tx[y] = 0x30;y++;
 1835              		.loc 1 165 0 is_stmt 0 discriminator 1
 1836 0382 032B     		cmp	r3, #3
 1837 0384 F6D9     		bls	.L140
 1838 0386 0823     		movs	r3, #8
 1839              	.LVL254:
 1840 0388 09E0     		b	.L141
ARM GAS  C:\Users\RECEPC~1\AppData\Local\Temp\ccIFDC7N.s 			page 47


 1841              	.LVL255:
 1842              	.L142:
 169:.\RFPoll.c    ****                             }
 1843              		.loc 1 169 0 is_stmt 1 discriminator 3
 1844 038a 8149     		ldr	r1, .L203
 1845 038c 1944     		add	r1, r1, r3
 1846 038e 91F81801 		ldrb	r0, [r1, #280]	@ zero_extendqisi2
 1847 0392 8049     		ldr	r1, .L203+4
 1848 0394 0855     		strb	r0, [r1, r4]
 1849 0396 0134     		adds	r4, r4, #1
 1850              	.LVL256:
 1851 0398 A4B2     		uxth	r4, r4
 1852              	.LVL257:
 168:.\RFPoll.c    ****                                 buffer_tx[y] = side.b.totalsHandle[0][1][x];y++;
 1853              		.loc 1 168 0 discriminator 3
 1854 039a 013B     		subs	r3, r3, #1
 1855              	.LVL258:
 1856 039c 9BB2     		uxth	r3, r3
 1857              	.LVL259:
 1858              	.L141:
 168:.\RFPoll.c    ****                                 buffer_tx[y] = side.b.totalsHandle[0][1][x];y++;
 1859              		.loc 1 168 0 is_stmt 0 discriminator 1
 1860 039e 002B     		cmp	r3, #0
 1861 03a0 F3D1     		bne	.L142
 1862 03a2 06E0     		b	.L143
 1863              	.L144:
 172:.\RFPoll.c    ****                             }
 1864              		.loc 1 172 0 is_stmt 1 discriminator 3
 1865 03a4 3020     		movs	r0, #48
 1866 03a6 7B49     		ldr	r1, .L203+4
 1867 03a8 0855     		strb	r0, [r1, r4]
 1868 03aa 0134     		adds	r4, r4, #1
 1869              	.LVL260:
 1870 03ac A4B2     		uxth	r4, r4
 1871              	.LVL261:
 171:.\RFPoll.c    ****                                 buffer_tx[y] = 0x30;y++;
 1872              		.loc 1 171 0 discriminator 3
 1873 03ae 0133     		adds	r3, r3, #1
 1874              	.LVL262:
 1875 03b0 9BB2     		uxth	r3, r3
 1876              	.LVL263:
 1877              	.L143:
 171:.\RFPoll.c    ****                                 buffer_tx[y] = 0x30;y++;
 1878              		.loc 1 171 0 is_stmt 0 discriminator 1
 1879 03b2 032B     		cmp	r3, #3
 1880 03b4 F6D9     		bls	.L144
 1881 03b6 19E0     		b	.L145
 1882              	.L146:
 176:.\RFPoll.c    ****                             }                        
 1883              		.loc 1 176 0 is_stmt 1 discriminator 3
 1884 03b8 7549     		ldr	r1, .L203
 1885 03ba 1944     		add	r1, r1, r3
 1886 03bc 91F80901 		ldrb	r0, [r1, #265]	@ zero_extendqisi2
 1887 03c0 7449     		ldr	r1, .L203+4
 1888 03c2 0855     		strb	r0, [r1, r4]
 1889 03c4 0134     		adds	r4, r4, #1
 1890              	.LVL264:
ARM GAS  C:\Users\RECEPC~1\AppData\Local\Temp\ccIFDC7N.s 			page 48


 1891 03c6 A4B2     		uxth	r4, r4
 1892              	.LVL265:
 175:.\RFPoll.c    ****                                 buffer_tx[y] = side.b.totalsHandle[0][0][x];y++;
 1893              		.loc 1 175 0 discriminator 3
 1894 03c8 013B     		subs	r3, r3, #1
 1895              	.LVL266:
 1896 03ca 9BB2     		uxth	r3, r3
 1897              	.LVL267:
 1898              	.L137:
 175:.\RFPoll.c    ****                                 buffer_tx[y] = side.b.totalsHandle[0][0][x];y++;
 1899              		.loc 1 175 0 is_stmt 0 discriminator 1
 1900 03cc 002B     		cmp	r3, #0
 1901 03ce F3D1     		bne	.L146
 1902 03d0 0C23     		movs	r3, #12
 1903              	.LVL268:
 1904 03d2 09E0     		b	.L147
 1905              	.LVL269:
 1906              	.L148:
 179:.\RFPoll.c    ****                             }                        
 1907              		.loc 1 179 0 is_stmt 1 discriminator 3
 1908 03d4 6E49     		ldr	r1, .L203
 1909 03d6 1944     		add	r1, r1, r3
 1910 03d8 91F81801 		ldrb	r0, [r1, #280]	@ zero_extendqisi2
 1911 03dc 6D49     		ldr	r1, .L203+4
 1912 03de 0855     		strb	r0, [r1, r4]
 1913 03e0 0134     		adds	r4, r4, #1
 1914              	.LVL270:
 1915 03e2 A4B2     		uxth	r4, r4
 1916              	.LVL271:
 178:.\RFPoll.c    ****                                 buffer_tx[y] = side.b.totalsHandle[0][1][x];y++;
 1917              		.loc 1 178 0 discriminator 3
 1918 03e4 013B     		subs	r3, r3, #1
 1919              	.LVL272:
 1920 03e6 9BB2     		uxth	r3, r3
 1921              	.LVL273:
 1922              	.L147:
 178:.\RFPoll.c    ****                                 buffer_tx[y] = side.b.totalsHandle[0][1][x];y++;
 1923              		.loc 1 178 0 is_stmt 0 discriminator 1
 1924 03e8 002B     		cmp	r3, #0
 1925 03ea F3D1     		bne	.L148
 1926              	.L145:
 159:.\RFPoll.c    ****                         buffer_tx[y] = z; y++;
 1927              		.loc 1 159 0 is_stmt 1 discriminator 2
 1928 03ec 0132     		adds	r2, r2, #1
 1929              	.LVL274:
 1930 03ee 92B2     		uxth	r2, r2
 1931              	.LVL275:
 1932              	.L135:
 159:.\RFPoll.c    ****                         buffer_tx[y] = z; y++;
 1933              		.loc 1 159 0 is_stmt 0 discriminator 1
 1934 03f0 674B     		ldr	r3, .L203
 1935 03f2 93F80A32 		ldrb	r3, [r3, #522]	@ zero_extendqisi2
 1936 03f6 9342     		cmp	r3, r2
 1937 03f8 A1D2     		bcs	.L149
 1938              	.LVL276:
 1939              	.L134:
 184:.\RFPoll.c    ****                 buffer_tx[y] = verificar_check(buffer_tx,y+1);y++;                 
ARM GAS  C:\Users\RECEPC~1\AppData\Local\Temp\ccIFDC7N.s 			page 49


 1940              		.loc 1 184 0 is_stmt 1
 1941 03fa 664E     		ldr	r6, .L203+4
 1942 03fc A4F10903 		sub	r3, r4, #9
 1943 0400 3372     		strb	r3, [r6, #8]
 185:.\RFPoll.c    ****                 for (x = 0; x < y; x++){
 1944              		.loc 1 185 0
 1945 0402 651C     		adds	r5, r4, #1
 1946 0404 ADB2     		uxth	r5, r5
 1947 0406 3046     		mov	r0, r6
 1948 0408 2946     		mov	r1, r5
 1949 040a FFF7FEFF 		bl	verificar_check
 1950              	.LVL277:
 1951 040e 3055     		strb	r0, [r6, r4]
 1952              	.LVL278:
 186:.\RFPoll.c    ****                     RF_Connection_PutChar(buffer_tx[x]);
 1953              		.loc 1 186 0
 1954 0410 0024     		movs	r4, #0
 1955 0412 05E0     		b	.L150
 1956              	.LVL279:
 1957              	.L151:
 187:.\RFPoll.c    ****                 }
 1958              		.loc 1 187 0 discriminator 3
 1959 0414 5F4B     		ldr	r3, .L203+4
 1960 0416 185D     		ldrb	r0, [r3, r4]	@ zero_extendqisi2
 1961 0418 FFF7FEFF 		bl	RF_Connection_PutChar
 1962              	.LVL280:
 186:.\RFPoll.c    ****                     RF_Connection_PutChar(buffer_tx[x]);
 1963              		.loc 1 186 0 discriminator 3
 1964 041c 0134     		adds	r4, r4, #1
 1965              	.LVL281:
 1966 041e A4B2     		uxth	r4, r4
 1967              	.LVL282:
 1968              	.L150:
 186:.\RFPoll.c    ****                     RF_Connection_PutChar(buffer_tx[x]);
 1969              		.loc 1 186 0 is_stmt 0 discriminator 1
 1970 0420 AC42     		cmp	r4, r5
 1971 0422 F7D3     		bcc	.L151
 1972 0424 CAE1     		b	.L97
 1973              	.LVL283:
 1974              	.L98:
 192:.\RFPoll.c    ****                     for(x=9;x < 14 ; x++ ){
 1975              		.loc 1 192 0 is_stmt 1
 1976 0426 5C4B     		ldr	r3, .L203+8
 1977 0428 5A79     		ldrb	r2, [r3, #5]	@ zero_extendqisi2
 1978 042a 594B     		ldr	r3, .L203
 1979 042c 1878     		ldrb	r0, [r3]	@ zero_extendqisi2
 1980 042e 8242     		cmp	r2, r0
 1981 0430 0DD0     		beq	.L196
  70:.\RFPoll.c    ****         if(((buffer_rf[0]==0xBC)&&(buffer_rf[1]==0xBB)&&(buffer_rf[2]==0xB8)&&(buffer_rf[3]==IDCast
 1982              		.loc 1 70 0
 1983 0432 0524     		movs	r4, #5
 1984              	.LVL284:
 1985 0434 1DE0     		b	.L153
 1986              	.LVL285:
 1987              	.L154:
 194:.\RFPoll.c    ****                     }
 1988              		.loc 1 194 0 discriminator 3
ARM GAS  C:\Users\RECEPC~1\AppData\Local\Temp\ccIFDC7N.s 			page 50


 1989 0436 584C     		ldr	r4, .L203+8
 1990 0438 257A     		ldrb	r5, [r4, #8]	@ zero_extendqisi2
 1991 043a E45C     		ldrb	r4, [r4, r3]	@ zero_extendqisi2
 1992 043c 5449     		ldr	r1, .L203
 1993 043e 01EBC501 		add	r1, r1, r5, lsl #3
 1994 0442 1944     		add	r1, r1, r3
 1995 0444 81F8AC40 		strb	r4, [r1, #172]
 193:.\RFPoll.c    ****                         side.a.ppuAuthorized[buffer_rf[8]][x-9] = buffer_rf[x];
 1996              		.loc 1 193 0 discriminator 3
 1997 0448 0133     		adds	r3, r3, #1
 1998              	.LVL286:
 1999 044a 9BB2     		uxth	r3, r3
 2000              	.LVL287:
 2001 044c 00E0     		b	.L152
 2002              	.LVL288:
 2003              	.L196:
 2004 044e 0923     		movs	r3, #9
 2005              	.LVL289:
 2006              	.L152:
 193:.\RFPoll.c    ****                         side.a.ppuAuthorized[buffer_rf[8]][x-9] = buffer_rf[x];
 2007              		.loc 1 193 0 is_stmt 0 discriminator 1
 2008 0450 0D2B     		cmp	r3, #13
 2009 0452 F0D9     		bls	.L154
 196:.\RFPoll.c    ****                     side.a.grade = buffer_rf[8];
 2010              		.loc 1 196 0 is_stmt 1
 2011 0454 4E4B     		ldr	r3, .L203
 2012              	.LVL290:
 2013 0456 0121     		movs	r1, #1
 2014 0458 83F80511 		strb	r1, [r3, #261]
 197:.\RFPoll.c    ****                     buffer_tx[5] = side.a.dir;y++;
 2015              		.loc 1 197 0
 2016 045c 4E49     		ldr	r1, .L203+8
 2017 045e 097A     		ldrb	r1, [r1, #8]	@ zero_extendqisi2
 2018 0460 83F80611 		strb	r1, [r3, #262]
 198:.\RFPoll.c    ****                     buffer_tx[y] = 0xA6;y++;
 2019              		.loc 1 198 0
 2020 0464 4B4B     		ldr	r3, .L203+4
 2021 0466 5871     		strb	r0, [r3, #5]
 2022              	.LVL291:
 199:.\RFPoll.c    ****                     buffer_tx[y] = 0x03;y++;
 2023              		.loc 1 199 0
 2024 0468 A621     		movs	r1, #166
 2025 046a 9971     		strb	r1, [r3, #6]
 2026              	.LVL292:
 200:.\RFPoll.c    ****                 } 
 2027              		.loc 1 200 0
 2028 046c 0321     		movs	r1, #3
 2029 046e D971     		strb	r1, [r3, #7]
 2030              	.LVL293:
 2031 0470 0824     		movs	r4, #8
 2032              	.LVL294:
 2033              	.L153:
 202:.\RFPoll.c    ****                     for(x=9;x < 14 ; x++ ){
 2034              		.loc 1 202 0
 2035 0472 474B     		ldr	r3, .L203
 2036 0474 93F80801 		ldrb	r0, [r3, #264]	@ zero_extendqisi2
 2037 0478 8242     		cmp	r2, r0
ARM GAS  C:\Users\RECEPC~1\AppData\Local\Temp\ccIFDC7N.s 			page 51


 2038 047a 23D1     		bne	.L156
 2039 047c 0BE0     		b	.L197
 2040              	.LVL295:
 2041              	.L157:
 204:.\RFPoll.c    ****                     }
 2042              		.loc 1 204 0 discriminator 3
 2043 047e 464D     		ldr	r5, .L203+8
 2044 0480 2E7A     		ldrb	r6, [r5, #8]	@ zero_extendqisi2
 2045 0482 ED5C     		ldrb	r5, [r5, r3]	@ zero_extendqisi2
 2046 0484 4249     		ldr	r1, .L203
 2047 0486 01EBC601 		add	r1, r1, r6, lsl #3
 2048 048a 1944     		add	r1, r1, r3
 2049 048c 81F8B451 		strb	r5, [r1, #436]
 203:.\RFPoll.c    ****                         side.b.ppuAuthorized[buffer_rf[8]][x-9] = buffer_rf[x];
 2050              		.loc 1 203 0 discriminator 3
 2051 0490 0133     		adds	r3, r3, #1
 2052              	.LVL296:
 2053 0492 9BB2     		uxth	r3, r3
 2054              	.LVL297:
 2055 0494 00E0     		b	.L155
 2056              	.LVL298:
 2057              	.L197:
 2058 0496 0923     		movs	r3, #9
 2059              	.L155:
 2060              	.LVL299:
 203:.\RFPoll.c    ****                         side.b.ppuAuthorized[buffer_rf[8]][x-9] = buffer_rf[x];
 2061              		.loc 1 203 0 is_stmt 0 discriminator 1
 2062 0498 0D2B     		cmp	r3, #13
 2063 049a F0D9     		bls	.L157
 206:.\RFPoll.c    ****                     side.b.grade = buffer_rf[8];
 2064              		.loc 1 206 0 is_stmt 1
 2065 049c 3C4B     		ldr	r3, .L203
 2066              	.LVL300:
 2067 049e 0121     		movs	r1, #1
 2068 04a0 83F80D12 		strb	r1, [r3, #525]
 207:.\RFPoll.c    ****                     buffer_tx[5] = side.b.dir; y++;
 2069              		.loc 1 207 0
 2070 04a4 3C49     		ldr	r1, .L203+8
 2071 04a6 097A     		ldrb	r1, [r1, #8]	@ zero_extendqisi2
 2072 04a8 83F80E12 		strb	r1, [r3, #526]
 208:.\RFPoll.c    ****                     buffer_tx[y] = 0xA6;y++;
 2073              		.loc 1 208 0
 2074 04ac 3949     		ldr	r1, .L203+4
 2075 04ae 4871     		strb	r0, [r1, #5]
 2076 04b0 631C     		adds	r3, r4, #1
 2077 04b2 9BB2     		uxth	r3, r3
 2078              	.LVL301:
 209:.\RFPoll.c    ****                     buffer_tx[y] = 0x03;y++;
 2079              		.loc 1 209 0
 2080 04b4 A620     		movs	r0, #166
 2081 04b6 C854     		strb	r0, [r1, r3]
 2082 04b8 0133     		adds	r3, r3, #1
 2083              	.LVL302:
 2084 04ba 9BB2     		uxth	r3, r3
 2085              	.LVL303:
 210:.\RFPoll.c    ****                 } 
 2086              		.loc 1 210 0
ARM GAS  C:\Users\RECEPC~1\AppData\Local\Temp\ccIFDC7N.s 			page 52


 2087 04bc 0320     		movs	r0, #3
 2088 04be C854     		strb	r0, [r1, r3]
 2089 04c0 0133     		adds	r3, r3, #1
 2090              	.LVL304:
 2091 04c2 9CB2     		uxth	r4, r3
 2092              	.LVL305:
 2093              	.L156:
 212:.\RFPoll.c    ****                     for(x=9;x < 14 ; x++ ){
 2094              		.loc 1 212 0
 2095 04c4 324B     		ldr	r3, .L203
 2096 04c6 93F81002 		ldrb	r0, [r3, #528]	@ zero_extendqisi2
 2097 04ca 8242     		cmp	r2, r0
 2098 04cc 23D1     		bne	.L159
 2099 04ce 0BE0     		b	.L198
 2100              	.LVL306:
 2101              	.L160:
 214:.\RFPoll.c    ****                     }
 2102              		.loc 1 214 0 discriminator 3
 2103 04d0 314D     		ldr	r5, .L203+8
 2104 04d2 2E7A     		ldrb	r6, [r5, #8]	@ zero_extendqisi2
 2105 04d4 ED5C     		ldrb	r5, [r5, r3]	@ zero_extendqisi2
 2106 04d6 2E49     		ldr	r1, .L203
 2107 04d8 01EBC601 		add	r1, r1, r6, lsl #3
 2108 04dc 1944     		add	r1, r1, r3
 2109 04de 81F8BC52 		strb	r5, [r1, #700]
 213:.\RFPoll.c    ****                         side.c.ppuAuthorized[buffer_rf[8]][x-9] = buffer_rf[x];
 2110              		.loc 1 213 0 discriminator 3
 2111 04e2 0133     		adds	r3, r3, #1
 2112              	.LVL307:
 2113 04e4 9BB2     		uxth	r3, r3
 2114              	.LVL308:
 2115 04e6 00E0     		b	.L158
 2116              	.LVL309:
 2117              	.L198:
 2118 04e8 0923     		movs	r3, #9
 2119              	.L158:
 2120              	.LVL310:
 213:.\RFPoll.c    ****                         side.c.ppuAuthorized[buffer_rf[8]][x-9] = buffer_rf[x];
 2121              		.loc 1 213 0 is_stmt 0 discriminator 1
 2122 04ea 0D2B     		cmp	r3, #13
 2123 04ec F0D9     		bls	.L160
 216:.\RFPoll.c    ****                     side.c.grade = buffer_rf[8];
 2124              		.loc 1 216 0 is_stmt 1
 2125 04ee 284B     		ldr	r3, .L203
 2126              	.LVL311:
 2127 04f0 0121     		movs	r1, #1
 2128 04f2 83F81513 		strb	r1, [r3, #789]
 217:.\RFPoll.c    ****                     buffer_tx[5] = side.c.dir; y++;
 2129              		.loc 1 217 0
 2130 04f6 2849     		ldr	r1, .L203+8
 2131 04f8 097A     		ldrb	r1, [r1, #8]	@ zero_extendqisi2
 2132 04fa 83F81613 		strb	r1, [r3, #790]
 218:.\RFPoll.c    ****                     buffer_tx[y] = 0xA6;y++;
 2133              		.loc 1 218 0
 2134 04fe 2549     		ldr	r1, .L203+4
 2135 0500 4871     		strb	r0, [r1, #5]
 2136 0502 631C     		adds	r3, r4, #1
ARM GAS  C:\Users\RECEPC~1\AppData\Local\Temp\ccIFDC7N.s 			page 53


 2137 0504 9BB2     		uxth	r3, r3
 2138              	.LVL312:
 219:.\RFPoll.c    ****                     buffer_tx[y] = 0x03;y++;
 2139              		.loc 1 219 0
 2140 0506 A620     		movs	r0, #166
 2141 0508 C854     		strb	r0, [r1, r3]
 2142 050a 0133     		adds	r3, r3, #1
 2143              	.LVL313:
 2144 050c 9BB2     		uxth	r3, r3
 2145              	.LVL314:
 220:.\RFPoll.c    ****                 } 
 2146              		.loc 1 220 0
 2147 050e 0320     		movs	r0, #3
 2148 0510 C854     		strb	r0, [r1, r3]
 2149 0512 0133     		adds	r3, r3, #1
 2150              	.LVL315:
 2151 0514 9CB2     		uxth	r4, r3
 2152              	.LVL316:
 2153              	.L159:
 222:.\RFPoll.c    ****                     for(x=9;x < 14 ; x++ ){
 2154              		.loc 1 222 0
 2155 0516 1E4B     		ldr	r3, .L203
 2156 0518 93F81813 		ldrb	r1, [r3, #792]	@ zero_extendqisi2
 2157 051c 8A42     		cmp	r2, r1
 2158 051e 23D1     		bne	.L162
 2159 0520 0BE0     		b	.L199
 2160              	.LVL317:
 2161              	.L163:
 224:.\RFPoll.c    ****                     }
 2162              		.loc 1 224 0 discriminator 3
 2163 0522 1D48     		ldr	r0, .L203+8
 2164 0524 057A     		ldrb	r5, [r0, #8]	@ zero_extendqisi2
 2165 0526 C05C     		ldrb	r0, [r0, r3]	@ zero_extendqisi2
 2166 0528 194A     		ldr	r2, .L203
 2167 052a 02EBC502 		add	r2, r2, r5, lsl #3
 2168 052e 1A44     		add	r2, r2, r3
 2169 0530 82F8C403 		strb	r0, [r2, #964]
 223:.\RFPoll.c    ****                         side.d.ppuAuthorized[buffer_rf[8]][x-9] = buffer_rf[x];
 2170              		.loc 1 223 0 discriminator 3
 2171 0534 0133     		adds	r3, r3, #1
 2172              	.LVL318:
 2173 0536 9BB2     		uxth	r3, r3
 2174              	.LVL319:
 2175 0538 00E0     		b	.L161
 2176              	.LVL320:
 2177              	.L199:
 2178 053a 0923     		movs	r3, #9
 2179              	.L161:
 2180              	.LVL321:
 223:.\RFPoll.c    ****                         side.d.ppuAuthorized[buffer_rf[8]][x-9] = buffer_rf[x];
 2181              		.loc 1 223 0 is_stmt 0 discriminator 1
 2182 053c 0D2B     		cmp	r3, #13
 2183 053e F0D9     		bls	.L163
 226:.\RFPoll.c    ****                     side.d.grade = buffer_rf[8];
 2184              		.loc 1 226 0 is_stmt 1
 2185 0540 134B     		ldr	r3, .L203
 2186              	.LVL322:
ARM GAS  C:\Users\RECEPC~1\AppData\Local\Temp\ccIFDC7N.s 			page 54


 2187 0542 0122     		movs	r2, #1
 2188 0544 83F81D24 		strb	r2, [r3, #1053]
 227:.\RFPoll.c    ****                     buffer_tx[5] = side.d.dir; y++;
 2189              		.loc 1 227 0
 2190 0548 134A     		ldr	r2, .L203+8
 2191 054a 127A     		ldrb	r2, [r2, #8]	@ zero_extendqisi2
 2192 054c 83F81E24 		strb	r2, [r3, #1054]
 228:.\RFPoll.c    ****                     buffer_tx[y] = 0xA6;y++;
 2193              		.loc 1 228 0
 2194 0550 104A     		ldr	r2, .L203+4
 2195 0552 5171     		strb	r1, [r2, #5]
 2196 0554 631C     		adds	r3, r4, #1
 2197 0556 9BB2     		uxth	r3, r3
 2198              	.LVL323:
 229:.\RFPoll.c    ****                     buffer_tx[y] = 0x03;y++;
 2199              		.loc 1 229 0
 2200 0558 A621     		movs	r1, #166
 2201 055a D154     		strb	r1, [r2, r3]
 2202 055c 0133     		adds	r3, r3, #1
 2203              	.LVL324:
 2204 055e 9BB2     		uxth	r3, r3
 2205              	.LVL325:
 230:.\RFPoll.c    ****                 }
 2206              		.loc 1 230 0
 2207 0560 0321     		movs	r1, #3
 2208 0562 D154     		strb	r1, [r2, r3]
 2209 0564 0133     		adds	r3, r3, #1
 2210              	.LVL326:
 2211 0566 9CB2     		uxth	r4, r3
 2212              	.LVL327:
 2213              	.L162:
 232:.\RFPoll.c    ****                 for (x = 0; x < y; x++){
 2214              		.loc 1 232 0
 2215 0568 651C     		adds	r5, r4, #1
 2216 056a ADB2     		uxth	r5, r5
 2217 056c 094E     		ldr	r6, .L203+4
 2218 056e 3046     		mov	r0, r6
 2219 0570 2946     		mov	r1, r5
 2220 0572 FFF7FEFF 		bl	verificar_check
 2221              	.LVL328:
 2222 0576 3055     		strb	r0, [r6, r4]
 2223              	.LVL329:
 233:.\RFPoll.c    ****                     RF_Connection_PutChar(buffer_tx[x]);
 2224              		.loc 1 233 0
 2225 0578 0024     		movs	r4, #0
 2226 057a 05E0     		b	.L164
 2227              	.LVL330:
 2228              	.L165:
 234:.\RFPoll.c    ****                 }
 2229              		.loc 1 234 0 discriminator 3
 2230 057c 054B     		ldr	r3, .L203+4
 2231 057e 185D     		ldrb	r0, [r3, r4]	@ zero_extendqisi2
 2232 0580 FFF7FEFF 		bl	RF_Connection_PutChar
 2233              	.LVL331:
 233:.\RFPoll.c    ****                     RF_Connection_PutChar(buffer_tx[x]);
 2234              		.loc 1 233 0 discriminator 3
 2235 0584 0134     		adds	r4, r4, #1
ARM GAS  C:\Users\RECEPC~1\AppData\Local\Temp\ccIFDC7N.s 			page 55


 2236              	.LVL332:
 2237 0586 A4B2     		uxth	r4, r4
 2238              	.LVL333:
 2239              	.L164:
 233:.\RFPoll.c    ****                     RF_Connection_PutChar(buffer_tx[x]);
 2240              		.loc 1 233 0 is_stmt 0 discriminator 1
 2241 0588 AC42     		cmp	r4, r5
 2242 058a F7D3     		bcc	.L165
 2243 058c 16E1     		b	.L97
 2244              	.L204:
 2245 058e 00BF     		.align	2
 2246              	.L203:
 2247 0590 00000000 		.word	side
 2248 0594 00000000 		.word	buffer_tx
 2249 0598 00000000 		.word	buffer_rf
 2250 059c 00000000 		.word	digits
 2251              	.LVL334:
 2252              	.L104:
 240:.\RFPoll.c    ****                     buffer_tx[5] = side.a.dir;
 2253              		.loc 1 240 0 is_stmt 1
 2254 05a0 884B     		ldr	r3, .L205
 2255 05a2 5B79     		ldrb	r3, [r3, #5]	@ zero_extendqisi2
 2256 05a4 884A     		ldr	r2, .L205+4
 2257 05a6 1178     		ldrb	r1, [r2]	@ zero_extendqisi2
 2258 05a8 8B42     		cmp	r3, r1
 2259 05aa 07D1     		bne	.L166
 241:.\RFPoll.c    ****                     buffer_tx[6] = 0xA7;
 2260              		.loc 1 241 0
 2261 05ac 874A     		ldr	r2, .L205+8
 2262 05ae 5171     		strb	r1, [r2, #5]
 242:.\RFPoll.c    ****                     buffer_tx[7] = side.a.rfState;
 2263              		.loc 1 242 0
 2264 05b0 A721     		movs	r1, #167
 2265 05b2 9171     		strb	r1, [r2, #6]
 243:.\RFPoll.c    ****                 }  
 2266              		.loc 1 243 0
 2267 05b4 8449     		ldr	r1, .L205+4
 2268 05b6 91F80311 		ldrb	r1, [r1, #259]	@ zero_extendqisi2
 2269 05ba D171     		strb	r1, [r2, #7]
 2270              	.L166:
 245:.\RFPoll.c    ****                     buffer_tx[5] = side.b.dir;
 2271              		.loc 1 245 0
 2272 05bc 824A     		ldr	r2, .L205+4
 2273 05be 92F80811 		ldrb	r1, [r2, #264]	@ zero_extendqisi2
 2274 05c2 8B42     		cmp	r3, r1
 2275 05c4 07D1     		bne	.L167
 246:.\RFPoll.c    ****                     buffer_tx[6] = 0xA7;
 2276              		.loc 1 246 0
 2277 05c6 814A     		ldr	r2, .L205+8
 2278 05c8 5171     		strb	r1, [r2, #5]
 247:.\RFPoll.c    ****                     buffer_tx[7] = side.b.rfState;
 2279              		.loc 1 247 0
 2280 05ca A721     		movs	r1, #167
 2281 05cc 9171     		strb	r1, [r2, #6]
 248:.\RFPoll.c    ****                 }
 2282              		.loc 1 248 0
 2283 05ce 7E49     		ldr	r1, .L205+4
ARM GAS  C:\Users\RECEPC~1\AppData\Local\Temp\ccIFDC7N.s 			page 56


 2284 05d0 91F80B12 		ldrb	r1, [r1, #523]	@ zero_extendqisi2
 2285 05d4 D171     		strb	r1, [r2, #7]
 2286              	.L167:
 250:.\RFPoll.c    ****                     buffer_tx[5] = side.c.dir;
 2287              		.loc 1 250 0
 2288 05d6 7C4A     		ldr	r2, .L205+4
 2289 05d8 92F81012 		ldrb	r1, [r2, #528]	@ zero_extendqisi2
 2290 05dc 8B42     		cmp	r3, r1
 2291 05de 07D1     		bne	.L168
 251:.\RFPoll.c    ****                     buffer_tx[6] = 0xA7;
 2292              		.loc 1 251 0
 2293 05e0 7A4A     		ldr	r2, .L205+8
 2294 05e2 5171     		strb	r1, [r2, #5]
 252:.\RFPoll.c    ****                     buffer_tx[7] = side.c.rfState;
 2295              		.loc 1 252 0
 2296 05e4 A721     		movs	r1, #167
 2297 05e6 9171     		strb	r1, [r2, #6]
 253:.\RFPoll.c    ****                 }
 2298              		.loc 1 253 0
 2299 05e8 7749     		ldr	r1, .L205+4
 2300 05ea 91F81313 		ldrb	r1, [r1, #787]	@ zero_extendqisi2
 2301 05ee D171     		strb	r1, [r2, #7]
 2302              	.L168:
 255:.\RFPoll.c    ****                     buffer_tx[5] = side.d.dir;
 2303              		.loc 1 255 0
 2304 05f0 754A     		ldr	r2, .L205+4
 2305 05f2 92F81823 		ldrb	r2, [r2, #792]	@ zero_extendqisi2
 2306 05f6 9342     		cmp	r3, r2
 2307 05f8 07D1     		bne	.L169
 256:.\RFPoll.c    ****                     buffer_tx[6] = 0xA7;
 2308              		.loc 1 256 0
 2309 05fa 744B     		ldr	r3, .L205+8
 2310 05fc 5A71     		strb	r2, [r3, #5]
 257:.\RFPoll.c    ****                     buffer_tx[7] = side.d.rfState;
 2311              		.loc 1 257 0
 2312 05fe A722     		movs	r2, #167
 2313 0600 9A71     		strb	r2, [r3, #6]
 258:.\RFPoll.c    ****                 }
 2314              		.loc 1 258 0
 2315 0602 714A     		ldr	r2, .L205+4
 2316 0604 92F81B24 		ldrb	r2, [r2, #1051]	@ zero_extendqisi2
 2317 0608 DA71     		strb	r2, [r3, #7]
 2318              	.L169:
 260:.\RFPoll.c    ****                 for (x = 0; x < 9; x++){
 2319              		.loc 1 260 0
 2320 060a 704C     		ldr	r4, .L205+8
 2321              	.LVL335:
 2322 060c 2046     		mov	r0, r4
 2323 060e 0921     		movs	r1, #9
 2324 0610 FFF7FEFF 		bl	verificar_check
 2325              	.LVL336:
 2326 0614 2072     		strb	r0, [r4, #8]
 2327              	.LVL337:
 261:.\RFPoll.c    ****                     RF_Connection_PutChar(buffer_tx[x]);
 2328              		.loc 1 261 0
 2329 0616 0024     		movs	r4, #0
 2330 0618 05E0     		b	.L170
ARM GAS  C:\Users\RECEPC~1\AppData\Local\Temp\ccIFDC7N.s 			page 57


 2331              	.LVL338:
 2332              	.L171:
 262:.\RFPoll.c    ****                 }
 2333              		.loc 1 262 0 discriminator 3
 2334 061a 6C4B     		ldr	r3, .L205+8
 2335 061c 185D     		ldrb	r0, [r3, r4]	@ zero_extendqisi2
 2336 061e FFF7FEFF 		bl	RF_Connection_PutChar
 2337              	.LVL339:
 261:.\RFPoll.c    ****                     RF_Connection_PutChar(buffer_tx[x]);
 2338              		.loc 1 261 0 discriminator 3
 2339 0622 0134     		adds	r4, r4, #1
 2340              	.LVL340:
 2341 0624 A4B2     		uxth	r4, r4
 2342              	.LVL341:
 2343              	.L170:
 261:.\RFPoll.c    ****                     RF_Connection_PutChar(buffer_tx[x]);
 2344              		.loc 1 261 0 is_stmt 0 discriminator 1
 2345 0626 082C     		cmp	r4, #8
 2346 0628 F7D9     		bls	.L171
 2347 062a C7E0     		b	.L97
 2348              	.LVL342:
 2349              	.L102:
 271:.\RFPoll.c    ****                 date[0]    = buffer_rf[9];
 2350              		.loc 1 271 0 is_stmt 1
 2351 062c 654B     		ldr	r3, .L205
 2352 062e 197A     		ldrb	r1, [r3, #8]	@ zero_extendqisi2
 2353 0630 674A     		ldr	r2, .L205+12
 2354 0632 5170     		strb	r1, [r2, #1]
 272:.\RFPoll.c    ****                 date[1]    = buffer_rf[10];
 2355              		.loc 1 272 0
 2356 0634 597A     		ldrb	r1, [r3, #9]	@ zero_extendqisi2
 2357 0636 674A     		ldr	r2, .L205+16
 2358 0638 1170     		strb	r1, [r2]
 273:.\RFPoll.c    ****                 date[2]    = buffer_rf[11];
 2359              		.loc 1 273 0
 2360 063a 997A     		ldrb	r1, [r3, #10]	@ zero_extendqisi2
 2361 063c 5170     		strb	r1, [r2, #1]
 274:.\RFPoll.c    ****                 time[1]    = buffer_rf[12];
 2362              		.loc 1 274 0
 2363 063e D97A     		ldrb	r1, [r3, #11]	@ zero_extendqisi2
 2364 0640 9170     		strb	r1, [r2, #2]
 275:.\RFPoll.c    ****                 time[0]    = buffer_rf[13];
 2365              		.loc 1 275 0
 2366 0642 197B     		ldrb	r1, [r3, #12]	@ zero_extendqisi2
 2367 0644 644A     		ldr	r2, .L205+20
 2368 0646 5170     		strb	r1, [r2, #1]
 276:.\RFPoll.c    ****                 for(x = 17; x < 47; x++){
 2369              		.loc 1 276 0
 2370 0648 5B7B     		ldrb	r3, [r3, #13]	@ zero_extendqisi2
 2371 064a 1370     		strb	r3, [r2]
 2372              	.LVL343:
 277:.\RFPoll.c    ****                     Encabezado1[x-17] = buffer_rf[x];
 2373              		.loc 1 277 0
 2374 064c 1123     		movs	r3, #17
 2375 064e 07E0     		b	.L172
 2376              	.LVL344:
 2377              	.L173:
ARM GAS  C:\Users\RECEPC~1\AppData\Local\Temp\ccIFDC7N.s 			page 58


 278:.\RFPoll.c    ****                 }
 2378              		.loc 1 278 0 discriminator 3
 2379 0650 A3F11102 		sub	r2, r3, #17
 2380 0654 5B49     		ldr	r1, .L205
 2381 0656 C85C     		ldrb	r0, [r1, r3]	@ zero_extendqisi2
 2382 0658 6049     		ldr	r1, .L205+24
 2383 065a 8854     		strb	r0, [r1, r2]
 277:.\RFPoll.c    ****                     Encabezado1[x-17] = buffer_rf[x];
 2384              		.loc 1 277 0 discriminator 3
 2385 065c 0133     		adds	r3, r3, #1
 2386              	.LVL345:
 2387 065e 9BB2     		uxth	r3, r3
 2388              	.LVL346:
 2389              	.L172:
 277:.\RFPoll.c    ****                     Encabezado1[x-17] = buffer_rf[x];
 2390              		.loc 1 277 0 is_stmt 0 discriminator 1
 2391 0660 2E2B     		cmp	r3, #46
 2392 0662 F5D9     		bls	.L173
 2393 0664 2F23     		movs	r3, #47
 2394              	.LVL347:
 2395 0666 07E0     		b	.L174
 2396              	.LVL348:
 2397              	.L175:
 281:.\RFPoll.c    ****                 }
 2398              		.loc 1 281 0 is_stmt 1 discriminator 3
 2399 0668 A3F12F02 		sub	r2, r3, #47
 2400 066c 5549     		ldr	r1, .L205
 2401 066e C85C     		ldrb	r0, [r1, r3]	@ zero_extendqisi2
 2402 0670 5B49     		ldr	r1, .L205+28
 2403 0672 8854     		strb	r0, [r1, r2]
 280:.\RFPoll.c    ****                     Encabezado2[x-47] = buffer_rf[x];
 2404              		.loc 1 280 0 discriminator 3
 2405 0674 0133     		adds	r3, r3, #1
 2406              	.LVL349:
 2407 0676 9BB2     		uxth	r3, r3
 2408              	.LVL350:
 2409              	.L174:
 280:.\RFPoll.c    ****                     Encabezado2[x-47] = buffer_rf[x];
 2410              		.loc 1 280 0 is_stmt 0 discriminator 1
 2411 0678 4C2B     		cmp	r3, #76
 2412 067a F5D9     		bls	.L175
 2413 067c 4D23     		movs	r3, #77
 2414              	.LVL351:
 2415 067e 07E0     		b	.L176
 2416              	.LVL352:
 2417              	.L177:
 284:.\RFPoll.c    ****                 }
 2418              		.loc 1 284 0 is_stmt 1 discriminator 3
 2419 0680 A3F14D02 		sub	r2, r3, #77
 2420 0684 4F49     		ldr	r1, .L205
 2421 0686 C85C     		ldrb	r0, [r1, r3]	@ zero_extendqisi2
 2422 0688 5649     		ldr	r1, .L205+32
 2423 068a 8854     		strb	r0, [r1, r2]
 283:.\RFPoll.c    ****                     Encabezado3[x-77] = buffer_rf[x];
 2424              		.loc 1 283 0 discriminator 3
 2425 068c 0133     		adds	r3, r3, #1
 2426              	.LVL353:
ARM GAS  C:\Users\RECEPC~1\AppData\Local\Temp\ccIFDC7N.s 			page 59


 2427 068e 9BB2     		uxth	r3, r3
 2428              	.LVL354:
 2429              	.L176:
 283:.\RFPoll.c    ****                     Encabezado3[x-77] = buffer_rf[x];
 2430              		.loc 1 283 0 is_stmt 0 discriminator 1
 2431 0690 6A2B     		cmp	r3, #106
 2432 0692 F5D9     		bls	.L177
 2433 0694 6B23     		movs	r3, #107
 2434              	.LVL355:
 2435 0696 07E0     		b	.L178
 2436              	.LVL356:
 2437              	.L179:
 287:.\RFPoll.c    ****                 }
 2438              		.loc 1 287 0 is_stmt 1 discriminator 3
 2439 0698 A3F14D02 		sub	r2, r3, #77
 2440 069c 4949     		ldr	r1, .L205
 2441 069e C85C     		ldrb	r0, [r1, r3]	@ zero_extendqisi2
 2442 06a0 5149     		ldr	r1, .L205+36
 2443 06a2 8854     		strb	r0, [r1, r2]
 286:.\RFPoll.c    ****                     Encabezado4[x-77] = buffer_rf[x];
 2444              		.loc 1 286 0 discriminator 3
 2445 06a4 0133     		adds	r3, r3, #1
 2446              	.LVL357:
 2447 06a6 9BB2     		uxth	r3, r3
 2448              	.LVL358:
 2449              	.L178:
 286:.\RFPoll.c    ****                     Encabezado4[x-77] = buffer_rf[x];
 2450              		.loc 1 286 0 is_stmt 0 discriminator 1
 2451 06a8 882B     		cmp	r3, #136
 2452 06aa F5D9     		bls	.L179
 289:.\RFPoll.c    ****                 write_hora();
 2453              		.loc 1 289 0 is_stmt 1
 2454 06ac 454B     		ldr	r3, .L205
 2455              	.LVL359:
 2456 06ae 1A7C     		ldrb	r2, [r3, #16]	@ zero_extendqisi2
 2457 06b0 4E4B     		ldr	r3, .L205+40
 2458 06b2 1A70     		strb	r2, [r3]
 290:.\RFPoll.c    ****                 write_fecha(); 
 2459              		.loc 1 290 0
 2460 06b4 FFF7FEFF 		bl	write_hora
 2461              	.LVL360:
 291:.\RFPoll.c    ****                 for(x =0 ; x <30; x++){
 2462              		.loc 1 291 0
 2463 06b8 FFF7FEFF 		bl	write_fecha
 2464              	.LVL361:
 292:.\RFPoll.c    ****                     EEPROM_1_WriteByte(Encabezado1[x],16+x);
 2465              		.loc 1 292 0
 2466 06bc 0024     		movs	r4, #0
 2467              	.LVL362:
 2468 06be 08E0     		b	.L180
 2469              	.LVL363:
 2470              	.L181:
 293:.\RFPoll.c    ****                 }
 2471              		.loc 1 293 0 discriminator 3
 2472 06c0 04F11001 		add	r1, r4, #16
 2473 06c4 454B     		ldr	r3, .L205+24
 2474 06c6 185D     		ldrb	r0, [r3, r4]	@ zero_extendqisi2
ARM GAS  C:\Users\RECEPC~1\AppData\Local\Temp\ccIFDC7N.s 			page 60


 2475 06c8 89B2     		uxth	r1, r1
 2476 06ca FFF7FEFF 		bl	EEPROM_1_WriteByte
 2477              	.LVL364:
 292:.\RFPoll.c    ****                     EEPROM_1_WriteByte(Encabezado1[x],16+x);
 2478              		.loc 1 292 0 discriminator 3
 2479 06ce 0134     		adds	r4, r4, #1
 2480              	.LVL365:
 2481 06d0 A4B2     		uxth	r4, r4
 2482              	.LVL366:
 2483              	.L180:
 292:.\RFPoll.c    ****                     EEPROM_1_WriteByte(Encabezado1[x],16+x);
 2484              		.loc 1 292 0 is_stmt 0 discriminator 1
 2485 06d2 1D2C     		cmp	r4, #29
 2486 06d4 F4D9     		bls	.L181
 2487 06d6 1E24     		movs	r4, #30
 2488              	.LVL367:
 2489 06d8 0AE0     		b	.L182
 2490              	.LVL368:
 2491              	.L183:
 296:.\RFPoll.c    ****                 }
 2492              		.loc 1 296 0 is_stmt 1 discriminator 3
 2493 06da A4F11E03 		sub	r3, r4, #30
 2494 06de 04F11001 		add	r1, r4, #16
 2495 06e2 3F4A     		ldr	r2, .L205+28
 2496 06e4 D05C     		ldrb	r0, [r2, r3]	@ zero_extendqisi2
 2497 06e6 89B2     		uxth	r1, r1
 2498 06e8 FFF7FEFF 		bl	EEPROM_1_WriteByte
 2499              	.LVL369:
 295:.\RFPoll.c    ****                     EEPROM_1_WriteByte(Encabezado2[x-30],16+x);
 2500              		.loc 1 295 0 discriminator 3
 2501 06ec 0134     		adds	r4, r4, #1
 2502              	.LVL370:
 2503 06ee A4B2     		uxth	r4, r4
 2504              	.LVL371:
 2505              	.L182:
 295:.\RFPoll.c    ****                     EEPROM_1_WriteByte(Encabezado2[x-30],16+x);
 2506              		.loc 1 295 0 is_stmt 0 discriminator 1
 2507 06f0 3B2C     		cmp	r4, #59
 2508 06f2 F2D9     		bls	.L183
 2509 06f4 3C24     		movs	r4, #60
 2510              	.LVL372:
 2511 06f6 0AE0     		b	.L184
 2512              	.LVL373:
 2513              	.L185:
 299:.\RFPoll.c    ****                 }
 2514              		.loc 1 299 0 is_stmt 1 discriminator 3
 2515 06f8 A4F11E03 		sub	r3, r4, #30
 2516 06fc 04F11001 		add	r1, r4, #16
 2517 0700 384A     		ldr	r2, .L205+32
 2518 0702 D05C     		ldrb	r0, [r2, r3]	@ zero_extendqisi2
 2519 0704 89B2     		uxth	r1, r1
 2520 0706 FFF7FEFF 		bl	EEPROM_1_WriteByte
 2521              	.LVL374:
 298:.\RFPoll.c    ****                     EEPROM_1_WriteByte(Encabezado3[x-30],16+x);
 2522              		.loc 1 298 0 discriminator 3
 2523 070a 0134     		adds	r4, r4, #1
 2524              	.LVL375:
ARM GAS  C:\Users\RECEPC~1\AppData\Local\Temp\ccIFDC7N.s 			page 61


 2525 070c A4B2     		uxth	r4, r4
 2526              	.LVL376:
 2527              	.L184:
 298:.\RFPoll.c    ****                     EEPROM_1_WriteByte(Encabezado3[x-30],16+x);
 2528              		.loc 1 298 0 is_stmt 0 discriminator 1
 2529 070e 592C     		cmp	r4, #89
 2530 0710 F2D9     		bls	.L185
 2531 0712 5A24     		movs	r4, #90
 2532              	.LVL377:
 2533 0714 0AE0     		b	.L186
 2534              	.LVL378:
 2535              	.L187:
 302:.\RFPoll.c    ****                 }
 2536              		.loc 1 302 0 is_stmt 1 discriminator 3
 2537 0716 A4F11E03 		sub	r3, r4, #30
 2538 071a 04F11001 		add	r1, r4, #16
 2539 071e 324A     		ldr	r2, .L205+36
 2540 0720 D05C     		ldrb	r0, [r2, r3]	@ zero_extendqisi2
 2541 0722 89B2     		uxth	r1, r1
 2542 0724 FFF7FEFF 		bl	EEPROM_1_WriteByte
 2543              	.LVL379:
 301:.\RFPoll.c    ****                     EEPROM_1_WriteByte(Encabezado4[x-30],16+x);
 2544              		.loc 1 301 0 discriminator 3
 2545 0728 0134     		adds	r4, r4, #1
 2546              	.LVL380:
 2547 072a A4B2     		uxth	r4, r4
 2548              	.LVL381:
 2549              	.L186:
 301:.\RFPoll.c    ****                     EEPROM_1_WriteByte(Encabezado4[x-30],16+x);
 2550              		.loc 1 301 0 is_stmt 0 discriminator 1
 2551 072c 772C     		cmp	r4, #119
 2552 072e F2D9     		bls	.L187
 304:.\RFPoll.c    ****                 side.b.dir = EEPROM_1_ReadByte(13);
 2553              		.loc 1 304 0 is_stmt 1
 2554 0730 0C20     		movs	r0, #12
 2555 0732 FFF7FEFF 		bl	EEPROM_1_ReadByte
 2556              	.LVL382:
 2557 0736 244C     		ldr	r4, .L205+4
 2558              	.LVL383:
 2559 0738 2070     		strb	r0, [r4]
 305:.\RFPoll.c    ****                 side.c.dir = EEPROM_1_ReadByte(14);
 2560              		.loc 1 305 0
 2561 073a 0D20     		movs	r0, #13
 2562 073c FFF7FEFF 		bl	EEPROM_1_ReadByte
 2563              	.LVL384:
 2564 0740 84F80801 		strb	r0, [r4, #264]
 306:.\RFPoll.c    ****                 side.d.dir = EEPROM_1_ReadByte(15);
 2565              		.loc 1 306 0
 2566 0744 0E20     		movs	r0, #14
 2567 0746 FFF7FEFF 		bl	EEPROM_1_ReadByte
 2568              	.LVL385:
 2569 074a 84F81002 		strb	r0, [r4, #528]
 307:.\RFPoll.c    ****                 imprimir(printPortA,side.a.dir);
 2570              		.loc 1 307 0
 2571 074e 0F20     		movs	r0, #15
 2572 0750 FFF7FEFF 		bl	EEPROM_1_ReadByte
 2573              	.LVL386:
ARM GAS  C:\Users\RECEPC~1\AppData\Local\Temp\ccIFDC7N.s 			page 62


 2574 0754 84F81803 		strb	r0, [r4, #792]
 308:.\RFPoll.c    ****                break;
 2575              		.loc 1 308 0
 2576 0758 254B     		ldr	r3, .L205+44
 2577 075a 1878     		ldrb	r0, [r3]	@ zero_extendqisi2
 2578 075c 2178     		ldrb	r1, [r4]	@ zero_extendqisi2
 2579 075e FFF7FEFF 		bl	imprimir
 2580              	.LVL387:
 309:.\RFPoll.c    ****                
 2581              		.loc 1 309 0
 2582 0762 2BE0     		b	.L97
 2583              	.LVL388:
 2584              	.L103:
 312:.\RFPoll.c    ****                 buffer_tx[6] = 0xE2;
 2585              		.loc 1 312 0
 2586 0764 174B     		ldr	r3, .L205
 2587 0766 5B79     		ldrb	r3, [r3, #5]	@ zero_extendqisi2
 2588 0768 184C     		ldr	r4, .L205+8
 2589              	.LVL389:
 2590 076a 6371     		strb	r3, [r4, #5]
 313:.\RFPoll.c    ****                 buffer_tx[7] = 0x08;
 2591              		.loc 1 313 0
 2592 076c E223     		movs	r3, #226
 2593 076e A371     		strb	r3, [r4, #6]
 314:.\RFPoll.c    ****                 buffer_tx[8] = 0x03;
 2594              		.loc 1 314 0
 2595 0770 0823     		movs	r3, #8
 2596 0772 E371     		strb	r3, [r4, #7]
 315:.\RFPoll.c    ****                 buffer_tx[9] = verificar_check(buffer_tx,10);
 2597              		.loc 1 315 0
 2598 0774 0323     		movs	r3, #3
 2599 0776 2372     		strb	r3, [r4, #8]
 316:.\RFPoll.c    ****                 for (x = 0; x < 10; x++){
 2600              		.loc 1 316 0
 2601 0778 2046     		mov	r0, r4
 2602 077a 0A21     		movs	r1, #10
 2603 077c FFF7FEFF 		bl	verificar_check
 2604              	.LVL390:
 2605 0780 6072     		strb	r0, [r4, #9]
 2606              	.LVL391:
 317:.\RFPoll.c    ****                     RF_Connection_PutChar(buffer_tx[x]);
 2607              		.loc 1 317 0
 2608 0782 0024     		movs	r4, #0
 2609 0784 05E0     		b	.L188
 2610              	.LVL392:
 2611              	.L189:
 318:.\RFPoll.c    ****                 }
 2612              		.loc 1 318 0 discriminator 3
 2613 0786 114B     		ldr	r3, .L205+8
 2614 0788 185D     		ldrb	r0, [r3, r4]	@ zero_extendqisi2
 2615 078a FFF7FEFF 		bl	RF_Connection_PutChar
 2616              	.LVL393:
 317:.\RFPoll.c    ****                     RF_Connection_PutChar(buffer_tx[x]);
 2617              		.loc 1 317 0 discriminator 3
 2618 078e 0134     		adds	r4, r4, #1
 2619              	.LVL394:
 2620 0790 A4B2     		uxth	r4, r4
ARM GAS  C:\Users\RECEPC~1\AppData\Local\Temp\ccIFDC7N.s 			page 63


 2621              	.LVL395:
 2622              	.L188:
 317:.\RFPoll.c    ****                     RF_Connection_PutChar(buffer_tx[x]);
 2623              		.loc 1 317 0 is_stmt 0 discriminator 1
 2624 0792 092C     		cmp	r4, #9
 2625 0794 F7D9     		bls	.L189
 2626 0796 0823     		movs	r3, #8
 2627 0798 07E0     		b	.L190
 2628              	.LVL396:
 2629              	.L191:
 321:.\RFPoll.c    ****                 }
 2630              		.loc 1 321 0 is_stmt 1 discriminator 3
 2631 079a A3F10802 		sub	r2, r3, #8
 2632 079e 0949     		ldr	r1, .L205
 2633 07a0 C85C     		ldrb	r0, [r1, r3]	@ zero_extendqisi2
 2634 07a2 1449     		ldr	r1, .L205+48
 2635 07a4 8854     		strb	r0, [r1, r2]
 320:.\RFPoll.c    ****                     GradesHose[x-8] = buffer_rf[x];
 2636              		.loc 1 320 0 discriminator 3
 2637 07a6 0133     		adds	r3, r3, #1
 2638              	.LVL397:
 2639 07a8 9BB2     		uxth	r3, r3
 2640              	.LVL398:
 2641              	.L190:
 320:.\RFPoll.c    ****                     GradesHose[x-8] = buffer_rf[x];
 2642              		.loc 1 320 0 is_stmt 0 discriminator 1
 2643 07aa 0B2B     		cmp	r3, #11
 2644 07ac F5D9     		bls	.L191
 323:.\RFPoll.c    ****                 EEPROM_1_WriteByte(lockTurn,7);
 2645              		.loc 1 323 0 is_stmt 1
 2646 07ae 054B     		ldr	r3, .L205
 2647              	.LVL399:
 2648 07b0 187B     		ldrb	r0, [r3, #12]	@ zero_extendqisi2
 2649 07b2 114B     		ldr	r3, .L205+52
 2650 07b4 1870     		strb	r0, [r3]
 324:.\RFPoll.c    ****                break;
 2651              		.loc 1 324 0
 2652 07b6 0721     		movs	r1, #7
 2653 07b8 FFF7FEFF 		bl	EEPROM_1_WriteByte
 2654              	.LVL400:
 2655              	.L97:
 328:.\RFPoll.c    ****     }                            
 2656              		.loc 1 328 0
 2657 07bc FFF7FEFF 		bl	RF_Connection_ClearRxBuffer
 2658              	.LVL401:
 2659              	.L93:
 2660 07c0 70BD     		pop	{r4, r5, r6, pc}
 2661              	.L206:
 2662 07c2 00BF     		.align	2
 2663              	.L205:
 2664 07c4 00000000 		.word	buffer_rf
 2665 07c8 00000000 		.word	side
 2666 07cc 00000000 		.word	buffer_tx
 2667 07d0 00000000 		.word	symbols
 2668 07d4 00000000 		.word	date
 2669 07d8 00000000 		.word	time
 2670 07dc 00000000 		.word	Encabezado1
ARM GAS  C:\Users\RECEPC~1\AppData\Local\Temp\ccIFDC7N.s 			page 64


 2671 07e0 00000000 		.word	Encabezado2
 2672 07e4 00000000 		.word	Encabezado3
 2673 07e8 00000000 		.word	Encabezado4
 2674 07ec 00000000 		.word	CopiasCredito
 2675 07f0 00000000 		.word	printPortA
 2676 07f4 00000000 		.word	GradesHose
 2677 07f8 00000000 		.word	lockTurn
 2678              		.cfi_endproc
 2679              	.LFE64:
 2680              		.size	pollingRF_Rx, .-pollingRF_Rx
 2681              		.comm	side,1056,4
 2682              		.comm	bufferDisplay4,332,4
 2683              		.comm	bufferDisplay3,332,4
 2684              		.comm	bufferDisplay2,332,4
 2685              		.comm	bufferDisplay1,332,4
 2686              		.comm	GradesHose,5,4
 2687              		.comm	CopiasCredito,1,1
 2688              		.comm	Encabezado4,30,4
 2689              		.comm	Encabezado3,30,4
 2690              		.comm	Encabezado2,30,4
 2691              		.comm	Encabezado1,30,4
 2692              		.comm	intIDStation,2,2
 2693              		.comm	buffer_txEOT,60,4
 2694              		.comm	buffer_txPreset,60,4
 2695              		.comm	buffer_tx,512,4
 2696              		.comm	buffer_rf,512,4
 2697              		.comm	printPortB,1,1
 2698              		.comm	printPortA,1,1
 2699              		.comm	pumpGap,3,4
 2700              		.comm	idStation,5,4
 2701              		.comm	controlChar,1,1
 2702              		.comm	configAccess,5,4
 2703              		.comm	count_protector2,1,1
 2704              		.comm	count_protector,1,1
 2705              		.comm	timeDownHandle,2,4
 2706              		.comm	dateDownHandle,3,4
 2707              		.comm	VolUnit,6,4
 2708              		.comm	PrinterType,1,1
 2709              		.comm	hiddenKeys,1,1
 2710              		.comm	digits,1,1
 2711              		.comm	lockTurn,1,1
 2712              		.comm	NumPositions,1,1
 2713              		.comm	statePump,4,4
 2714              		.comm	DDMode,1,1
 2715              		.comm	PPUDec,1,1
 2716              		.comm	VolDec,1,1
 2717              		.comm	MoneyDec,1,1
 2718              		.comm	ConversionFactor,1,1
 2719              		.comm	UnitType,1,1
 2720              		.comm	sizeSendB,1,1
 2721              		.comm	sizeSendA,1,1
 2722              		.comm	ShiftState,1,1
 2723              		.comm	CGrade,1,1
 2724              		.comm	tempPPU,5,4
 2725              		.comm	tempPreset,8,4
 2726              		.comm	temporal,30,4
 2727              		.comm	counterRF,1,1
ARM GAS  C:\Users\RECEPC~1\AppData\Local\Temp\ccIFDC7N.s 			page 65


 2728              		.comm	ActiveRF,1,1
 2729              		.comm	IDCast,2,4
 2730              		.comm	PlateRequest,1,1
 2731              		.comm	PrevStatePump,4,4
 2732              		.comm	stateBeagleSoft,1,1
 2733              		.comm	flagResetMux,1,1
 2734              		.comm	passwordSeller,8,4
 2735              		.comm	typeIdSeller,1,1
 2736              		.comm	idSeller,25,4
 2737              		.comm	residue,14,4
 2738              		.comm	screen,2,4
 2739              		.comm	date,3,4
 2740              		.comm	time,3,4
 2741              		.comm	symbols,2,4
 2742              		.comm	decimalVolume,1,1
 2743              		.comm	decimalMoney,1,1
 2744              		.comm	ppux10,1,1
 2745              		.comm	delayPicture2,4,4
 2746              		.comm	delayPicture1,4,4
 2747              		.comm	productNumber,1,1
 2748              		.comm	flagPoint2,1,1
 2749              		.comm	flagPoint1,1,1
 2750              		.comm	numberKeys2,1,1
 2751              		.comm	numberKeys1,1,1
 2752              		.comm	flowDisplay4,4,4
 2753              		.comm	flowDisplay3,4,4
 2754              		.comm	flowDisplay2,4,4
 2755              		.comm	flowDisplay1,4,4
 2756              		.comm	countLCD,8,8
 2757              		.comm	countPump,8,8
 2758              		.comm	countTX,8,8
 2759              		.comm	countRX,8,8
 2760              		.comm	countAnimation2,8,8
 2761              		.comm	countAnimation1,8,8
 2762              		.section	.rodata
 2763              		.align	2
 2764              		.set	.LANCHOR0,. + 0
 2765              	.LC0:
 2766 0000 00       		.byte	0
 2767 0001 5E       		.byte	94
 2768 0002 BC       		.byte	-68
 2769 0003 E2       		.byte	-30
 2770 0004 61       		.byte	97
 2771 0005 3F       		.byte	63
 2772 0006 DD       		.byte	-35
 2773 0007 83       		.byte	-125
 2774 0008 C2       		.byte	-62
 2775 0009 9C       		.byte	-100
 2776 000a 7E       		.byte	126
 2777 000b 20       		.byte	32
 2778 000c A3       		.byte	-93
 2779 000d FD       		.byte	-3
 2780 000e 1F       		.byte	31
 2781 000f 41       		.byte	65
 2782 0010 9D       		.byte	-99
 2783 0011 C3       		.byte	-61
 2784 0012 21       		.byte	33
ARM GAS  C:\Users\RECEPC~1\AppData\Local\Temp\ccIFDC7N.s 			page 66


 2785 0013 7F       		.byte	127
 2786 0014 FC       		.byte	-4
 2787 0015 A2       		.byte	-94
 2788 0016 40       		.byte	64
 2789 0017 1E       		.byte	30
 2790 0018 5F       		.byte	95
 2791 0019 01       		.byte	1
 2792 001a E3       		.byte	-29
 2793 001b BD       		.byte	-67
 2794 001c 3E       		.byte	62
 2795 001d 60       		.byte	96
 2796 001e 82       		.byte	-126
 2797 001f DC       		.byte	-36
 2798 0020 23       		.byte	35
 2799 0021 7D       		.byte	125
 2800 0022 9F       		.byte	-97
 2801 0023 C1       		.byte	-63
 2802 0024 42       		.byte	66
 2803 0025 1C       		.byte	28
 2804 0026 FE       		.byte	-2
 2805 0027 A0       		.byte	-96
 2806 0028 E1       		.byte	-31
 2807 0029 BF       		.byte	-65
 2808 002a 5D       		.byte	93
 2809 002b 03       		.byte	3
 2810 002c 80       		.byte	-128
 2811 002d DE       		.byte	-34
 2812 002e 3C       		.byte	60
 2813 002f 62       		.byte	98
 2814 0030 BE       		.byte	-66
 2815 0031 E0       		.byte	-32
 2816 0032 02       		.byte	2
 2817 0033 5C       		.byte	92
 2818 0034 DF       		.byte	-33
 2819 0035 81       		.byte	-127
 2820 0036 63       		.byte	99
 2821 0037 3D       		.byte	61
 2822 0038 7C       		.byte	124
 2823 0039 22       		.byte	34
 2824 003a C0       		.byte	-64
 2825 003b 9E       		.byte	-98
 2826 003c 1D       		.byte	29
 2827 003d 43       		.byte	67
 2828 003e A1       		.byte	-95
 2829 003f FF       		.byte	-1
 2830 0040 46       		.byte	70
 2831 0041 18       		.byte	24
 2832 0042 FA       		.byte	-6
 2833 0043 A4       		.byte	-92
 2834 0044 27       		.byte	39
 2835 0045 79       		.byte	121
 2836 0046 9B       		.byte	-101
 2837 0047 C5       		.byte	-59
 2838 0048 84       		.byte	-124
 2839 0049 DA       		.byte	-38
 2840 004a 38       		.byte	56
 2841 004b 66       		.byte	102
ARM GAS  C:\Users\RECEPC~1\AppData\Local\Temp\ccIFDC7N.s 			page 67


 2842 004c E5       		.byte	-27
 2843 004d BB       		.byte	-69
 2844 004e 59       		.byte	89
 2845 004f 07       		.byte	7
 2846 0050 DB       		.byte	-37
 2847 0051 85       		.byte	-123
 2848 0052 67       		.byte	103
 2849 0053 39       		.byte	57
 2850 0054 BA       		.byte	-70
 2851 0055 E4       		.byte	-28
 2852 0056 06       		.byte	6
 2853 0057 58       		.byte	88
 2854 0058 19       		.byte	25
 2855 0059 47       		.byte	71
 2856 005a A5       		.byte	-91
 2857 005b FB       		.byte	-5
 2858 005c 78       		.byte	120
 2859 005d 26       		.byte	38
 2860 005e C4       		.byte	-60
 2861 005f 9A       		.byte	-102
 2862 0060 65       		.byte	101
 2863 0061 3B       		.byte	59
 2864 0062 D9       		.byte	-39
 2865 0063 87       		.byte	-121
 2866 0064 04       		.byte	4
 2867 0065 5A       		.byte	90
 2868 0066 B8       		.byte	-72
 2869 0067 E6       		.byte	-26
 2870 0068 A7       		.byte	-89
 2871 0069 F9       		.byte	-7
 2872 006a 1B       		.byte	27
 2873 006b 45       		.byte	69
 2874 006c C6       		.byte	-58
 2875 006d 98       		.byte	-104
 2876 006e 7A       		.byte	122
 2877 006f 24       		.byte	36
 2878 0070 F8       		.byte	-8
 2879 0071 A6       		.byte	-90
 2880 0072 44       		.byte	68
 2881 0073 1A       		.byte	26
 2882 0074 99       		.byte	-103
 2883 0075 C7       		.byte	-57
 2884 0076 25       		.byte	37
 2885 0077 7B       		.byte	123
 2886 0078 3A       		.byte	58
 2887 0079 64       		.byte	100
 2888 007a 86       		.byte	-122
 2889 007b D8       		.byte	-40
 2890 007c 5B       		.byte	91
 2891 007d 05       		.byte	5
 2892 007e E7       		.byte	-25
 2893 007f B9       		.byte	-71
 2894 0080 8C       		.byte	-116
 2895 0081 D2       		.byte	-46
 2896 0082 30       		.byte	48
 2897 0083 6E       		.byte	110
 2898 0084 ED       		.byte	-19
ARM GAS  C:\Users\RECEPC~1\AppData\Local\Temp\ccIFDC7N.s 			page 68


 2899 0085 B3       		.byte	-77
 2900 0086 51       		.byte	81
 2901 0087 0F       		.byte	15
 2902 0088 4E       		.byte	78
 2903 0089 10       		.byte	16
 2904 008a F2       		.byte	-14
 2905 008b AC       		.byte	-84
 2906 008c 2F       		.byte	47
 2907 008d 71       		.byte	113
 2908 008e 93       		.byte	-109
 2909 008f CD       		.byte	-51
 2910 0090 11       		.byte	17
 2911 0091 4F       		.byte	79
 2912 0092 AD       		.byte	-83
 2913 0093 F3       		.byte	-13
 2914 0094 70       		.byte	112
 2915 0095 2E       		.byte	46
 2916 0096 CC       		.byte	-52
 2917 0097 92       		.byte	-110
 2918 0098 D3       		.byte	-45
 2919 0099 8D       		.byte	-115
 2920 009a 6F       		.byte	111
 2921 009b 31       		.byte	49
 2922 009c B2       		.byte	-78
 2923 009d EC       		.byte	-20
 2924 009e 0E       		.byte	14
 2925 009f 50       		.byte	80
 2926 00a0 AF       		.byte	-81
 2927 00a1 F1       		.byte	-15
 2928 00a2 13       		.byte	19
 2929 00a3 4D       		.byte	77
 2930 00a4 CE       		.byte	-50
 2931 00a5 90       		.byte	-112
 2932 00a6 72       		.byte	114
 2933 00a7 2C       		.byte	44
 2934 00a8 6D       		.byte	109
 2935 00a9 33       		.byte	51
 2936 00aa D1       		.byte	-47
 2937 00ab 8F       		.byte	-113
 2938 00ac 0C       		.byte	12
 2939 00ad 52       		.byte	82
 2940 00ae B0       		.byte	-80
 2941 00af EE       		.byte	-18
 2942 00b0 32       		.byte	50
 2943 00b1 6C       		.byte	108
 2944 00b2 8E       		.byte	-114
 2945 00b3 D0       		.byte	-48
 2946 00b4 53       		.byte	83
 2947 00b5 0D       		.byte	13
 2948 00b6 EF       		.byte	-17
 2949 00b7 B1       		.byte	-79
 2950 00b8 F0       		.byte	-16
 2951 00b9 AE       		.byte	-82
 2952 00ba 4C       		.byte	76
 2953 00bb 12       		.byte	18
 2954 00bc 91       		.byte	-111
 2955 00bd CF       		.byte	-49
ARM GAS  C:\Users\RECEPC~1\AppData\Local\Temp\ccIFDC7N.s 			page 69


 2956 00be 2D       		.byte	45
 2957 00bf 73       		.byte	115
 2958 00c0 CA       		.byte	-54
 2959 00c1 94       		.byte	-108
 2960 00c2 76       		.byte	118
 2961 00c3 28       		.byte	40
 2962 00c4 AB       		.byte	-85
 2963 00c5 F5       		.byte	-11
 2964 00c6 17       		.byte	23
 2965 00c7 49       		.byte	73
 2966 00c8 08       		.byte	8
 2967 00c9 56       		.byte	86
 2968 00ca B4       		.byte	-76
 2969 00cb EA       		.byte	-22
 2970 00cc 69       		.byte	105
 2971 00cd 37       		.byte	55
 2972 00ce D5       		.byte	-43
 2973 00cf 8B       		.byte	-117
 2974 00d0 57       		.byte	87
 2975 00d1 09       		.byte	9
 2976 00d2 EB       		.byte	-21
 2977 00d3 B5       		.byte	-75
 2978 00d4 36       		.byte	54
 2979 00d5 68       		.byte	104
 2980 00d6 8A       		.byte	-118
 2981 00d7 D4       		.byte	-44
 2982 00d8 95       		.byte	-107
 2983 00d9 CB       		.byte	-53
 2984 00da 29       		.byte	41
 2985 00db 77       		.byte	119
 2986 00dc F4       		.byte	-12
 2987 00dd AA       		.byte	-86
 2988 00de 48       		.byte	72
 2989 00df 16       		.byte	22
 2990 00e0 E9       		.byte	-23
 2991 00e1 B7       		.byte	-73
 2992 00e2 55       		.byte	85
 2993 00e3 0B       		.byte	11
 2994 00e4 88       		.byte	-120
 2995 00e5 D6       		.byte	-42
 2996 00e6 34       		.byte	52
 2997 00e7 6A       		.byte	106
 2998 00e8 2B       		.byte	43
 2999 00e9 75       		.byte	117
 3000 00ea 97       		.byte	-105
 3001 00eb C9       		.byte	-55
 3002 00ec 4A       		.byte	74
 3003 00ed 14       		.byte	20
 3004 00ee F6       		.byte	-10
 3005 00ef A8       		.byte	-88
 3006 00f0 74       		.byte	116
 3007 00f1 2A       		.byte	42
 3008 00f2 C8       		.byte	-56
 3009 00f3 96       		.byte	-106
 3010 00f4 15       		.byte	21
 3011 00f5 4B       		.byte	75
 3012 00f6 A9       		.byte	-87
ARM GAS  C:\Users\RECEPC~1\AppData\Local\Temp\ccIFDC7N.s 			page 70


 3013 00f7 F7       		.byte	-9
 3014 00f8 B6       		.byte	-74
 3015 00f9 E8       		.byte	-24
 3016 00fa 0A       		.byte	10
 3017 00fb 54       		.byte	84
 3018 00fc D7       		.byte	-41
 3019 00fd 89       		.byte	-119
 3020 00fe 6B       		.byte	107
 3021 00ff 35       		.byte	53
 3022              		.text
 3023              	.Letext0:
 3024              		.file 2 "c:\\program files (x86)\\cypress\\psoc creator\\3.3\\psoc creator\\import\\gnu\\arm\\4.9.
 3025              		.file 3 "c:\\program files (x86)\\cypress\\psoc creator\\3.3\\psoc creator\\import\\gnu\\arm\\4.9.
 3026              		.file 4 "Generated_Source\\PSoC5/cytypes.h"
 3027              		.file 5 "./variables.h"
 3028              		.file 6 "Generated_Source\\PSoC5/core_cm3.h"
 3029              		.file 7 "Generated_Source\\PSoC5/RF_Connection.h"
 3030              		.file 8 "Generated_Source\\PSoC5/CyLib.h"
 3031              		.file 9 "./protocol.h"
 3032              		.file 10 "./I2C.h"
 3033              		.file 11 "Generated_Source\\PSoC5/EEPROM_1.h"
 3034              		.file 12 "./Print.h"
 3035              		.section	.debug_info,"",%progbits
 3036              	.Ldebug_info0:
 3037 0000 AB100000 		.4byte	0x10ab
 3038 0004 0400     		.2byte	0x4
 3039 0006 00000000 		.4byte	.Ldebug_abbrev0
 3040 000a 04       		.byte	0x4
 3041 000b 01       		.uleb128 0x1
 3042 000c 03080000 		.4byte	.LASF201
 3043 0010 01       		.byte	0x1
 3044 0011 4B040000 		.4byte	.LASF202
 3045 0015 C2080000 		.4byte	.LASF203
 3046 0019 00000000 		.4byte	.Ldebug_ranges0+0
 3047 001d 00000000 		.4byte	0
 3048 0021 00000000 		.4byte	.Ldebug_line0
 3049 0025 02       		.uleb128 0x2
 3050 0026 01       		.byte	0x1
 3051 0027 06       		.byte	0x6
 3052 0028 5F090000 		.4byte	.LASF0
 3053 002c 02       		.uleb128 0x2
 3054 002d 01       		.byte	0x1
 3055 002e 08       		.byte	0x8
 3056 002f F5070000 		.4byte	.LASF1
 3057 0033 02       		.uleb128 0x2
 3058 0034 02       		.byte	0x2
 3059 0035 05       		.byte	0x5
 3060 0036 37060000 		.4byte	.LASF2
 3061 003a 02       		.uleb128 0x2
 3062 003b 02       		.byte	0x2
 3063 003c 07       		.byte	0x7
 3064 003d 7B090000 		.4byte	.LASF3
 3065 0041 03       		.uleb128 0x3
 3066 0042 E3000000 		.4byte	.LASF9
 3067 0046 02       		.byte	0x2
 3068 0047 3F       		.byte	0x3f
 3069 0048 4C000000 		.4byte	0x4c
ARM GAS  C:\Users\RECEPC~1\AppData\Local\Temp\ccIFDC7N.s 			page 71


 3070 004c 02       		.uleb128 0x2
 3071 004d 04       		.byte	0x4
 3072 004e 05       		.byte	0x5
 3073 004f 41060000 		.4byte	.LASF4
 3074 0053 02       		.uleb128 0x2
 3075 0054 04       		.byte	0x4
 3076 0055 07       		.byte	0x7
 3077 0056 84070000 		.4byte	.LASF5
 3078 005a 02       		.uleb128 0x2
 3079 005b 08       		.byte	0x8
 3080 005c 05       		.byte	0x5
 3081 005d 9F040000 		.4byte	.LASF6
 3082 0061 02       		.uleb128 0x2
 3083 0062 08       		.byte	0x8
 3084 0063 07       		.byte	0x7
 3085 0064 06020000 		.4byte	.LASF7
 3086 0068 04       		.uleb128 0x4
 3087 0069 04       		.byte	0x4
 3088 006a 05       		.byte	0x5
 3089 006b 696E7400 		.ascii	"int\000"
 3090 006f 02       		.uleb128 0x2
 3091 0070 04       		.byte	0x4
 3092 0071 07       		.byte	0x7
 3093 0072 CA000000 		.4byte	.LASF8
 3094 0076 03       		.uleb128 0x3
 3095 0077 C0070000 		.4byte	.LASF10
 3096 007b 03       		.byte	0x3
 3097 007c 2C       		.byte	0x2c
 3098 007d 41000000 		.4byte	0x41
 3099 0081 05       		.uleb128 0x5
 3100 0082 AB090000 		.4byte	.LASF11
 3101 0086 04       		.byte	0x4
 3102 0087 3801     		.2byte	0x138
 3103 0089 2C000000 		.4byte	0x2c
 3104 008d 05       		.uleb128 0x5
 3105 008e F7030000 		.4byte	.LASF12
 3106 0092 04       		.byte	0x4
 3107 0093 3901     		.2byte	0x139
 3108 0095 3A000000 		.4byte	0x3a
 3109 0099 05       		.uleb128 0x5
 3110 009a 60050000 		.4byte	.LASF13
 3111 009e 04       		.byte	0x4
 3112 009f 3A01     		.2byte	0x13a
 3113 00a1 53000000 		.4byte	0x53
 3114 00a5 02       		.uleb128 0x2
 3115 00a6 04       		.byte	0x4
 3116 00a7 04       		.byte	0x4
 3117 00a8 9E010000 		.4byte	.LASF14
 3118 00ac 02       		.uleb128 0x2
 3119 00ad 08       		.byte	0x8
 3120 00ae 04       		.byte	0x4
 3121 00af B1090000 		.4byte	.LASF15
 3122 00b3 05       		.uleb128 0x5
 3123 00b4 1F070000 		.4byte	.LASF16
 3124 00b8 04       		.byte	0x4
 3125 00b9 4401     		.2byte	0x144
 3126 00bb 61000000 		.4byte	0x61
ARM GAS  C:\Users\RECEPC~1\AppData\Local\Temp\ccIFDC7N.s 			page 72


 3127 00bf 05       		.uleb128 0x5
 3128 00c0 19040000 		.4byte	.LASF17
 3129 00c4 04       		.byte	0x4
 3130 00c5 4901     		.2byte	0x149
 3131 00c7 CB000000 		.4byte	0xcb
 3132 00cb 02       		.uleb128 0x2
 3133 00cc 01       		.byte	0x1
 3134 00cd 08       		.byte	0x8
 3135 00ce A0030000 		.4byte	.LASF18
 3136 00d2 05       		.uleb128 0x5
 3137 00d3 DA070000 		.4byte	.LASF19
 3138 00d7 04       		.byte	0x4
 3139 00d8 DA01     		.2byte	0x1da
 3140 00da 53000000 		.4byte	0x53
 3141 00de 06       		.uleb128 0x6
 3142 00df 81000000 		.4byte	0x81
 3143 00e3 06       		.uleb128 0x6
 3144 00e4 99000000 		.4byte	0x99
 3145 00e8 02       		.uleb128 0x2
 3146 00e9 04       		.byte	0x4
 3147 00ea 07       		.byte	0x7
 3148 00eb 7B070000 		.4byte	.LASF20
 3149 00ef 07       		.uleb128 0x7
 3150 00f0 04       		.byte	0x4
 3151 00f1 08       		.uleb128 0x8
 3152 00f2 81000000 		.4byte	0x81
 3153 00f6 01010000 		.4byte	0x101
 3154 00fa 09       		.uleb128 0x9
 3155 00fb E8000000 		.4byte	0xe8
 3156 00ff 03       		.byte	0x3
 3157 0100 00       		.byte	0
 3158 0101 0A       		.uleb128 0xa
 3159 0102 A0000000 		.4byte	.LASF63
 3160 0106 4C01     		.2byte	0x14c
 3161 0108 05       		.byte	0x5
 3162 0109 7E       		.byte	0x7e
 3163 010a 15030000 		.4byte	0x315
 3164 010e 0B       		.uleb128 0xb
 3165 010f 19010000 		.4byte	.LASF21
 3166 0113 05       		.byte	0x5
 3167 0114 7F       		.byte	0x7f
 3168 0115 81000000 		.4byte	0x81
 3169 0119 00       		.byte	0
 3170 011a 0B       		.uleb128 0xb
 3171 011b C9020000 		.4byte	.LASF22
 3172 011f 05       		.byte	0x5
 3173 0120 80       		.byte	0x80
 3174 0121 15030000 		.4byte	0x315
 3175 0125 01       		.byte	0x1
 3176 0126 0B       		.uleb128 0xb
 3177 0127 B8090000 		.4byte	.LASF23
 3178 012b 05       		.byte	0x5
 3179 012c 81       		.byte	0x81
 3180 012d 81000000 		.4byte	0x81
 3181 0131 1A       		.byte	0x1a
 3182 0132 0B       		.uleb128 0xb
 3183 0133 E3070000 		.4byte	.LASF24
ARM GAS  C:\Users\RECEPC~1\AppData\Local\Temp\ccIFDC7N.s 			page 73


 3184 0137 05       		.byte	0x5
 3185 0138 82       		.byte	0x82
 3186 0139 81000000 		.4byte	0x81
 3187 013d 1B       		.byte	0x1b
 3188 013e 0B       		.uleb128 0xb
 3189 013f 36010000 		.4byte	.LASF25
 3190 0143 05       		.byte	0x5
 3191 0144 83       		.byte	0x83
 3192 0145 25030000 		.4byte	0x325
 3193 0149 1C       		.byte	0x1c
 3194 014a 0B       		.uleb128 0xb
 3195 014b EA050000 		.4byte	.LASF26
 3196 014f 05       		.byte	0x5
 3197 0150 84       		.byte	0x84
 3198 0151 25030000 		.4byte	0x325
 3199 0155 26       		.byte	0x26
 3200 0156 0B       		.uleb128 0xb
 3201 0157 F8090000 		.4byte	.LASF27
 3202 015b 05       		.byte	0x5
 3203 015c 85       		.byte	0x85
 3204 015d 15030000 		.4byte	0x315
 3205 0161 30       		.byte	0x30
 3206 0162 0B       		.uleb128 0xb
 3207 0163 A6050000 		.4byte	.LASF28
 3208 0167 05       		.byte	0x5
 3209 0168 86       		.byte	0x86
 3210 0169 81000000 		.4byte	0x81
 3211 016d 49       		.byte	0x49
 3212 016e 0B       		.uleb128 0xb
 3213 016f 91080000 		.4byte	.LASF29
 3214 0173 05       		.byte	0x5
 3215 0174 87       		.byte	0x87
 3216 0175 81000000 		.4byte	0x81
 3217 0179 4A       		.byte	0x4a
 3218 017a 0B       		.uleb128 0xb
 3219 017b 96030000 		.4byte	.LASF30
 3220 017f 05       		.byte	0x5
 3221 0180 88       		.byte	0x88
 3222 0181 35030000 		.4byte	0x335
 3223 0185 4B       		.byte	0x4b
 3224 0186 0B       		.uleb128 0xb
 3225 0187 25050000 		.4byte	.LASF31
 3226 018b 05       		.byte	0x5
 3227 018c 89       		.byte	0x89
 3228 018d 81000000 		.4byte	0x81
 3229 0191 60       		.byte	0x60
 3230 0192 0B       		.uleb128 0xb
 3231 0193 83030000 		.4byte	.LASF32
 3232 0197 05       		.byte	0x5
 3233 0198 8A       		.byte	0x8a
 3234 0199 81000000 		.4byte	0x81
 3235 019d 61       		.byte	0x61
 3236 019e 0B       		.uleb128 0xb
 3237 019f BE000000 		.4byte	.LASF33
 3238 01a3 05       		.byte	0x5
 3239 01a4 8B       		.byte	0x8b
 3240 01a5 81000000 		.4byte	0x81
ARM GAS  C:\Users\RECEPC~1\AppData\Local\Temp\ccIFDC7N.s 			page 74


 3241 01a9 62       		.byte	0x62
 3242 01aa 0B       		.uleb128 0xb
 3243 01ab 18090000 		.4byte	.LASF34
 3244 01af 05       		.byte	0x5
 3245 01b0 8C       		.byte	0x8c
 3246 01b1 45030000 		.4byte	0x345
 3247 01b5 63       		.byte	0x63
 3248 01b6 0B       		.uleb128 0xb
 3249 01b7 5A030000 		.4byte	.LASF35
 3250 01bb 05       		.byte	0x5
 3251 01bc 8D       		.byte	0x8d
 3252 01bd 55030000 		.4byte	0x355
 3253 01c1 65       		.byte	0x65
 3254 01c2 0B       		.uleb128 0xb
 3255 01c3 A6020000 		.4byte	.LASF36
 3256 01c7 05       		.byte	0x5
 3257 01c8 8E       		.byte	0x8e
 3258 01c9 81000000 		.4byte	0x81
 3259 01cd 79       		.byte	0x79
 3260 01ce 0B       		.uleb128 0xb
 3261 01cf 42070000 		.4byte	.LASF37
 3262 01d3 05       		.byte	0x5
 3263 01d4 8F       		.byte	0x8f
 3264 01d5 6B030000 		.4byte	0x36b
 3265 01d9 7A       		.byte	0x7a
 3266 01da 0B       		.uleb128 0xb
 3267 01db 9C060000 		.4byte	.LASF38
 3268 01df 05       		.byte	0x5
 3269 01e0 90       		.byte	0x90
 3270 01e1 7B030000 		.4byte	0x37b
 3271 01e5 7F       		.byte	0x7f
 3272 01e6 0B       		.uleb128 0xb
 3273 01e7 C7090000 		.4byte	.LASF39
 3274 01eb 05       		.byte	0x5
 3275 01ec 91       		.byte	0x91
 3276 01ed 7B030000 		.4byte	0x37b
 3277 01f1 85       		.byte	0x85
 3278 01f2 0B       		.uleb128 0xb
 3279 01f3 CC050000 		.4byte	.LASF40
 3280 01f7 05       		.byte	0x5
 3281 01f8 92       		.byte	0x92
 3282 01f9 8B030000 		.4byte	0x38b
 3283 01fd 8B       		.byte	0x8b
 3284 01fe 0B       		.uleb128 0xb
 3285 01ff 37020000 		.4byte	.LASF41
 3286 0203 05       		.byte	0x5
 3287 0204 93       		.byte	0x93
 3288 0205 8B030000 		.4byte	0x38b
 3289 0209 99       		.byte	0x99
 3290 020a 0B       		.uleb128 0xb
 3291 020b F5040000 		.4byte	.LASF42
 3292 020f 05       		.byte	0x5
 3293 0210 94       		.byte	0x94
 3294 0211 8B030000 		.4byte	0x38b
 3295 0215 A7       		.byte	0xa7
 3296 0216 0B       		.uleb128 0xb
 3297 0217 3B040000 		.4byte	.LASF43
ARM GAS  C:\Users\RECEPC~1\AppData\Local\Temp\ccIFDC7N.s 			page 75


 3298 021b 05       		.byte	0x5
 3299 021c 95       		.byte	0x95
 3300 021d 8B030000 		.4byte	0x38b
 3301 0221 B5       		.byte	0xb5
 3302 0222 0B       		.uleb128 0xb
 3303 0223 05070000 		.4byte	.LASF44
 3304 0227 05       		.byte	0x5
 3305 0228 96       		.byte	0x96
 3306 0229 8B030000 		.4byte	0x38b
 3307 022d C3       		.byte	0xc3
 3308 022e 0B       		.uleb128 0xb
 3309 022f 8C050000 		.4byte	.LASF45
 3310 0233 05       		.byte	0x5
 3311 0234 97       		.byte	0x97
 3312 0235 8B030000 		.4byte	0x38b
 3313 0239 D1       		.byte	0xd1
 3314 023a 0B       		.uleb128 0xb
 3315 023b 1E060000 		.4byte	.LASF46
 3316 023f 05       		.byte	0x5
 3317 0240 98       		.byte	0x98
 3318 0241 9B030000 		.4byte	0x39b
 3319 0245 DF       		.byte	0xdf
 3320 0246 0B       		.uleb128 0xb
 3321 0247 F0020000 		.4byte	.LASF47
 3322 024b 05       		.byte	0x5
 3323 024c 99       		.byte	0x99
 3324 024d 9B030000 		.4byte	0x39b
 3325 0251 EA       		.byte	0xea
 3326 0252 0B       		.uleb128 0xb
 3327 0253 78030000 		.4byte	.LASF48
 3328 0257 05       		.byte	0x5
 3329 0258 9A       		.byte	0x9a
 3330 0259 9B030000 		.4byte	0x39b
 3331 025d F5       		.byte	0xf5
 3332 025e 0C       		.uleb128 0xc
 3333 025f 4E050000 		.4byte	.LASF49
 3334 0263 05       		.byte	0x5
 3335 0264 9B       		.byte	0x9b
 3336 0265 81000000 		.4byte	0x81
 3337 0269 0001     		.2byte	0x100
 3338 026b 0C       		.uleb128 0xc
 3339 026c 0D040000 		.4byte	.LASF50
 3340 0270 05       		.byte	0x5
 3341 0271 9C       		.byte	0x9c
 3342 0272 81000000 		.4byte	0x81
 3343 0276 0101     		.2byte	0x101
 3344 0278 0C       		.uleb128 0xc
 3345 0279 ED000000 		.4byte	.LASF51
 3346 027d 05       		.byte	0x5
 3347 027e 9D       		.byte	0x9d
 3348 027f 81000000 		.4byte	0x81
 3349 0283 0201     		.2byte	0x102
 3350 0285 0C       		.uleb128 0xc
 3351 0286 86060000 		.4byte	.LASF52
 3352 028a 05       		.byte	0x5
 3353 028b 9E       		.byte	0x9e
 3354 028c 81000000 		.4byte	0x81
ARM GAS  C:\Users\RECEPC~1\AppData\Local\Temp\ccIFDC7N.s 			page 76


 3355 0290 0301     		.2byte	0x103
 3356 0292 0C       		.uleb128 0xc
 3357 0293 56040000 		.4byte	.LASF53
 3358 0297 05       		.byte	0x5
 3359 0298 9F       		.byte	0x9f
 3360 0299 25030000 		.4byte	0x325
 3361 029d 0401     		.2byte	0x104
 3362 029f 0C       		.uleb128 0xc
 3363 02a0 7C000000 		.4byte	.LASF54
 3364 02a4 05       		.byte	0x5
 3365 02a5 A0       		.byte	0xa0
 3366 02a6 25030000 		.4byte	0x325
 3367 02aa 0E01     		.2byte	0x10e
 3368 02ac 0C       		.uleb128 0xc
 3369 02ad 2C040000 		.4byte	.LASF55
 3370 02b1 05       		.byte	0x5
 3371 02b2 A1       		.byte	0xa1
 3372 02b3 25030000 		.4byte	0x325
 3373 02b7 1801     		.2byte	0x118
 3374 02b9 0C       		.uleb128 0xc
 3375 02ba 2A060000 		.4byte	.LASF56
 3376 02be 05       		.byte	0x5
 3377 02bf A2       		.byte	0xa2
 3378 02c0 AB030000 		.4byte	0x3ab
 3379 02c4 2201     		.2byte	0x122
 3380 02c6 0C       		.uleb128 0xc
 3381 02c7 61040000 		.4byte	.LASF57
 3382 02cb 05       		.byte	0x5
 3383 02cc A3       		.byte	0xa3
 3384 02cd 45030000 		.4byte	0x345
 3385 02d1 3101     		.2byte	0x131
 3386 02d3 0C       		.uleb128 0xc
 3387 02d4 FC020000 		.4byte	.LASF58
 3388 02d8 05       		.byte	0x5
 3389 02d9 A4       		.byte	0xa4
 3390 02da 81000000 		.4byte	0x81
 3391 02de 3301     		.2byte	0x133
 3392 02e0 0C       		.uleb128 0xc
 3393 02e1 B6070000 		.4byte	.LASF59
 3394 02e5 05       		.byte	0x5
 3395 02e6 A5       		.byte	0xa5
 3396 02e7 81000000 		.4byte	0x81
 3397 02eb 3401     		.2byte	0x134
 3398 02ed 0C       		.uleb128 0xc
 3399 02ee 0A030000 		.4byte	.LASF60
 3400 02f2 05       		.byte	0x5
 3401 02f3 A6       		.byte	0xa6
 3402 02f4 81000000 		.4byte	0x81
 3403 02f8 3501     		.2byte	0x135
 3404 02fa 0C       		.uleb128 0xc
 3405 02fb 71060000 		.4byte	.LASF61
 3406 02ff 05       		.byte	0x5
 3407 0300 A7       		.byte	0xa7
 3408 0301 9B030000 		.4byte	0x39b
 3409 0305 3601     		.2byte	0x136
 3410 0307 0C       		.uleb128 0xc
 3411 0308 51090000 		.4byte	.LASF62
ARM GAS  C:\Users\RECEPC~1\AppData\Local\Temp\ccIFDC7N.s 			page 77


 3412 030c 05       		.byte	0x5
 3413 030d A8       		.byte	0xa8
 3414 030e 9B030000 		.4byte	0x39b
 3415 0312 4101     		.2byte	0x141
 3416 0314 00       		.byte	0
 3417 0315 08       		.uleb128 0x8
 3418 0316 81000000 		.4byte	0x81
 3419 031a 25030000 		.4byte	0x325
 3420 031e 09       		.uleb128 0x9
 3421 031f E8000000 		.4byte	0xe8
 3422 0323 18       		.byte	0x18
 3423 0324 00       		.byte	0
 3424 0325 08       		.uleb128 0x8
 3425 0326 81000000 		.4byte	0x81
 3426 032a 35030000 		.4byte	0x335
 3427 032e 09       		.uleb128 0x9
 3428 032f E8000000 		.4byte	0xe8
 3429 0333 09       		.byte	0x9
 3430 0334 00       		.byte	0
 3431 0335 08       		.uleb128 0x8
 3432 0336 81000000 		.4byte	0x81
 3433 033a 45030000 		.4byte	0x345
 3434 033e 09       		.uleb128 0x9
 3435 033f E8000000 		.4byte	0xe8
 3436 0343 14       		.byte	0x14
 3437 0344 00       		.byte	0
 3438 0345 08       		.uleb128 0x8
 3439 0346 81000000 		.4byte	0x81
 3440 034a 55030000 		.4byte	0x355
 3441 034e 09       		.uleb128 0x9
 3442 034f E8000000 		.4byte	0xe8
 3443 0353 01       		.byte	0x1
 3444 0354 00       		.byte	0
 3445 0355 08       		.uleb128 0x8
 3446 0356 81000000 		.4byte	0x81
 3447 035a 6B030000 		.4byte	0x36b
 3448 035e 09       		.uleb128 0x9
 3449 035f E8000000 		.4byte	0xe8
 3450 0363 01       		.byte	0x1
 3451 0364 09       		.uleb128 0x9
 3452 0365 E8000000 		.4byte	0xe8
 3453 0369 09       		.byte	0x9
 3454 036a 00       		.byte	0
 3455 036b 08       		.uleb128 0x8
 3456 036c 81000000 		.4byte	0x81
 3457 0370 7B030000 		.4byte	0x37b
 3458 0374 09       		.uleb128 0x9
 3459 0375 E8000000 		.4byte	0xe8
 3460 0379 04       		.byte	0x4
 3461 037a 00       		.byte	0
 3462 037b 08       		.uleb128 0x8
 3463 037c 81000000 		.4byte	0x81
 3464 0380 8B030000 		.4byte	0x38b
 3465 0384 09       		.uleb128 0x9
 3466 0385 E8000000 		.4byte	0xe8
 3467 0389 05       		.byte	0x5
 3468 038a 00       		.byte	0
ARM GAS  C:\Users\RECEPC~1\AppData\Local\Temp\ccIFDC7N.s 			page 78


 3469 038b 08       		.uleb128 0x8
 3470 038c 81000000 		.4byte	0x81
 3471 0390 9B030000 		.4byte	0x39b
 3472 0394 09       		.uleb128 0x9
 3473 0395 E8000000 		.4byte	0xe8
 3474 0399 0D       		.byte	0xd
 3475 039a 00       		.byte	0
 3476 039b 08       		.uleb128 0x8
 3477 039c 81000000 		.4byte	0x81
 3478 03a0 AB030000 		.4byte	0x3ab
 3479 03a4 09       		.uleb128 0x9
 3480 03a5 E8000000 		.4byte	0xe8
 3481 03a9 0A       		.byte	0xa
 3482 03aa 00       		.byte	0
 3483 03ab 08       		.uleb128 0x8
 3484 03ac 81000000 		.4byte	0x81
 3485 03b0 BB030000 		.4byte	0x3bb
 3486 03b4 09       		.uleb128 0x9
 3487 03b5 E8000000 		.4byte	0xe8
 3488 03b9 0E       		.byte	0xe
 3489 03ba 00       		.byte	0
 3490 03bb 0A       		.uleb128 0xa
 3491 03bc 0B0A0000 		.4byte	.LASF64
 3492 03c0 0801     		.2byte	0x108
 3493 03c2 05       		.byte	0x5
 3494 03c3 B9       		.byte	0xb9
 3495 03c4 85040000 		.4byte	0x485
 3496 03c8 0D       		.uleb128 0xd
 3497 03c9 64697200 		.ascii	"dir\000"
 3498 03cd 05       		.byte	0x5
 3499 03ce BA       		.byte	0xba
 3500 03cf 81000000 		.4byte	0x81
 3501 03d3 00       		.byte	0
 3502 03d4 0B       		.uleb128 0xb
 3503 03d5 4D030000 		.4byte	.LASF65
 3504 03d9 05       		.byte	0x5
 3505 03da BB       		.byte	0xbb
 3506 03db 85040000 		.4byte	0x485
 3507 03df 01       		.byte	0x1
 3508 03e0 0B       		.uleb128 0xb
 3509 03e1 EA090000 		.4byte	.LASF66
 3510 03e5 05       		.byte	0x5
 3511 03e6 BC       		.byte	0xbc
 3512 03e7 A1040000 		.4byte	0x4a1
 3513 03eb B5       		.byte	0xb5
 3514 03ec 0B       		.uleb128 0xb
 3515 03ed 95040000 		.4byte	.LASF67
 3516 03f1 05       		.byte	0x5
 3517 03f2 BD       		.byte	0xbd
 3518 03f3 8B030000 		.4byte	0x38b
 3519 03f7 D5       		.byte	0xd5
 3520 03f8 0B       		.uleb128 0xb
 3521 03f9 2C090000 		.4byte	.LASF68
 3522 03fd 05       		.byte	0x5
 3523 03fe BE       		.byte	0xbe
 3524 03ff 8B030000 		.4byte	0x38b
 3525 0403 E3       		.byte	0xe3
ARM GAS  C:\Users\RECEPC~1\AppData\Local\Temp\ccIFDC7N.s 			page 79


 3526 0404 0B       		.uleb128 0xb
 3527 0405 C0040000 		.4byte	.LASF69
 3528 0409 05       		.byte	0x5
 3529 040a BF       		.byte	0xbf
 3530 040b 8B030000 		.4byte	0x38b
 3531 040f F1       		.byte	0xf1
 3532 0410 0B       		.uleb128 0xb
 3533 0411 9F090000 		.4byte	.LASF70
 3534 0415 05       		.byte	0x5
 3535 0416 C0       		.byte	0xc0
 3536 0417 81000000 		.4byte	0x81
 3537 041b FF       		.byte	0xff
 3538 041c 0C       		.uleb128 0xc
 3539 041d AB070000 		.4byte	.LASF71
 3540 0421 05       		.byte	0x5
 3541 0422 C1       		.byte	0xc1
 3542 0423 81000000 		.4byte	0x81
 3543 0427 0001     		.2byte	0x100
 3544 0429 0C       		.uleb128 0xc
 3545 042a E9010000 		.4byte	.LASF72
 3546 042e 05       		.byte	0x5
 3547 042f C2       		.byte	0xc2
 3548 0430 81000000 		.4byte	0x81
 3549 0434 0101     		.2byte	0x101
 3550 0436 0C       		.uleb128 0xc
 3551 0437 AB060000 		.4byte	.LASF73
 3552 043b 05       		.byte	0x5
 3553 043c C3       		.byte	0xc3
 3554 043d 81000000 		.4byte	0x81
 3555 0441 0201     		.2byte	0x102
 3556 0443 0C       		.uleb128 0xc
 3557 0444 240A0000 		.4byte	.LASF74
 3558 0448 05       		.byte	0x5
 3559 0449 C4       		.byte	0xc4
 3560 044a 81000000 		.4byte	0x81
 3561 044e 0301     		.2byte	0x103
 3562 0450 0C       		.uleb128 0xc
 3563 0451 03040000 		.4byte	.LASF75
 3564 0455 05       		.byte	0x5
 3565 0456 C5       		.byte	0xc5
 3566 0457 81000000 		.4byte	0x81
 3567 045b 0401     		.2byte	0x104
 3568 045d 0C       		.uleb128 0xc
 3569 045e 56010000 		.4byte	.LASF76
 3570 0462 05       		.byte	0x5
 3571 0463 C6       		.byte	0xc6
 3572 0464 81000000 		.4byte	0x81
 3573 0468 0501     		.2byte	0x105
 3574 046a 0C       		.uleb128 0xc
 3575 046b C1090000 		.4byte	.LASF77
 3576 046f 05       		.byte	0x5
 3577 0470 C7       		.byte	0xc7
 3578 0471 81000000 		.4byte	0x81
 3579 0475 0601     		.2byte	0x106
 3580 0477 0C       		.uleb128 0xc
 3581 0478 6E000000 		.4byte	.LASF78
 3582 047c 05       		.byte	0x5
ARM GAS  C:\Users\RECEPC~1\AppData\Local\Temp\ccIFDC7N.s 			page 80


 3583 047d C8       		.byte	0xc8
 3584 047e 81000000 		.4byte	0x81
 3585 0482 0701     		.2byte	0x107
 3586 0484 00       		.byte	0
 3587 0485 08       		.uleb128 0x8
 3588 0486 81000000 		.4byte	0x81
 3589 048a A1040000 		.4byte	0x4a1
 3590 048e 09       		.uleb128 0x9
 3591 048f E8000000 		.4byte	0xe8
 3592 0493 03       		.byte	0x3
 3593 0494 09       		.uleb128 0x9
 3594 0495 E8000000 		.4byte	0xe8
 3595 0499 02       		.byte	0x2
 3596 049a 09       		.uleb128 0x9
 3597 049b E8000000 		.4byte	0xe8
 3598 049f 0E       		.byte	0xe
 3599 04a0 00       		.byte	0
 3600 04a1 08       		.uleb128 0x8
 3601 04a2 81000000 		.4byte	0x81
 3602 04a6 B7040000 		.4byte	0x4b7
 3603 04aa 09       		.uleb128 0x9
 3604 04ab E8000000 		.4byte	0xe8
 3605 04af 03       		.byte	0x3
 3606 04b0 09       		.uleb128 0x9
 3607 04b1 E8000000 		.4byte	0xe8
 3608 04b5 07       		.byte	0x7
 3609 04b6 00       		.byte	0
 3610 04b7 0A       		.uleb128 0xa
 3611 04b8 B3080000 		.4byte	.LASF79
 3612 04bc 2004     		.2byte	0x420
 3613 04be 05       		.byte	0x5
 3614 04bf CB       		.byte	0xcb
 3615 04c0 F0040000 		.4byte	0x4f0
 3616 04c4 0D       		.uleb128 0xd
 3617 04c5 6100     		.ascii	"a\000"
 3618 04c7 05       		.byte	0x5
 3619 04c8 CC       		.byte	0xcc
 3620 04c9 BB030000 		.4byte	0x3bb
 3621 04cd 00       		.byte	0
 3622 04ce 0E       		.uleb128 0xe
 3623 04cf 6200     		.ascii	"b\000"
 3624 04d1 05       		.byte	0x5
 3625 04d2 CD       		.byte	0xcd
 3626 04d3 BB030000 		.4byte	0x3bb
 3627 04d7 0801     		.2byte	0x108
 3628 04d9 0E       		.uleb128 0xe
 3629 04da 6300     		.ascii	"c\000"
 3630 04dc 05       		.byte	0x5
 3631 04dd CE       		.byte	0xce
 3632 04de BB030000 		.4byte	0x3bb
 3633 04e2 1002     		.2byte	0x210
 3634 04e4 0E       		.uleb128 0xe
 3635 04e5 6400     		.ascii	"d\000"
 3636 04e7 05       		.byte	0x5
 3637 04e8 CF       		.byte	0xcf
 3638 04e9 BB030000 		.4byte	0x3bb
 3639 04ed 1803     		.2byte	0x318
ARM GAS  C:\Users\RECEPC~1\AppData\Local\Temp\ccIFDC7N.s 			page 81


 3640 04ef 00       		.byte	0
 3641 04f0 0F       		.uleb128 0xf
 3642 04f1 5F020000 		.4byte	.LASF88
 3643 04f5 01       		.byte	0x1
 3644 04f6 05       		.byte	0x5
 3645 04f7 3001     		.2byte	0x130
 3646 04f9 2E050000 		.4byte	0x52e
 3647 04fd 10       		.uleb128 0x10
 3648 04fe FC000000 		.4byte	.LASF80
 3649 0502 00       		.sleb128 0
 3650 0503 10       		.uleb128 0x10
 3651 0504 94010000 		.4byte	.LASF81
 3652 0508 06       		.sleb128 6
 3653 0509 10       		.uleb128 0x10
 3654 050a 31050000 		.4byte	.LASF82
 3655 050e 07       		.sleb128 7
 3656 050f 10       		.uleb128 0x10
 3657 0510 67050000 		.4byte	.LASF83
 3658 0514 08       		.sleb128 8
 3659 0515 10       		.uleb128 0x10
 3660 0516 8C030000 		.4byte	.LASF84
 3661 051a 09       		.sleb128 9
 3662 051b 10       		.uleb128 0x10
 3663 051c B8080000 		.4byte	.LASF85
 3664 0520 0A       		.sleb128 10
 3665 0521 10       		.uleb128 0x10
 3666 0522 2D020000 		.4byte	.LASF86
 3667 0526 0B       		.sleb128 11
 3668 0527 10       		.uleb128 0x10
 3669 0528 B6030000 		.4byte	.LASF87
 3670 052c 0C       		.sleb128 12
 3671 052d 00       		.byte	0
 3672 052e 0F       		.uleb128 0xf
 3673 052f E4020000 		.4byte	.LASF89
 3674 0533 01       		.byte	0x1
 3675 0534 05       		.byte	0x5
 3676 0535 3C01     		.2byte	0x13c
 3677 0537 72050000 		.4byte	0x572
 3678 053b 10       		.uleb128 0x10
 3679 053c 84050000 		.4byte	.LASF90
 3680 0540 08       		.sleb128 8
 3681 0541 10       		.uleb128 0x10
 3682 0542 96070000 		.4byte	.LASF91
 3683 0546 01       		.sleb128 1
 3684 0547 10       		.uleb128 0x10
 3685 0548 C8070000 		.4byte	.LASF92
 3686 054c 02       		.sleb128 2
 3687 054d 10       		.uleb128 0x10
 3688 054e 73040000 		.4byte	.LASF93
 3689 0552 03       		.sleb128 3
 3690 0553 10       		.uleb128 0x10
 3691 0554 1D020000 		.4byte	.LASF94
 3692 0558 05       		.sleb128 5
 3693 0559 10       		.uleb128 0x10
 3694 055a C5060000 		.4byte	.LASF95
 3695 055e 06       		.sleb128 6
 3696 055f 10       		.uleb128 0x10
ARM GAS  C:\Users\RECEPC~1\AppData\Local\Temp\ccIFDC7N.s 			page 82


 3697 0560 23090000 		.4byte	.LASF96
 3698 0564 04       		.sleb128 4
 3699 0565 10       		.uleb128 0x10
 3700 0566 A3080000 		.4byte	.LASF97
 3701 056a 0B       		.sleb128 11
 3702 056b 10       		.uleb128 0x10
 3703 056c 1F040000 		.4byte	.LASF98
 3704 0570 0C       		.sleb128 12
 3705 0571 00       		.byte	0
 3706 0572 11       		.uleb128 0x11
 3707 0573 04       		.byte	0x4
 3708 0574 78050000 		.4byte	0x578
 3709 0578 12       		.uleb128 0x12
 3710 0579 13       		.uleb128 0x13
 3711 057a 85040000 		.4byte	.LASF204
 3712 057e 01       		.byte	0x1
 3713 057f 17       		.byte	0x17
 3714 0580 81000000 		.4byte	0x81
 3715 0584 00000000 		.4byte	.LFB63
 3716 0588 34000000 		.4byte	.LFE63-.LFB63
 3717 058c 01       		.uleb128 0x1
 3718 058d 9C       		.byte	0x9c
 3719 058e 0B060000 		.4byte	0x60b
 3720 0592 14       		.uleb128 0x14
 3721 0593 35040000 		.4byte	.LASF99
 3722 0597 01       		.byte	0x1
 3723 0598 17       		.byte	0x17
 3724 0599 0B060000 		.4byte	0x60b
 3725 059d 00000000 		.4byte	.LLST0
 3726 05a1 14       		.uleb128 0x14
 3727 05a2 5B050000 		.4byte	.LASF100
 3728 05a6 01       		.byte	0x1
 3729 05a7 17       		.byte	0x17
 3730 05a8 8D000000 		.4byte	0x8d
 3731 05ac 2C000000 		.4byte	.LLST1
 3732 05b0 15       		.uleb128 0x15
 3733 05b1 A4010000 		.4byte	.LASF101
 3734 05b5 01       		.byte	0x1
 3735 05b6 18       		.byte	0x18
 3736 05b7 81000000 		.4byte	0x81
 3737 05bb 4D000000 		.4byte	.LLST2
 3738 05bf 15       		.uleb128 0x15
 3739 05c0 B4010000 		.4byte	.LASF102
 3740 05c4 01       		.byte	0x1
 3741 05c5 18       		.byte	0x18
 3742 05c6 81000000 		.4byte	0x81
 3743 05ca 77000000 		.4byte	.LLST3
 3744 05ce 16       		.uleb128 0x16
 3745 05cf 6900     		.ascii	"i\000"
 3746 05d1 01       		.byte	0x1
 3747 05d2 19       		.byte	0x19
 3748 05d3 8D000000 		.4byte	0x8d
 3749 05d7 8A000000 		.4byte	.LLST4
 3750 05db 17       		.uleb128 0x17
 3751 05dc DB030000 		.4byte	.LASF103
 3752 05e0 01       		.byte	0x1
 3753 05e1 1A       		.byte	0x1a
ARM GAS  C:\Users\RECEPC~1\AppData\Local\Temp\ccIFDC7N.s 			page 83


 3754 05e2 11060000 		.4byte	0x611
 3755 05e6 03       		.uleb128 0x3
 3756 05e7 91       		.byte	0x91
 3757 05e8 F07D     		.sleb128 -272
 3758 05ea 18       		.uleb128 0x18
 3759 05eb 14000000 		.4byte	.LVL3
 3760 05ef C30F0000 		.4byte	0xfc3
 3761 05f3 19       		.uleb128 0x19
 3762 05f4 01       		.uleb128 0x1
 3763 05f5 52       		.byte	0x52
 3764 05f6 03       		.uleb128 0x3
 3765 05f7 0A       		.byte	0xa
 3766 05f8 0001     		.2byte	0x100
 3767 05fa 19       		.uleb128 0x19
 3768 05fb 01       		.uleb128 0x1
 3769 05fc 51       		.byte	0x51
 3770 05fd 05       		.uleb128 0x5
 3771 05fe 03       		.byte	0x3
 3772 05ff 00000000 		.4byte	.LANCHOR0
 3773 0603 19       		.uleb128 0x19
 3774 0604 01       		.uleb128 0x1
 3775 0605 50       		.byte	0x50
 3776 0606 02       		.uleb128 0x2
 3777 0607 7D       		.byte	0x7d
 3778 0608 00       		.sleb128 0
 3779 0609 00       		.byte	0
 3780 060a 00       		.byte	0
 3781 060b 11       		.uleb128 0x11
 3782 060c 04       		.byte	0x4
 3783 060d 81000000 		.4byte	0x81
 3784 0611 08       		.uleb128 0x8
 3785 0612 81000000 		.4byte	0x81
 3786 0616 21060000 		.4byte	0x621
 3787 061a 09       		.uleb128 0x9
 3788 061b E8000000 		.4byte	0xe8
 3789 061f FF       		.byte	0xff
 3790 0620 00       		.byte	0
 3791 0621 1A       		.uleb128 0x1a
 3792 0622 88000000 		.4byte	.LASF104
 3793 0626 01       		.byte	0x1
 3794 0627 4E01     		.2byte	0x14e
 3795 0629 00000000 		.4byte	.LFB65
 3796 062d E4020000 		.4byte	.LFE65-.LFB65
 3797 0631 01       		.uleb128 0x1
 3798 0632 9C       		.byte	0x9c
 3799 0633 94060000 		.4byte	0x694
 3800 0637 1B       		.uleb128 0x1b
 3801 0638 7800     		.ascii	"x\000"
 3802 063a 01       		.byte	0x1
 3803 063b 4F01     		.2byte	0x14f
 3804 063d 8D000000 		.4byte	0x8d
 3805 0641 B4000000 		.4byte	.LLST5
 3806 0645 1C       		.uleb128 0x1c
 3807 0646 FC000000 		.4byte	.LVL27
 3808 064a 79050000 		.4byte	0x579
 3809 064e 5F060000 		.4byte	0x65f
 3810 0652 19       		.uleb128 0x19
ARM GAS  C:\Users\RECEPC~1\AppData\Local\Temp\ccIFDC7N.s 			page 84


 3811 0653 01       		.uleb128 0x1
 3812 0654 51       		.byte	0x51
 3813 0655 02       		.uleb128 0x2
 3814 0656 08       		.byte	0x8
 3815 0657 27       		.byte	0x27
 3816 0658 19       		.uleb128 0x19
 3817 0659 01       		.uleb128 0x1
 3818 065a 50       		.byte	0x50
 3819 065b 02       		.uleb128 0x2
 3820 065c 75       		.byte	0x75
 3821 065d 00       		.sleb128 0
 3822 065e 00       		.byte	0
 3823 065f 1D       		.uleb128 0x1d
 3824 0660 0A010000 		.4byte	.LVL30
 3825 0664 E00F0000 		.4byte	0xfe0
 3826 0668 1C       		.uleb128 0x1c
 3827 0669 6E020000 		.4byte	.LVL57
 3828 066d 79050000 		.4byte	0x579
 3829 0671 81060000 		.4byte	0x681
 3830 0675 19       		.uleb128 0x19
 3831 0676 01       		.uleb128 0x1
 3832 0677 51       		.byte	0x51
 3833 0678 01       		.uleb128 0x1
 3834 0679 4F       		.byte	0x4f
 3835 067a 19       		.uleb128 0x19
 3836 067b 01       		.uleb128 0x1
 3837 067c 50       		.byte	0x50
 3838 067d 02       		.uleb128 0x2
 3839 067e 75       		.byte	0x75
 3840 067f 00       		.sleb128 0
 3841 0680 00       		.byte	0
 3842 0681 1D       		.uleb128 0x1d
 3843 0682 7A020000 		.4byte	.LVL60
 3844 0686 E00F0000 		.4byte	0xfe0
 3845 068a 1D       		.uleb128 0x1d
 3846 068b B0020000 		.4byte	.LVL64
 3847 068f F10F0000 		.4byte	0xff1
 3848 0693 00       		.byte	0
 3849 0694 1A       		.uleb128 0x1a
 3850 0695 B7050000 		.4byte	.LASF105
 3851 0699 01       		.byte	0x1
 3852 069a DE01     		.2byte	0x1de
 3853 069c 00000000 		.4byte	.LFB66
 3854 06a0 F8020000 		.4byte	.LFE66-.LFB66
 3855 06a4 01       		.uleb128 0x1
 3856 06a5 9C       		.byte	0x9c
 3857 06a6 2D070000 		.4byte	0x72d
 3858 06aa 1B       		.uleb128 0x1b
 3859 06ab 7800     		.ascii	"x\000"
 3860 06ad 01       		.byte	0x1
 3861 06ae DF01     		.2byte	0x1df
 3862 06b0 8D000000 		.4byte	0x8d
 3863 06b4 E7010000 		.4byte	.LLST6
 3864 06b8 1C       		.uleb128 0x1c
 3865 06b9 FE000000 		.4byte	.LVL82
 3866 06bd 79050000 		.4byte	0x579
 3867 06c1 D2060000 		.4byte	0x6d2
ARM GAS  C:\Users\RECEPC~1\AppData\Local\Temp\ccIFDC7N.s 			page 85


 3868 06c5 19       		.uleb128 0x19
 3869 06c6 01       		.uleb128 0x1
 3870 06c7 51       		.byte	0x51
 3871 06c8 02       		.uleb128 0x2
 3872 06c9 08       		.byte	0x8
 3873 06ca 27       		.byte	0x27
 3874 06cb 19       		.uleb128 0x19
 3875 06cc 01       		.uleb128 0x1
 3876 06cd 50       		.byte	0x50
 3877 06ce 02       		.uleb128 0x2
 3878 06cf 75       		.byte	0x75
 3879 06d0 00       		.sleb128 0
 3880 06d1 00       		.byte	0
 3881 06d2 1D       		.uleb128 0x1d
 3882 06d3 0C010000 		.4byte	.LVL85
 3883 06d7 E00F0000 		.4byte	0xfe0
 3884 06db 1C       		.uleb128 0x1c
 3885 06dc 72020000 		.4byte	.LVL112
 3886 06e0 79050000 		.4byte	0x579
 3887 06e4 F4060000 		.4byte	0x6f4
 3888 06e8 19       		.uleb128 0x19
 3889 06e9 01       		.uleb128 0x1
 3890 06ea 51       		.byte	0x51
 3891 06eb 01       		.uleb128 0x1
 3892 06ec 4F       		.byte	0x4f
 3893 06ed 19       		.uleb128 0x19
 3894 06ee 01       		.uleb128 0x1
 3895 06ef 50       		.byte	0x50
 3896 06f0 02       		.uleb128 0x2
 3897 06f1 75       		.byte	0x75
 3898 06f2 00       		.sleb128 0
 3899 06f3 00       		.byte	0
 3900 06f4 1C       		.uleb128 0x1c
 3901 06f5 7A020000 		.4byte	.LVL113
 3902 06f9 10100000 		.4byte	0x1010
 3903 06fd 07070000 		.4byte	0x707
 3904 0701 19       		.uleb128 0x19
 3905 0702 01       		.uleb128 0x1
 3906 0703 50       		.byte	0x50
 3907 0704 01       		.uleb128 0x1
 3908 0705 3A       		.byte	0x3a
 3909 0706 00       		.byte	0
 3910 0707 1D       		.uleb128 0x1d
 3911 0708 84020000 		.4byte	.LVL115
 3912 070c E00F0000 		.4byte	0xfe0
 3913 0710 1C       		.uleb128 0x1c
 3914 0711 92020000 		.4byte	.LVL118
 3915 0715 10100000 		.4byte	0x1010
 3916 0719 23070000 		.4byte	0x723
 3917 071d 19       		.uleb128 0x19
 3918 071e 01       		.uleb128 0x1
 3919 071f 50       		.byte	0x50
 3920 0720 01       		.uleb128 0x1
 3921 0721 3A       		.byte	0x3a
 3922 0722 00       		.byte	0
 3923 0723 1D       		.uleb128 0x1d
 3924 0724 C4020000 		.4byte	.LVL120
ARM GAS  C:\Users\RECEPC~1\AppData\Local\Temp\ccIFDC7N.s 			page 86


 3925 0728 F10F0000 		.4byte	0xff1
 3926 072c 00       		.byte	0
 3927 072d 1E       		.uleb128 0x1e
 3928 072e 21000000 		.4byte	.LASF106
 3929 0732 01       		.byte	0x1
 3930 0733 36       		.byte	0x36
 3931 0734 00000000 		.4byte	.LFB64
 3932 0738 FC070000 		.4byte	.LFE64-.LFB64
 3933 073c 01       		.uleb128 0x1
 3934 073d 9C       		.byte	0x9c
 3935 073e 9F090000 		.4byte	0x99f
 3936 0742 16       		.uleb128 0x16
 3937 0743 6900     		.ascii	"i\000"
 3938 0745 01       		.byte	0x1
 3939 0746 37       		.byte	0x37
 3940 0747 8D000000 		.4byte	0x8d
 3941 074b 1A030000 		.4byte	.LLST7
 3942 074f 16       		.uleb128 0x16
 3943 0750 7800     		.ascii	"x\000"
 3944 0752 01       		.byte	0x1
 3945 0753 37       		.byte	0x37
 3946 0754 8D000000 		.4byte	0x8d
 3947 0758 A7030000 		.4byte	.LLST8
 3948 075c 16       		.uleb128 0x16
 3949 075d 7900     		.ascii	"y\000"
 3950 075f 01       		.byte	0x1
 3951 0760 37       		.byte	0x37
 3952 0761 8D000000 		.4byte	0x8d
 3953 0765 FD060000 		.4byte	.LLST9
 3954 0769 16       		.uleb128 0x16
 3955 076a 7A00     		.ascii	"z\000"
 3956 076c 01       		.byte	0x1
 3957 076d 37       		.byte	0x37
 3958 076e 8D000000 		.4byte	0x8d
 3959 0772 BF0A0000 		.4byte	.LLST10
 3960 0776 1C       		.uleb128 0x1c
 3961 0777 08000000 		.4byte	.LVL121
 3962 077b 10100000 		.4byte	0x1010
 3963 077f 89070000 		.4byte	0x789
 3964 0783 19       		.uleb128 0x19
 3965 0784 01       		.uleb128 0x1
 3966 0785 50       		.byte	0x50
 3967 0786 01       		.uleb128 0x1
 3968 0787 4E       		.byte	0x4e
 3969 0788 00       		.byte	0
 3970 0789 1D       		.uleb128 0x1d
 3971 078a 0C000000 		.4byte	.LVL122
 3972 078e 21100000 		.4byte	0x1021
 3973 0792 1D       		.uleb128 0x1d
 3974 0793 24000000 		.4byte	.LVL125
 3975 0797 2C100000 		.4byte	0x102c
 3976 079b 1D       		.uleb128 0x1d
 3977 079c 30000000 		.4byte	.LVL128
 3978 07a0 21100000 		.4byte	0x1021
 3979 07a4 1C       		.uleb128 0x1c
 3980 07a5 DE000000 		.4byte	.LVL139
 3981 07a9 79050000 		.4byte	0x579
ARM GAS  C:\Users\RECEPC~1\AppData\Local\Temp\ccIFDC7N.s 			page 87


 3982 07ad BD070000 		.4byte	0x7bd
 3983 07b1 19       		.uleb128 0x19
 3984 07b2 01       		.uleb128 0x1
 3985 07b3 51       		.byte	0x51
 3986 07b4 01       		.uleb128 0x1
 3987 07b5 39       		.byte	0x39
 3988 07b6 19       		.uleb128 0x19
 3989 07b7 01       		.uleb128 0x1
 3990 07b8 50       		.byte	0x50
 3991 07b9 02       		.uleb128 0x2
 3992 07ba 74       		.byte	0x74
 3993 07bb 00       		.sleb128 0
 3994 07bc 00       		.byte	0
 3995 07bd 1D       		.uleb128 0x1d
 3996 07be EC000000 		.4byte	.LVL142
 3997 07c2 E00F0000 		.4byte	0xfe0
 3998 07c6 1D       		.uleb128 0x1d
 3999 07c7 FC000000 		.4byte	.LVL147
 4000 07cb 21060000 		.4byte	0x621
 4001 07cf 1C       		.uleb128 0x1c
 4002 07d0 3E010000 		.4byte	.LVL155
 4003 07d4 79050000 		.4byte	0x579
 4004 07d8 E3070000 		.4byte	0x7e3
 4005 07dc 19       		.uleb128 0x19
 4006 07dd 01       		.uleb128 0x1
 4007 07de 50       		.byte	0x50
 4008 07df 02       		.uleb128 0x2
 4009 07e0 75       		.byte	0x75
 4010 07e1 00       		.sleb128 0
 4011 07e2 00       		.byte	0
 4012 07e3 1D       		.uleb128 0x1d
 4013 07e4 50010000 		.4byte	.LVL159
 4014 07e8 E00F0000 		.4byte	0xfe0
 4015 07ec 1D       		.uleb128 0x1d
 4016 07ed 5E010000 		.4byte	.LVL163
 4017 07f1 94060000 		.4byte	0x694
 4018 07f5 1C       		.uleb128 0x1c
 4019 07f6 92010000 		.4byte	.LVL168
 4020 07fa 79050000 		.4byte	0x579
 4021 07fe 09080000 		.4byte	0x809
 4022 0802 19       		.uleb128 0x19
 4023 0803 01       		.uleb128 0x1
 4024 0804 50       		.byte	0x50
 4025 0805 02       		.uleb128 0x2
 4026 0806 75       		.byte	0x75
 4027 0807 00       		.sleb128 0
 4028 0808 00       		.byte	0
 4029 0809 1D       		.uleb128 0x1d
 4030 080a A4010000 		.4byte	.LVL172
 4031 080e E00F0000 		.4byte	0xfe0
 4032 0812 1C       		.uleb128 0x1c
 4033 0813 E2010000 		.4byte	.LVL180
 4034 0817 79050000 		.4byte	0x579
 4035 081b 26080000 		.4byte	0x826
 4036 081f 19       		.uleb128 0x19
 4037 0820 01       		.uleb128 0x1
 4038 0821 50       		.byte	0x50
ARM GAS  C:\Users\RECEPC~1\AppData\Local\Temp\ccIFDC7N.s 			page 88


 4039 0822 02       		.uleb128 0x2
 4040 0823 75       		.byte	0x75
 4041 0824 00       		.sleb128 0
 4042 0825 00       		.byte	0
 4043 0826 1D       		.uleb128 0x1d
 4044 0827 F4010000 		.4byte	.LVL184
 4045 082b E00F0000 		.4byte	0xfe0
 4046 082f 1D       		.uleb128 0x1d
 4047 0830 0E020000 		.4byte	.LVL188
 4048 0834 37100000 		.4byte	0x1037
 4049 0838 1D       		.uleb128 0x1d
 4050 0839 12030000 		.4byte	.LVL232
 4051 083d 37100000 		.4byte	0x1037
 4052 0841 1C       		.uleb128 0x1c
 4053 0842 0E040000 		.4byte	.LVL277
 4054 0846 79050000 		.4byte	0x579
 4055 084a 5B080000 		.4byte	0x85b
 4056 084e 19       		.uleb128 0x19
 4057 084f 01       		.uleb128 0x1
 4058 0850 51       		.byte	0x51
 4059 0851 02       		.uleb128 0x2
 4060 0852 75       		.byte	0x75
 4061 0853 00       		.sleb128 0
 4062 0854 19       		.uleb128 0x19
 4063 0855 01       		.uleb128 0x1
 4064 0856 50       		.byte	0x50
 4065 0857 02       		.uleb128 0x2
 4066 0858 76       		.byte	0x76
 4067 0859 00       		.sleb128 0
 4068 085a 00       		.byte	0
 4069 085b 1D       		.uleb128 0x1d
 4070 085c 1C040000 		.4byte	.LVL280
 4071 0860 E00F0000 		.4byte	0xfe0
 4072 0864 1C       		.uleb128 0x1c
 4073 0865 76050000 		.4byte	.LVL328
 4074 0869 79050000 		.4byte	0x579
 4075 086d 7E080000 		.4byte	0x87e
 4076 0871 19       		.uleb128 0x19
 4077 0872 01       		.uleb128 0x1
 4078 0873 51       		.byte	0x51
 4079 0874 02       		.uleb128 0x2
 4080 0875 75       		.byte	0x75
 4081 0876 00       		.sleb128 0
 4082 0877 19       		.uleb128 0x19
 4083 0878 01       		.uleb128 0x1
 4084 0879 50       		.byte	0x50
 4085 087a 02       		.uleb128 0x2
 4086 087b 76       		.byte	0x76
 4087 087c 00       		.sleb128 0
 4088 087d 00       		.byte	0
 4089 087e 1D       		.uleb128 0x1d
 4090 087f 84050000 		.4byte	.LVL331
 4091 0883 E00F0000 		.4byte	0xfe0
 4092 0887 1C       		.uleb128 0x1c
 4093 0888 14060000 		.4byte	.LVL336
 4094 088c 79050000 		.4byte	0x579
 4095 0890 A0080000 		.4byte	0x8a0
ARM GAS  C:\Users\RECEPC~1\AppData\Local\Temp\ccIFDC7N.s 			page 89


 4096 0894 19       		.uleb128 0x19
 4097 0895 01       		.uleb128 0x1
 4098 0896 51       		.byte	0x51
 4099 0897 01       		.uleb128 0x1
 4100 0898 39       		.byte	0x39
 4101 0899 19       		.uleb128 0x19
 4102 089a 01       		.uleb128 0x1
 4103 089b 50       		.byte	0x50
 4104 089c 02       		.uleb128 0x2
 4105 089d 74       		.byte	0x74
 4106 089e 00       		.sleb128 0
 4107 089f 00       		.byte	0
 4108 08a0 1D       		.uleb128 0x1d
 4109 08a1 22060000 		.4byte	.LVL339
 4110 08a5 E00F0000 		.4byte	0xfe0
 4111 08a9 1D       		.uleb128 0x1d
 4112 08aa B8060000 		.4byte	.LVL360
 4113 08ae 4C100000 		.4byte	0x104c
 4114 08b2 1D       		.uleb128 0x1d
 4115 08b3 BC060000 		.4byte	.LVL361
 4116 08b7 57100000 		.4byte	0x1057
 4117 08bb 1C       		.uleb128 0x1c
 4118 08bc CE060000 		.4byte	.LVL364
 4119 08c0 62100000 		.4byte	0x1062
 4120 08c4 CF080000 		.4byte	0x8cf
 4121 08c8 19       		.uleb128 0x19
 4122 08c9 01       		.uleb128 0x1
 4123 08ca 51       		.byte	0x51
 4124 08cb 02       		.uleb128 0x2
 4125 08cc 74       		.byte	0x74
 4126 08cd 10       		.sleb128 16
 4127 08ce 00       		.byte	0
 4128 08cf 1C       		.uleb128 0x1c
 4129 08d0 EC060000 		.4byte	.LVL369
 4130 08d4 62100000 		.4byte	0x1062
 4131 08d8 E3080000 		.4byte	0x8e3
 4132 08dc 19       		.uleb128 0x19
 4133 08dd 01       		.uleb128 0x1
 4134 08de 51       		.byte	0x51
 4135 08df 02       		.uleb128 0x2
 4136 08e0 74       		.byte	0x74
 4137 08e1 10       		.sleb128 16
 4138 08e2 00       		.byte	0
 4139 08e3 1C       		.uleb128 0x1c
 4140 08e4 0A070000 		.4byte	.LVL374
 4141 08e8 62100000 		.4byte	0x1062
 4142 08ec F7080000 		.4byte	0x8f7
 4143 08f0 19       		.uleb128 0x19
 4144 08f1 01       		.uleb128 0x1
 4145 08f2 51       		.byte	0x51
 4146 08f3 02       		.uleb128 0x2
 4147 08f4 74       		.byte	0x74
 4148 08f5 10       		.sleb128 16
 4149 08f6 00       		.byte	0
 4150 08f7 1C       		.uleb128 0x1c
 4151 08f8 28070000 		.4byte	.LVL379
 4152 08fc 62100000 		.4byte	0x1062
ARM GAS  C:\Users\RECEPC~1\AppData\Local\Temp\ccIFDC7N.s 			page 90


 4153 0900 0B090000 		.4byte	0x90b
 4154 0904 19       		.uleb128 0x19
 4155 0905 01       		.uleb128 0x1
 4156 0906 51       		.byte	0x51
 4157 0907 02       		.uleb128 0x2
 4158 0908 74       		.byte	0x74
 4159 0909 10       		.sleb128 16
 4160 090a 00       		.byte	0
 4161 090b 1C       		.uleb128 0x1c
 4162 090c 36070000 		.4byte	.LVL382
 4163 0910 7C100000 		.4byte	0x107c
 4164 0914 1E090000 		.4byte	0x91e
 4165 0918 19       		.uleb128 0x19
 4166 0919 01       		.uleb128 0x1
 4167 091a 50       		.byte	0x50
 4168 091b 01       		.uleb128 0x1
 4169 091c 3C       		.byte	0x3c
 4170 091d 00       		.byte	0
 4171 091e 1C       		.uleb128 0x1c
 4172 091f 40070000 		.4byte	.LVL384
 4173 0923 7C100000 		.4byte	0x107c
 4174 0927 31090000 		.4byte	0x931
 4175 092b 19       		.uleb128 0x19
 4176 092c 01       		.uleb128 0x1
 4177 092d 50       		.byte	0x50
 4178 092e 01       		.uleb128 0x1
 4179 092f 3D       		.byte	0x3d
 4180 0930 00       		.byte	0
 4181 0931 1C       		.uleb128 0x1c
 4182 0932 4A070000 		.4byte	.LVL385
 4183 0936 7C100000 		.4byte	0x107c
 4184 093a 44090000 		.4byte	0x944
 4185 093e 19       		.uleb128 0x19
 4186 093f 01       		.uleb128 0x1
 4187 0940 50       		.byte	0x50
 4188 0941 01       		.uleb128 0x1
 4189 0942 3E       		.byte	0x3e
 4190 0943 00       		.byte	0
 4191 0944 1C       		.uleb128 0x1c
 4192 0945 54070000 		.4byte	.LVL386
 4193 0949 7C100000 		.4byte	0x107c
 4194 094d 57090000 		.4byte	0x957
 4195 0951 19       		.uleb128 0x19
 4196 0952 01       		.uleb128 0x1
 4197 0953 50       		.byte	0x50
 4198 0954 01       		.uleb128 0x1
 4199 0955 3F       		.byte	0x3f
 4200 0956 00       		.byte	0
 4201 0957 1D       		.uleb128 0x1d
 4202 0958 62070000 		.4byte	.LVL387
 4203 095c 91100000 		.4byte	0x1091
 4204 0960 1C       		.uleb128 0x1c
 4205 0961 80070000 		.4byte	.LVL390
 4206 0965 79050000 		.4byte	0x579
 4207 0969 79090000 		.4byte	0x979
 4208 096d 19       		.uleb128 0x19
 4209 096e 01       		.uleb128 0x1
ARM GAS  C:\Users\RECEPC~1\AppData\Local\Temp\ccIFDC7N.s 			page 91


 4210 096f 51       		.byte	0x51
 4211 0970 01       		.uleb128 0x1
 4212 0971 3A       		.byte	0x3a
 4213 0972 19       		.uleb128 0x19
 4214 0973 01       		.uleb128 0x1
 4215 0974 50       		.byte	0x50
 4216 0975 02       		.uleb128 0x2
 4217 0976 74       		.byte	0x74
 4218 0977 00       		.sleb128 0
 4219 0978 00       		.byte	0
 4220 0979 1D       		.uleb128 0x1d
 4221 097a 8E070000 		.4byte	.LVL393
 4222 097e E00F0000 		.4byte	0xfe0
 4223 0982 1C       		.uleb128 0x1c
 4224 0983 BC070000 		.4byte	.LVL400
 4225 0987 62100000 		.4byte	0x1062
 4226 098b 95090000 		.4byte	0x995
 4227 098f 19       		.uleb128 0x19
 4228 0990 01       		.uleb128 0x1
 4229 0991 51       		.byte	0x51
 4230 0992 01       		.uleb128 0x1
 4231 0993 37       		.byte	0x37
 4232 0994 00       		.byte	0
 4233 0995 1D       		.uleb128 0x1d
 4234 0996 C0070000 		.4byte	.LVL401
 4235 099a A7100000 		.4byte	0x10a7
 4236 099e 00       		.byte	0
 4237 099f 1F       		.uleb128 0x1f
 4238 09a0 59060000 		.4byte	.LASF107
 4239 09a4 06       		.byte	0x6
 4240 09a5 5506     		.2byte	0x655
 4241 09a7 AB090000 		.4byte	0x9ab
 4242 09ab 06       		.uleb128 0x6
 4243 09ac 76000000 		.4byte	0x76
 4244 09b0 20       		.uleb128 0x20
 4245 09b1 C8040000 		.4byte	.LASF108
 4246 09b5 05       		.byte	0x5
 4247 09b6 2C       		.byte	0x2c
 4248 09b7 C1090000 		.4byte	0x9c1
 4249 09bb 05       		.uleb128 0x5
 4250 09bc 03       		.byte	0x3
 4251 09bd 00000000 		.4byte	countAnimation1
 4252 09c1 06       		.uleb128 0x6
 4253 09c2 B3000000 		.4byte	0xb3
 4254 09c6 20       		.uleb128 0x20
 4255 09c7 06050000 		.4byte	.LASF109
 4256 09cb 05       		.byte	0x5
 4257 09cc 2D       		.byte	0x2d
 4258 09cd C1090000 		.4byte	0x9c1
 4259 09d1 05       		.uleb128 0x5
 4260 09d2 03       		.byte	0x3
 4261 09d3 00000000 		.4byte	countAnimation2
 4262 09d7 20       		.uleb128 0x20
 4263 09d8 66000000 		.4byte	.LASF110
 4264 09dc 05       		.byte	0x5
 4265 09dd 2E       		.byte	0x2e
 4266 09de C1090000 		.4byte	0x9c1
ARM GAS  C:\Users\RECEPC~1\AppData\Local\Temp\ccIFDC7N.s 			page 92


 4267 09e2 05       		.uleb128 0x5
 4268 09e3 03       		.byte	0x3
 4269 09e4 00000000 		.4byte	countRX
 4270 09e8 20       		.uleb128 0x20
 4271 09e9 4E010000 		.4byte	.LASF111
 4272 09ed 05       		.byte	0x5
 4273 09ee 2F       		.byte	0x2f
 4274 09ef C1090000 		.4byte	0x9c1
 4275 09f3 05       		.uleb128 0x5
 4276 09f4 03       		.byte	0x3
 4277 09f5 00000000 		.4byte	countTX
 4278 09f9 20       		.uleb128 0x20
 4279 09fa 8E090000 		.4byte	.LASF112
 4280 09fe 05       		.byte	0x5
 4281 09ff 30       		.byte	0x30
 4282 0a00 C1090000 		.4byte	0x9c1
 4283 0a04 05       		.uleb128 0x5
 4284 0a05 03       		.byte	0x3
 4285 0a06 00000000 		.4byte	countPump
 4286 0a0a 20       		.uleb128 0x20
 4287 0a0b DB020000 		.4byte	.LASF113
 4288 0a0f 05       		.byte	0x5
 4289 0a10 31       		.byte	0x31
 4290 0a11 C1090000 		.4byte	0x9c1
 4291 0a15 05       		.uleb128 0x5
 4292 0a16 03       		.byte	0x3
 4293 0a17 00000000 		.4byte	countLCD
 4294 0a1b 20       		.uleb128 0x20
 4295 0a1c 19030000 		.4byte	.LASF114
 4296 0a20 05       		.byte	0x5
 4297 0a21 32       		.byte	0x32
 4298 0a22 E3000000 		.4byte	0xe3
 4299 0a26 05       		.uleb128 0x5
 4300 0a27 03       		.byte	0x3
 4301 0a28 00000000 		.4byte	flowDisplay1
 4302 0a2c 20       		.uleb128 0x20
 4303 0a2d 26030000 		.4byte	.LASF115
 4304 0a31 05       		.byte	0x5
 4305 0a32 33       		.byte	0x33
 4306 0a33 E3000000 		.4byte	0xe3
 4307 0a37 05       		.uleb128 0x5
 4308 0a38 03       		.byte	0x3
 4309 0a39 00000000 		.4byte	flowDisplay2
 4310 0a3d 20       		.uleb128 0x20
 4311 0a3e 33030000 		.4byte	.LASF116
 4312 0a42 05       		.byte	0x5
 4313 0a43 34       		.byte	0x34
 4314 0a44 E3000000 		.4byte	0xe3
 4315 0a48 05       		.uleb128 0x5
 4316 0a49 03       		.byte	0x3
 4317 0a4a 00000000 		.4byte	flowDisplay3
 4318 0a4e 20       		.uleb128 0x20
 4319 0a4f 40030000 		.4byte	.LASF117
 4320 0a53 05       		.byte	0x5
 4321 0a54 35       		.byte	0x35
 4322 0a55 E3000000 		.4byte	0xe3
 4323 0a59 05       		.uleb128 0x5
ARM GAS  C:\Users\RECEPC~1\AppData\Local\Temp\ccIFDC7N.s 			page 93


 4324 0a5a 03       		.byte	0x3
 4325 0a5b 00000000 		.4byte	flowDisplay4
 4326 0a5f 20       		.uleb128 0x20
 4327 0a60 C3030000 		.4byte	.LASF118
 4328 0a64 05       		.byte	0x5
 4329 0a65 36       		.byte	0x36
 4330 0a66 DE000000 		.4byte	0xde
 4331 0a6a 05       		.uleb128 0x5
 4332 0a6b 03       		.byte	0x3
 4333 0a6c 00000000 		.4byte	numberKeys1
 4334 0a70 20       		.uleb128 0x20
 4335 0a71 CF030000 		.4byte	.LASF119
 4336 0a75 05       		.byte	0x5
 4337 0a76 37       		.byte	0x37
 4338 0a77 DE000000 		.4byte	0xde
 4339 0a7b 05       		.uleb128 0x5
 4340 0a7c 03       		.byte	0x3
 4341 0a7d 00000000 		.4byte	numberKeys2
 4342 0a81 20       		.uleb128 0x20
 4343 0a82 DF050000 		.4byte	.LASF120
 4344 0a86 05       		.byte	0x5
 4345 0a87 38       		.byte	0x38
 4346 0a88 DE000000 		.4byte	0xde
 4347 0a8c 05       		.uleb128 0x5
 4348 0a8d 03       		.byte	0x3
 4349 0a8e 00000000 		.4byte	flagPoint1
 4350 0a92 20       		.uleb128 0x20
 4351 0a93 43010000 		.4byte	.LASF121
 4352 0a97 05       		.byte	0x5
 4353 0a98 39       		.byte	0x39
 4354 0a99 DE000000 		.4byte	0xde
 4355 0a9d 05       		.uleb128 0x5
 4356 0a9e 03       		.byte	0x3
 4357 0a9f 00000000 		.4byte	flagPoint2
 4358 0aa3 20       		.uleb128 0x20
 4359 0aa4 B2020000 		.4byte	.LASF122
 4360 0aa8 05       		.byte	0x5
 4361 0aa9 3A       		.byte	0x3a
 4362 0aaa DE000000 		.4byte	0xde
 4363 0aae 05       		.uleb128 0x5
 4364 0aaf 03       		.byte	0x3
 4365 0ab0 00000000 		.4byte	productNumber
 4366 0ab4 20       		.uleb128 0x20
 4367 0ab5 26070000 		.4byte	.LASF123
 4368 0ab9 05       		.byte	0x5
 4369 0aba 3B       		.byte	0x3b
 4370 0abb E3000000 		.4byte	0xe3
 4371 0abf 05       		.uleb128 0x5
 4372 0ac0 03       		.byte	0x3
 4373 0ac1 00000000 		.4byte	delayPicture1
 4374 0ac5 20       		.uleb128 0x20
 4375 0ac6 34070000 		.4byte	.LASF124
 4376 0aca 05       		.byte	0x5
 4377 0acb 3C       		.byte	0x3c
 4378 0acc E3000000 		.4byte	0xe3
 4379 0ad0 05       		.uleb128 0x5
 4380 0ad1 03       		.byte	0x3
ARM GAS  C:\Users\RECEPC~1\AppData\Local\Temp\ccIFDC7N.s 			page 94


 4381 0ad2 00000000 		.4byte	delayPicture2
 4382 0ad6 20       		.uleb128 0x20
 4383 0ad7 C5050000 		.4byte	.LASF125
 4384 0adb 05       		.byte	0x5
 4385 0adc 3D       		.byte	0x3d
 4386 0add DE000000 		.4byte	0xde
 4387 0ae1 05       		.uleb128 0x5
 4388 0ae2 03       		.byte	0x3
 4389 0ae3 00000000 		.4byte	ppux10
 4390 0ae7 20       		.uleb128 0x20
 4391 0ae8 B1000000 		.4byte	.LASF126
 4392 0aec 05       		.byte	0x5
 4393 0aed 3E       		.byte	0x3e
 4394 0aee DE000000 		.4byte	0xde
 4395 0af2 05       		.uleb128 0x5
 4396 0af3 03       		.byte	0x3
 4397 0af4 00000000 		.4byte	decimalMoney
 4398 0af8 20       		.uleb128 0x20
 4399 0af9 3F000000 		.4byte	.LASF127
 4400 0afd 05       		.byte	0x5
 4401 0afe 3F       		.byte	0x3f
 4402 0aff DE000000 		.4byte	0xde
 4403 0b03 05       		.uleb128 0x5
 4404 0b04 03       		.byte	0x3
 4405 0b05 00000000 		.4byte	decimalVolume
 4406 0b09 20       		.uleb128 0x20
 4407 0b0a FC050000 		.4byte	.LASF128
 4408 0b0e 05       		.byte	0x5
 4409 0b0f 40       		.byte	0x40
 4410 0b10 1A0B0000 		.4byte	0xb1a
 4411 0b14 05       		.uleb128 0x5
 4412 0b15 03       		.byte	0x3
 4413 0b16 00000000 		.4byte	symbols
 4414 0b1a 06       		.uleb128 0x6
 4415 0b1b 45030000 		.4byte	0x345
 4416 0b1f 08       		.uleb128 0x8
 4417 0b20 81000000 		.4byte	0x81
 4418 0b24 2F0B0000 		.4byte	0xb2f
 4419 0b28 09       		.uleb128 0x9
 4420 0b29 E8000000 		.4byte	0xe8
 4421 0b2d 02       		.byte	0x2
 4422 0b2e 00       		.byte	0
 4423 0b2f 20       		.uleb128 0x20
 4424 0b30 6D020000 		.4byte	.LASF129
 4425 0b34 05       		.byte	0x5
 4426 0b35 41       		.byte	0x41
 4427 0b36 400B0000 		.4byte	0xb40
 4428 0b3a 05       		.uleb128 0x5
 4429 0b3b 03       		.byte	0x3
 4430 0b3c 00000000 		.4byte	time
 4431 0b40 06       		.uleb128 0x6
 4432 0b41 1F0B0000 		.4byte	0xb1f
 4433 0b45 20       		.uleb128 0x20
 4434 0b46 FE030000 		.4byte	.LASF130
 4435 0b4a 05       		.byte	0x5
 4436 0b4b 42       		.byte	0x42
 4437 0b4c 560B0000 		.4byte	0xb56
ARM GAS  C:\Users\RECEPC~1\AppData\Local\Temp\ccIFDC7N.s 			page 95


 4438 0b50 05       		.uleb128 0x5
 4439 0b51 03       		.byte	0x3
 4440 0b52 00000000 		.4byte	date
 4441 0b56 06       		.uleb128 0x6
 4442 0b57 1F0B0000 		.4byte	0xb1f
 4443 0b5b 20       		.uleb128 0x20
 4444 0b5c 60010000 		.4byte	.LASF131
 4445 0b60 05       		.byte	0x5
 4446 0b61 43       		.byte	0x43
 4447 0b62 6C0B0000 		.4byte	0xb6c
 4448 0b66 05       		.uleb128 0x5
 4449 0b67 03       		.byte	0x3
 4450 0b68 00000000 		.4byte	screen
 4451 0b6c 06       		.uleb128 0x6
 4452 0b6d 45030000 		.4byte	0x345
 4453 0b71 20       		.uleb128 0x20
 4454 0b72 06010000 		.4byte	.LASF132
 4455 0b76 05       		.byte	0x5
 4456 0b77 44       		.byte	0x44
 4457 0b78 820B0000 		.4byte	0xb82
 4458 0b7c 05       		.uleb128 0x5
 4459 0b7d 03       		.byte	0x3
 4460 0b7e 00000000 		.4byte	residue
 4461 0b82 06       		.uleb128 0x6
 4462 0b83 8B030000 		.4byte	0x38b
 4463 0b87 20       		.uleb128 0x20
 4464 0b88 C0020000 		.4byte	.LASF133
 4465 0b8c 05       		.byte	0x5
 4466 0b8d 45       		.byte	0x45
 4467 0b8e 980B0000 		.4byte	0xb98
 4468 0b92 05       		.uleb128 0x5
 4469 0b93 03       		.byte	0x3
 4470 0b94 00000000 		.4byte	idSeller
 4471 0b98 06       		.uleb128 0x6
 4472 0b99 15030000 		.4byte	0x315
 4473 0b9d 20       		.uleb128 0x20
 4474 0b9e 79060000 		.4byte	.LASF134
 4475 0ba2 05       		.byte	0x5
 4476 0ba3 46       		.byte	0x46
 4477 0ba4 DE000000 		.4byte	0xde
 4478 0ba8 05       		.uleb128 0x5
 4479 0ba9 03       		.byte	0x3
 4480 0baa 00000000 		.4byte	typeIdSeller
 4481 0bae 08       		.uleb128 0x8
 4482 0baf 81000000 		.4byte	0x81
 4483 0bb3 BE0B0000 		.4byte	0xbbe
 4484 0bb7 09       		.uleb128 0x9
 4485 0bb8 E8000000 		.4byte	0xe8
 4486 0bbc 07       		.byte	0x7
 4487 0bbd 00       		.byte	0
 4488 0bbe 20       		.uleb128 0x20
 4489 0bbf F6060000 		.4byte	.LASF135
 4490 0bc3 05       		.byte	0x5
 4491 0bc4 47       		.byte	0x47
 4492 0bc5 CF0B0000 		.4byte	0xbcf
 4493 0bc9 05       		.uleb128 0x5
 4494 0bca 03       		.byte	0x3
ARM GAS  C:\Users\RECEPC~1\AppData\Local\Temp\ccIFDC7N.s 			page 96


 4495 0bcb 00000000 		.4byte	passwordSeller
 4496 0bcf 06       		.uleb128 0x6
 4497 0bd0 AE0B0000 		.4byte	0xbae
 4498 0bd4 20       		.uleb128 0x20
 4499 0bd5 77050000 		.4byte	.LASF136
 4500 0bd9 05       		.byte	0x5
 4501 0bda 48       		.byte	0x48
 4502 0bdb DE000000 		.4byte	0xde
 4503 0bdf 05       		.uleb128 0x5
 4504 0be0 03       		.byte	0x3
 4505 0be1 00000000 		.4byte	flagResetMux
 4506 0be5 20       		.uleb128 0x20
 4507 0be6 E5040000 		.4byte	.LASF137
 4508 0bea 05       		.byte	0x5
 4509 0beb 49       		.byte	0x49
 4510 0bec DE000000 		.4byte	0xde
 4511 0bf0 05       		.uleb128 0x5
 4512 0bf1 03       		.byte	0x3
 4513 0bf2 00000000 		.4byte	stateBeagleSoft
 4514 0bf6 20       		.uleb128 0x20
 4515 0bf7 4D000000 		.4byte	.LASF138
 4516 0bfb 05       		.byte	0x5
 4517 0bfc 4A       		.byte	0x4a
 4518 0bfd 070C0000 		.4byte	0xc07
 4519 0c01 05       		.uleb128 0x5
 4520 0c02 03       		.byte	0x3
 4521 0c03 00000000 		.4byte	PrevStatePump
 4522 0c07 06       		.uleb128 0x6
 4523 0c08 F1000000 		.4byte	0xf1
 4524 0c0c 20       		.uleb128 0x20
 4525 0c0d 7D010000 		.4byte	.LASF139
 4526 0c11 05       		.byte	0x5
 4527 0c12 4B       		.byte	0x4b
 4528 0c13 DE000000 		.4byte	0xde
 4529 0c17 05       		.uleb128 0x5
 4530 0c18 03       		.byte	0x3
 4531 0c19 00000000 		.4byte	PlateRequest
 4532 0c1d 20       		.uleb128 0x20
 4533 0c1e 52060000 		.4byte	.LASF140
 4534 0c22 05       		.byte	0x5
 4535 0c23 4C       		.byte	0x4c
 4536 0c24 2E0C0000 		.4byte	0xc2e
 4537 0c28 05       		.uleb128 0x5
 4538 0c29 03       		.byte	0x3
 4539 0c2a 00000000 		.4byte	IDCast
 4540 0c2e 06       		.uleb128 0x6
 4541 0c2f 45030000 		.4byte	0x345
 4542 0c33 20       		.uleb128 0x20
 4543 0c34 6A040000 		.4byte	.LASF141
 4544 0c38 05       		.byte	0x5
 4545 0c39 4D       		.byte	0x4d
 4546 0c3a DE000000 		.4byte	0xde
 4547 0c3e 05       		.uleb128 0x5
 4548 0c3f 03       		.byte	0x3
 4549 0c40 00000000 		.4byte	ActiveRF
 4550 0c44 20       		.uleb128 0x20
 4551 0c45 73010000 		.4byte	.LASF142
ARM GAS  C:\Users\RECEPC~1\AppData\Local\Temp\ccIFDC7N.s 			page 97


 4552 0c49 05       		.byte	0x5
 4553 0c4a 4E       		.byte	0x4e
 4554 0c4b DE000000 		.4byte	0xde
 4555 0c4f 05       		.uleb128 0x5
 4556 0c50 03       		.byte	0x3
 4557 0c51 00000000 		.4byte	counterRF
 4558 0c55 08       		.uleb128 0x8
 4559 0c56 81000000 		.4byte	0x81
 4560 0c5a 650C0000 		.4byte	0xc65
 4561 0c5e 09       		.uleb128 0x9
 4562 0c5f E8000000 		.4byte	0xe8
 4563 0c63 1D       		.byte	0x1d
 4564 0c64 00       		.byte	0
 4565 0c65 20       		.uleb128 0x20
 4566 0c66 08090000 		.4byte	.LASF143
 4567 0c6a 05       		.byte	0x5
 4568 0c6b 4F       		.byte	0x4f
 4569 0c6c 760C0000 		.4byte	0xc76
 4570 0c70 05       		.uleb128 0x5
 4571 0c71 03       		.byte	0x3
 4572 0c72 00000000 		.4byte	temporal
 4573 0c76 06       		.uleb128 0x6
 4574 0c77 550C0000 		.4byte	0xc55
 4575 0c7b 20       		.uleb128 0x20
 4576 0c7c 0E010000 		.4byte	.LASF144
 4577 0c80 05       		.byte	0x5
 4578 0c81 50       		.byte	0x50
 4579 0c82 8C0C0000 		.4byte	0xc8c
 4580 0c86 05       		.uleb128 0x5
 4581 0c87 03       		.byte	0x3
 4582 0c88 00000000 		.4byte	tempPreset
 4583 0c8c 06       		.uleb128 0x6
 4584 0c8d AE0B0000 		.4byte	0xbae
 4585 0c91 20       		.uleb128 0x20
 4586 0c92 140A0000 		.4byte	.LASF145
 4587 0c96 05       		.byte	0x5
 4588 0c97 51       		.byte	0x51
 4589 0c98 A20C0000 		.4byte	0xca2
 4590 0c9c 05       		.uleb128 0x5
 4591 0c9d 03       		.byte	0x3
 4592 0c9e 00000000 		.4byte	tempPPU
 4593 0ca2 06       		.uleb128 0x6
 4594 0ca3 6B030000 		.4byte	0x36b
 4595 0ca7 20       		.uleb128 0x20
 4596 0ca8 AD010000 		.4byte	.LASF146
 4597 0cac 05       		.byte	0x5
 4598 0cad 52       		.byte	0x52
 4599 0cae DE000000 		.4byte	0xde
 4600 0cb2 05       		.uleb128 0x5
 4601 0cb3 03       		.byte	0x3
 4602 0cb4 00000000 		.4byte	CGrade
 4603 0cb8 20       		.uleb128 0x20
 4604 0cb9 C6010000 		.4byte	.LASF147
 4605 0cbd 05       		.byte	0x5
 4606 0cbe 53       		.byte	0x53
 4607 0cbf DE000000 		.4byte	0xde
 4608 0cc3 05       		.uleb128 0x5
ARM GAS  C:\Users\RECEPC~1\AppData\Local\Temp\ccIFDC7N.s 			page 98


 4609 0cc4 03       		.byte	0x3
 4610 0cc5 00000000 		.4byte	ShiftState
 4611 0cc9 20       		.uleb128 0x20
 4612 0cca D6090000 		.4byte	.LASF148
 4613 0cce 05       		.byte	0x5
 4614 0ccf 54       		.byte	0x54
 4615 0cd0 DE000000 		.4byte	0xde
 4616 0cd4 05       		.uleb128 0x5
 4617 0cd5 03       		.byte	0x3
 4618 0cd6 00000000 		.4byte	sizeSendA
 4619 0cda 20       		.uleb128 0x20
 4620 0cdb E0090000 		.4byte	.LASF149
 4621 0cdf 05       		.byte	0x5
 4622 0ce0 55       		.byte	0x55
 4623 0ce1 DE000000 		.4byte	0xde
 4624 0ce5 05       		.uleb128 0x5
 4625 0ce6 03       		.byte	0x3
 4626 0ce7 00000000 		.4byte	sizeSendB
 4627 0ceb 20       		.uleb128 0x20
 4628 0cec 16070000 		.4byte	.LASF150
 4629 0cf0 05       		.byte	0x5
 4630 0cf1 57       		.byte	0x57
 4631 0cf2 81000000 		.4byte	0x81
 4632 0cf6 05       		.uleb128 0x5
 4633 0cf7 03       		.byte	0x3
 4634 0cf8 00000000 		.4byte	UnitType
 4635 0cfc 20       		.uleb128 0x20
 4636 0cfd A5030000 		.4byte	.LASF151
 4637 0d01 05       		.byte	0x5
 4638 0d02 57       		.byte	0x57
 4639 0d03 81000000 		.4byte	0x81
 4640 0d07 05       		.uleb128 0x5
 4641 0d08 03       		.byte	0x3
 4642 0d09 00000000 		.4byte	ConversionFactor
 4643 0d0d 20       		.uleb128 0x20
 4644 0d0e D1010000 		.4byte	.LASF152
 4645 0d12 05       		.byte	0x5
 4646 0d13 57       		.byte	0x57
 4647 0d14 81000000 		.4byte	0x81
 4648 0d18 05       		.uleb128 0x5
 4649 0d19 03       		.byte	0x3
 4650 0d1a 00000000 		.4byte	MoneyDec
 4651 0d1e 20       		.uleb128 0x20
 4652 0d1f 11090000 		.4byte	.LASF153
 4653 0d23 05       		.byte	0x5
 4654 0d24 57       		.byte	0x57
 4655 0d25 81000000 		.4byte	0x81
 4656 0d29 05       		.uleb128 0x5
 4657 0d2a 03       		.byte	0x3
 4658 0d2b 00000000 		.4byte	VolDec
 4659 0d2f 20       		.uleb128 0x20
 4660 0d30 A4070000 		.4byte	.LASF154
 4661 0d34 05       		.byte	0x5
 4662 0d35 57       		.byte	0x57
 4663 0d36 81000000 		.4byte	0x81
 4664 0d3a 05       		.uleb128 0x5
 4665 0d3b 03       		.byte	0x3
ARM GAS  C:\Users\RECEPC~1\AppData\Local\Temp\ccIFDC7N.s 			page 99


 4666 0d3c 00000000 		.4byte	PPUDec
 4667 0d40 20       		.uleb128 0x20
 4668 0d41 20010000 		.4byte	.LASF155
 4669 0d45 05       		.byte	0x5
 4670 0d46 57       		.byte	0x57
 4671 0d47 81000000 		.4byte	0x81
 4672 0d4b 05       		.uleb128 0x5
 4673 0d4c 03       		.byte	0x3
 4674 0d4d 00000000 		.4byte	DDMode
 4675 0d51 20       		.uleb128 0x20
 4676 0d52 96000000 		.4byte	.LASF156
 4677 0d56 05       		.byte	0x5
 4678 0d57 58       		.byte	0x58
 4679 0d58 F1000000 		.4byte	0xf1
 4680 0d5c 05       		.uleb128 0x5
 4681 0d5d 03       		.byte	0x3
 4682 0d5e 00000000 		.4byte	statePump
 4683 0d62 20       		.uleb128 0x20
 4684 0d63 D8040000 		.4byte	.LASF157
 4685 0d67 05       		.byte	0x5
 4686 0d68 59       		.byte	0x59
 4687 0d69 81000000 		.4byte	0x81
 4688 0d6d 05       		.uleb128 0x5
 4689 0d6e 03       		.byte	0x3
 4690 0d6f 00000000 		.4byte	NumPositions
 4691 0d73 20       		.uleb128 0x20
 4692 0d74 D2020000 		.4byte	.LASF158
 4693 0d78 05       		.byte	0x5
 4694 0d79 5A       		.byte	0x5a
 4695 0d7a 81000000 		.4byte	0x81
 4696 0d7e 05       		.uleb128 0x5
 4697 0d7f 03       		.byte	0x3
 4698 0d80 00000000 		.4byte	lockTurn
 4699 0d84 20       		.uleb128 0x20
 4700 0d85 58020000 		.4byte	.LASF159
 4701 0d89 05       		.byte	0x5
 4702 0d8a 5B       		.byte	0x5b
 4703 0d8b 81000000 		.4byte	0x81
 4704 0d8f 05       		.uleb128 0x5
 4705 0d90 03       		.byte	0x3
 4706 0d91 00000000 		.4byte	digits
 4707 0d95 20       		.uleb128 0x20
 4708 0d96 66060000 		.4byte	.LASF160
 4709 0d9a 05       		.byte	0x5
 4710 0d9b 5C       		.byte	0x5c
 4711 0d9c 81000000 		.4byte	0x81
 4712 0da0 05       		.uleb128 0x5
 4713 0da1 03       		.byte	0x3
 4714 0da2 00000000 		.4byte	hiddenKeys
 4715 0da6 20       		.uleb128 0x20
 4716 0da7 D7000000 		.4byte	.LASF161
 4717 0dab 05       		.byte	0x5
 4718 0dac 5D       		.byte	0x5d
 4719 0dad 81000000 		.4byte	0x81
 4720 0db1 05       		.uleb128 0x5
 4721 0db2 03       		.byte	0x3
 4722 0db3 00000000 		.4byte	PrinterType
ARM GAS  C:\Users\RECEPC~1\AppData\Local\Temp\ccIFDC7N.s 			page 100


 4723 0db7 08       		.uleb128 0x8
 4724 0db8 BF000000 		.4byte	0xbf
 4725 0dbc C70D0000 		.4byte	0xdc7
 4726 0dc0 09       		.uleb128 0x9
 4727 0dc1 E8000000 		.4byte	0xe8
 4728 0dc5 05       		.byte	0x5
 4729 0dc6 00       		.byte	0
 4730 0dc7 20       		.uleb128 0x20
 4731 0dc8 4A060000 		.4byte	.LASF162
 4732 0dcc 05       		.byte	0x5
 4733 0dcd 5E       		.byte	0x5e
 4734 0dce B70D0000 		.4byte	0xdb7
 4735 0dd2 05       		.uleb128 0x5
 4736 0dd3 03       		.byte	0x3
 4737 0dd4 00000000 		.4byte	VolUnit
 4738 0dd8 20       		.uleb128 0x20
 4739 0dd9 0F060000 		.4byte	.LASF163
 4740 0ddd 05       		.byte	0x5
 4741 0dde 5F       		.byte	0x5f
 4742 0ddf 1F0B0000 		.4byte	0xb1f
 4743 0de3 05       		.uleb128 0x5
 4744 0de4 03       		.byte	0x3
 4745 0de5 00000000 		.4byte	dateDownHandle
 4746 0de9 20       		.uleb128 0x20
 4747 0dea 16050000 		.4byte	.LASF164
 4748 0dee 05       		.byte	0x5
 4749 0def 60       		.byte	0x60
 4750 0df0 45030000 		.4byte	0x345
 4751 0df4 05       		.uleb128 0x5
 4752 0df5 03       		.byte	0x3
 4753 0df6 00000000 		.4byte	timeDownHandle
 4754 0dfa 20       		.uleb128 0x20
 4755 0dfb 6B090000 		.4byte	.LASF165
 4756 0dff 05       		.byte	0x5
 4757 0e00 61       		.byte	0x61
 4758 0e01 81000000 		.4byte	0x81
 4759 0e05 05       		.uleb128 0x5
 4760 0e06 03       		.byte	0x3
 4761 0e07 00000000 		.4byte	count_protector
 4762 0e0b 20       		.uleb128 0x20
 4763 0e0c 2E000000 		.4byte	.LASF166
 4764 0e10 05       		.byte	0x5
 4765 0e11 61       		.byte	0x61
 4766 0e12 81000000 		.4byte	0x81
 4767 0e16 05       		.uleb128 0x5
 4768 0e17 03       		.byte	0x3
 4769 0e18 00000000 		.4byte	count_protector2
 4770 0e1c 20       		.uleb128 0x20
 4771 0e1d 4B020000 		.4byte	.LASF167
 4772 0e21 05       		.byte	0x5
 4773 0e22 62       		.byte	0x62
 4774 0e23 6B030000 		.4byte	0x36b
 4775 0e27 05       		.uleb128 0x5
 4776 0e28 03       		.byte	0x3
 4777 0e29 00000000 		.4byte	configAccess
 4778 0e2d 20       		.uleb128 0x20
 4779 0e2e 67010000 		.4byte	.LASF168
ARM GAS  C:\Users\RECEPC~1\AppData\Local\Temp\ccIFDC7N.s 			page 101


 4780 0e32 05       		.byte	0x5
 4781 0e33 63       		.byte	0x63
 4782 0e34 81000000 		.4byte	0x81
 4783 0e38 05       		.uleb128 0x5
 4784 0e39 03       		.byte	0x3
 4785 0e3a 00000000 		.4byte	controlChar
 4786 0e3e 08       		.uleb128 0x8
 4787 0e3f BF000000 		.4byte	0xbf
 4788 0e43 4E0E0000 		.4byte	0xe4e
 4789 0e47 09       		.uleb128 0x9
 4790 0e48 E8000000 		.4byte	0xe8
 4791 0e4c 04       		.byte	0x4
 4792 0e4d 00       		.byte	0
 4793 0e4e 20       		.uleb128 0x20
 4794 0e4f 2C010000 		.4byte	.LASF169
 4795 0e53 05       		.byte	0x5
 4796 0e54 64       		.byte	0x64
 4797 0e55 3E0E0000 		.4byte	0xe3e
 4798 0e59 05       		.uleb128 0x5
 4799 0e5a 03       		.byte	0x3
 4800 0e5b 00000000 		.4byte	idStation
 4801 0e5f 20       		.uleb128 0x20
 4802 0e60 1C0A0000 		.4byte	.LASF170
 4803 0e64 05       		.byte	0x5
 4804 0e65 65       		.byte	0x65
 4805 0e66 1F0B0000 		.4byte	0xb1f
 4806 0e6a 05       		.uleb128 0x5
 4807 0e6b 03       		.byte	0x3
 4808 0e6c 00000000 		.4byte	pumpGap
 4809 0e70 20       		.uleb128 0x20
 4810 0e71 90020000 		.4byte	.LASF171
 4811 0e75 05       		.byte	0x5
 4812 0e76 66       		.byte	0x66
 4813 0e77 81000000 		.4byte	0x81
 4814 0e7b 05       		.uleb128 0x5
 4815 0e7c 03       		.byte	0x3
 4816 0e7d 00000000 		.4byte	printPortA
 4817 0e81 20       		.uleb128 0x20
 4818 0e82 9B020000 		.4byte	.LASF172
 4819 0e86 05       		.byte	0x5
 4820 0e87 67       		.byte	0x67
 4821 0e88 81000000 		.4byte	0x81
 4822 0e8c 05       		.uleb128 0x5
 4823 0e8d 03       		.byte	0x3
 4824 0e8e 00000000 		.4byte	printPortB
 4825 0e92 08       		.uleb128 0x8
 4826 0e93 81000000 		.4byte	0x81
 4827 0e97 A30E0000 		.4byte	0xea3
 4828 0e9b 21       		.uleb128 0x21
 4829 0e9c E8000000 		.4byte	0xe8
 4830 0ea0 FF01     		.2byte	0x1ff
 4831 0ea2 00       		.byte	0
 4832 0ea3 20       		.uleb128 0x20
 4833 0ea4 A7000000 		.4byte	.LASF173
 4834 0ea8 05       		.byte	0x5
 4835 0ea9 68       		.byte	0x68
 4836 0eaa 920E0000 		.4byte	0xe92
ARM GAS  C:\Users\RECEPC~1\AppData\Local\Temp\ccIFDC7N.s 			page 102


 4837 0eae 05       		.uleb128 0x5
 4838 0eaf 03       		.byte	0x3
 4839 0eb0 00000000 		.4byte	buffer_rf
 4840 0eb4 20       		.uleb128 0x20
 4841 0eb5 8A010000 		.4byte	.LASF174
 4842 0eb9 05       		.byte	0x5
 4843 0eba 69       		.byte	0x69
 4844 0ebb 920E0000 		.4byte	0xe92
 4845 0ebf 05       		.uleb128 0x5
 4846 0ec0 03       		.byte	0x3
 4847 0ec1 00000000 		.4byte	buffer_tx
 4848 0ec5 08       		.uleb128 0x8
 4849 0ec6 81000000 		.4byte	0x81
 4850 0eca D50E0000 		.4byte	0xed5
 4851 0ece 09       		.uleb128 0x9
 4852 0ecf E8000000 		.4byte	0xe8
 4853 0ed3 3B       		.byte	0x3b
 4854 0ed4 00       		.byte	0
 4855 0ed5 20       		.uleb128 0x20
 4856 0ed6 3E050000 		.4byte	.LASF175
 4857 0eda 05       		.byte	0x5
 4858 0edb 6A       		.byte	0x6a
 4859 0edc C50E0000 		.4byte	0xec5
 4860 0ee0 05       		.uleb128 0x5
 4861 0ee1 03       		.byte	0x3
 4862 0ee2 00000000 		.4byte	buffer_txPreset
 4863 0ee6 20       		.uleb128 0x20
 4864 0ee7 37090000 		.4byte	.LASF176
 4865 0eeb 05       		.byte	0x5
 4866 0eec 6B       		.byte	0x6b
 4867 0eed C50E0000 		.4byte	0xec5
 4868 0ef1 05       		.uleb128 0x5
 4869 0ef2 03       		.byte	0x3
 4870 0ef3 00000000 		.4byte	buffer_txEOT
 4871 0ef7 20       		.uleb128 0x20
 4872 0ef8 44090000 		.4byte	.LASF177
 4873 0efc 05       		.byte	0x5
 4874 0efd 6C       		.byte	0x6c
 4875 0efe 8D000000 		.4byte	0x8d
 4876 0f02 05       		.uleb128 0x5
 4877 0f03 03       		.byte	0x3
 4878 0f04 00000000 		.4byte	intIDStation
 4879 0f08 20       		.uleb128 0x20
 4880 0f09 4B070000 		.4byte	.LASF178
 4881 0f0d 05       		.byte	0x5
 4882 0f0e 6D       		.byte	0x6d
 4883 0f0f 550C0000 		.4byte	0xc55
 4884 0f13 05       		.uleb128 0x5
 4885 0f14 03       		.byte	0x3
 4886 0f15 00000000 		.4byte	Encabezado1
 4887 0f19 20       		.uleb128 0x20
 4888 0f1a 57070000 		.4byte	.LASF179
 4889 0f1e 05       		.byte	0x5
 4890 0f1f 6E       		.byte	0x6e
 4891 0f20 550C0000 		.4byte	0xc55
 4892 0f24 05       		.uleb128 0x5
 4893 0f25 03       		.byte	0x3
ARM GAS  C:\Users\RECEPC~1\AppData\Local\Temp\ccIFDC7N.s 			page 103


 4894 0f26 00000000 		.4byte	Encabezado2
 4895 0f2a 20       		.uleb128 0x20
 4896 0f2b 63070000 		.4byte	.LASF180
 4897 0f2f 05       		.byte	0x5
 4898 0f30 6F       		.byte	0x6f
 4899 0f31 550C0000 		.4byte	0xc55
 4900 0f35 05       		.uleb128 0x5
 4901 0f36 03       		.byte	0x3
 4902 0f37 00000000 		.4byte	Encabezado3
 4903 0f3b 20       		.uleb128 0x20
 4904 0f3c 6F070000 		.4byte	.LASF181
 4905 0f40 05       		.byte	0x5
 4906 0f41 70       		.byte	0x70
 4907 0f42 550C0000 		.4byte	0xc55
 4908 0f46 05       		.uleb128 0x5
 4909 0f47 03       		.byte	0x3
 4910 0f48 00000000 		.4byte	Encabezado4
 4911 0f4c 20       		.uleb128 0x20
 4912 0f4d E8060000 		.4byte	.LASF182
 4913 0f51 05       		.byte	0x5
 4914 0f52 71       		.byte	0x71
 4915 0f53 81000000 		.4byte	0x81
 4916 0f57 05       		.uleb128 0x5
 4917 0f58 03       		.byte	0x3
 4918 0f59 00000000 		.4byte	CopiasCredito
 4919 0f5d 20       		.uleb128 0x20
 4920 0f5e 5B000000 		.4byte	.LASF183
 4921 0f62 05       		.byte	0x5
 4922 0f63 72       		.byte	0x72
 4923 0f64 6B030000 		.4byte	0x36b
 4924 0f68 05       		.uleb128 0x5
 4925 0f69 03       		.byte	0x3
 4926 0f6a 00000000 		.4byte	GradesHose
 4927 0f6e 20       		.uleb128 0x20
 4928 0f6f DA010000 		.4byte	.LASF184
 4929 0f73 05       		.byte	0x5
 4930 0f74 AB       		.byte	0xab
 4931 0f75 01010000 		.4byte	0x101
 4932 0f79 05       		.uleb128 0x5
 4933 0f7a 03       		.byte	0x3
 4934 0f7b 00000000 		.4byte	bufferDisplay1
 4935 0f7f 20       		.uleb128 0x20
 4936 0f80 B6060000 		.4byte	.LASF185
 4937 0f84 05       		.byte	0x5
 4938 0f85 AC       		.byte	0xac
 4939 0f86 01010000 		.4byte	0x101
 4940 0f8a 05       		.uleb128 0x5
 4941 0f8b 03       		.byte	0x3
 4942 0f8c 00000000 		.4byte	bufferDisplay2
 4943 0f90 20       		.uleb128 0x20
 4944 0f91 F7010000 		.4byte	.LASF186
 4945 0f95 05       		.byte	0x5
 4946 0f96 AD       		.byte	0xad
 4947 0f97 01010000 		.4byte	0x101
 4948 0f9b 05       		.uleb128 0x5
 4949 0f9c 03       		.byte	0x3
 4950 0f9d 00000000 		.4byte	bufferDisplay3
ARM GAS  C:\Users\RECEPC~1\AppData\Local\Temp\ccIFDC7N.s 			page 104


 4951 0fa1 20       		.uleb128 0x20
 4952 0fa2 D9060000 		.4byte	.LASF187
 4953 0fa6 05       		.byte	0x5
 4954 0fa7 AE       		.byte	0xae
 4955 0fa8 01010000 		.4byte	0x101
 4956 0fac 05       		.uleb128 0x5
 4957 0fad 03       		.byte	0x3
 4958 0fae 00000000 		.4byte	bufferDisplay4
 4959 0fb2 20       		.uleb128 0x20
 4960 0fb3 27010000 		.4byte	.LASF188
 4961 0fb7 05       		.byte	0x5
 4962 0fb8 D2       		.byte	0xd2
 4963 0fb9 B7040000 		.4byte	0x4b7
 4964 0fbd 05       		.uleb128 0x5
 4965 0fbe 03       		.byte	0x3
 4966 0fbf 00000000 		.4byte	side
 4967 0fc3 22       		.uleb128 0x22
 4968 0fc4 98090000 		.4byte	.LASF189
 4969 0fc8 EF000000 		.4byte	0xef
 4970 0fcc E00F0000 		.4byte	0xfe0
 4971 0fd0 23       		.uleb128 0x23
 4972 0fd1 EF000000 		.4byte	0xef
 4973 0fd5 23       		.uleb128 0x23
 4974 0fd6 72050000 		.4byte	0x572
 4975 0fda 23       		.uleb128 0x23
 4976 0fdb E8000000 		.4byte	0xe8
 4977 0fdf 00       		.byte	0
 4978 0fe0 24       		.uleb128 0x24
 4979 0fe1 E1030000 		.4byte	.LASF190
 4980 0fe5 07       		.byte	0x7
 4981 0fe6 8A       		.byte	0x8a
 4982 0fe7 F10F0000 		.4byte	0xff1
 4983 0feb 23       		.uleb128 0x23
 4984 0fec 81000000 		.4byte	0x81
 4985 0ff0 00       		.byte	0
 4986 0ff1 25       		.uleb128 0x25
 4987 0ff2 9A050000 		.4byte	.LASF194
 4988 0ff6 09       		.byte	0x9
 4989 0ff7 26       		.byte	0x26
 4990 0ff8 81000000 		.4byte	0x81
 4991 0ffc 10100000 		.4byte	0x1010
 4992 1000 23       		.uleb128 0x23
 4993 1001 81000000 		.4byte	0x81
 4994 1005 23       		.uleb128 0x23
 4995 1006 81000000 		.4byte	0x81
 4996 100a 23       		.uleb128 0x23
 4997 100b 0B060000 		.4byte	0x60b
 4998 100f 00       		.byte	0
 4999 1010 24       		.uleb128 0x24
 5000 1011 19000000 		.4byte	.LASF191
 5001 1015 08       		.byte	0x8
 5002 1016 77       		.byte	0x77
 5003 1017 21100000 		.4byte	0x1021
 5004 101b 23       		.uleb128 0x23
 5005 101c 99000000 		.4byte	0x99
 5006 1020 00       		.byte	0
 5007 1021 26       		.uleb128 0x26
ARM GAS  C:\Users\RECEPC~1\AppData\Local\Temp\ccIFDC7N.s 			page 105


 5008 1022 72020000 		.4byte	.LASF192
 5009 1026 07       		.byte	0x7
 5010 1027 73       		.byte	0x73
 5011 1028 8D000000 		.4byte	0x8d
 5012 102c 26       		.uleb128 0x26
 5013 102d 00000000 		.4byte	.LASF193
 5014 1031 07       		.byte	0x7
 5015 1032 6F       		.byte	0x6f
 5016 1033 81000000 		.4byte	0x81
 5017 1037 25       		.uleb128 0x25
 5018 1038 92060000 		.4byte	.LASF195
 5019 103c 09       		.byte	0x9
 5020 103d 25       		.byte	0x25
 5021 103e 81000000 		.4byte	0x81
 5022 1042 4C100000 		.4byte	0x104c
 5023 1046 23       		.uleb128 0x23
 5024 1047 81000000 		.4byte	0x81
 5025 104b 00       		.byte	0
 5026 104c 26       		.uleb128 0x26
 5027 104d 04060000 		.4byte	.LASF196
 5028 1051 0A       		.byte	0xa
 5029 1052 23       		.byte	0x23
 5030 1053 81000000 		.4byte	0x81
 5031 1057 26       		.uleb128 0x26
 5032 1058 BA010000 		.4byte	.LASF197
 5033 105c 0A       		.byte	0xa
 5034 105d 24       		.byte	0x24
 5035 105e 81000000 		.4byte	0x81
 5036 1062 25       		.uleb128 0x25
 5037 1063 AD040000 		.4byte	.LASF198
 5038 1067 0B       		.byte	0xb
 5039 1068 21       		.byte	0x21
 5040 1069 D2000000 		.4byte	0xd2
 5041 106d 7C100000 		.4byte	0x107c
 5042 1071 23       		.uleb128 0x23
 5043 1072 81000000 		.4byte	0x81
 5044 1076 23       		.uleb128 0x23
 5045 1077 8D000000 		.4byte	0x8d
 5046 107b 00       		.byte	0
 5047 107c 25       		.uleb128 0x25
 5048 107d 66030000 		.4byte	.LASF199
 5049 1081 0B       		.byte	0xb
 5050 1082 23       		.byte	0x23
 5051 1083 81000000 		.4byte	0x81
 5052 1087 91100000 		.4byte	0x1091
 5053 108b 23       		.uleb128 0x23
 5054 108c 8D000000 		.4byte	0x8d
 5055 1090 00       		.byte	0
 5056 1091 24       		.uleb128 0x24
 5057 1092 EE010000 		.4byte	.LASF200
 5058 1096 0C       		.byte	0xc
 5059 1097 25       		.byte	0x25
 5060 1098 A7100000 		.4byte	0x10a7
 5061 109c 23       		.uleb128 0x23
 5062 109d 81000000 		.4byte	0x81
 5063 10a1 23       		.uleb128 0x23
 5064 10a2 81000000 		.4byte	0x81
ARM GAS  C:\Users\RECEPC~1\AppData\Local\Temp\ccIFDC7N.s 			page 106


 5065 10a6 00       		.byte	0
 5066 10a7 27       		.uleb128 0x27
 5067 10a8 2C0A0000 		.4byte	.LASF205
 5068 10ac 07       		.byte	0x7
 5069 10ad 75       		.byte	0x75
 5070 10ae 00       		.byte	0
 5071              		.section	.debug_abbrev,"",%progbits
 5072              	.Ldebug_abbrev0:
 5073 0000 01       		.uleb128 0x1
 5074 0001 11       		.uleb128 0x11
 5075 0002 01       		.byte	0x1
 5076 0003 25       		.uleb128 0x25
 5077 0004 0E       		.uleb128 0xe
 5078 0005 13       		.uleb128 0x13
 5079 0006 0B       		.uleb128 0xb
 5080 0007 03       		.uleb128 0x3
 5081 0008 0E       		.uleb128 0xe
 5082 0009 1B       		.uleb128 0x1b
 5083 000a 0E       		.uleb128 0xe
 5084 000b 55       		.uleb128 0x55
 5085 000c 17       		.uleb128 0x17
 5086 000d 11       		.uleb128 0x11
 5087 000e 01       		.uleb128 0x1
 5088 000f 10       		.uleb128 0x10
 5089 0010 17       		.uleb128 0x17
 5090 0011 00       		.byte	0
 5091 0012 00       		.byte	0
 5092 0013 02       		.uleb128 0x2
 5093 0014 24       		.uleb128 0x24
 5094 0015 00       		.byte	0
 5095 0016 0B       		.uleb128 0xb
 5096 0017 0B       		.uleb128 0xb
 5097 0018 3E       		.uleb128 0x3e
 5098 0019 0B       		.uleb128 0xb
 5099 001a 03       		.uleb128 0x3
 5100 001b 0E       		.uleb128 0xe
 5101 001c 00       		.byte	0
 5102 001d 00       		.byte	0
 5103 001e 03       		.uleb128 0x3
 5104 001f 16       		.uleb128 0x16
 5105 0020 00       		.byte	0
 5106 0021 03       		.uleb128 0x3
 5107 0022 0E       		.uleb128 0xe
 5108 0023 3A       		.uleb128 0x3a
 5109 0024 0B       		.uleb128 0xb
 5110 0025 3B       		.uleb128 0x3b
 5111 0026 0B       		.uleb128 0xb
 5112 0027 49       		.uleb128 0x49
 5113 0028 13       		.uleb128 0x13
 5114 0029 00       		.byte	0
 5115 002a 00       		.byte	0
 5116 002b 04       		.uleb128 0x4
 5117 002c 24       		.uleb128 0x24
 5118 002d 00       		.byte	0
 5119 002e 0B       		.uleb128 0xb
 5120 002f 0B       		.uleb128 0xb
 5121 0030 3E       		.uleb128 0x3e
ARM GAS  C:\Users\RECEPC~1\AppData\Local\Temp\ccIFDC7N.s 			page 107


 5122 0031 0B       		.uleb128 0xb
 5123 0032 03       		.uleb128 0x3
 5124 0033 08       		.uleb128 0x8
 5125 0034 00       		.byte	0
 5126 0035 00       		.byte	0
 5127 0036 05       		.uleb128 0x5
 5128 0037 16       		.uleb128 0x16
 5129 0038 00       		.byte	0
 5130 0039 03       		.uleb128 0x3
 5131 003a 0E       		.uleb128 0xe
 5132 003b 3A       		.uleb128 0x3a
 5133 003c 0B       		.uleb128 0xb
 5134 003d 3B       		.uleb128 0x3b
 5135 003e 05       		.uleb128 0x5
 5136 003f 49       		.uleb128 0x49
 5137 0040 13       		.uleb128 0x13
 5138 0041 00       		.byte	0
 5139 0042 00       		.byte	0
 5140 0043 06       		.uleb128 0x6
 5141 0044 35       		.uleb128 0x35
 5142 0045 00       		.byte	0
 5143 0046 49       		.uleb128 0x49
 5144 0047 13       		.uleb128 0x13
 5145 0048 00       		.byte	0
 5146 0049 00       		.byte	0
 5147 004a 07       		.uleb128 0x7
 5148 004b 0F       		.uleb128 0xf
 5149 004c 00       		.byte	0
 5150 004d 0B       		.uleb128 0xb
 5151 004e 0B       		.uleb128 0xb
 5152 004f 00       		.byte	0
 5153 0050 00       		.byte	0
 5154 0051 08       		.uleb128 0x8
 5155 0052 01       		.uleb128 0x1
 5156 0053 01       		.byte	0x1
 5157 0054 49       		.uleb128 0x49
 5158 0055 13       		.uleb128 0x13
 5159 0056 01       		.uleb128 0x1
 5160 0057 13       		.uleb128 0x13
 5161 0058 00       		.byte	0
 5162 0059 00       		.byte	0
 5163 005a 09       		.uleb128 0x9
 5164 005b 21       		.uleb128 0x21
 5165 005c 00       		.byte	0
 5166 005d 49       		.uleb128 0x49
 5167 005e 13       		.uleb128 0x13
 5168 005f 2F       		.uleb128 0x2f
 5169 0060 0B       		.uleb128 0xb
 5170 0061 00       		.byte	0
 5171 0062 00       		.byte	0
 5172 0063 0A       		.uleb128 0xa
 5173 0064 13       		.uleb128 0x13
 5174 0065 01       		.byte	0x1
 5175 0066 03       		.uleb128 0x3
 5176 0067 0E       		.uleb128 0xe
 5177 0068 0B       		.uleb128 0xb
 5178 0069 05       		.uleb128 0x5
ARM GAS  C:\Users\RECEPC~1\AppData\Local\Temp\ccIFDC7N.s 			page 108


 5179 006a 3A       		.uleb128 0x3a
 5180 006b 0B       		.uleb128 0xb
 5181 006c 3B       		.uleb128 0x3b
 5182 006d 0B       		.uleb128 0xb
 5183 006e 01       		.uleb128 0x1
 5184 006f 13       		.uleb128 0x13
 5185 0070 00       		.byte	0
 5186 0071 00       		.byte	0
 5187 0072 0B       		.uleb128 0xb
 5188 0073 0D       		.uleb128 0xd
 5189 0074 00       		.byte	0
 5190 0075 03       		.uleb128 0x3
 5191 0076 0E       		.uleb128 0xe
 5192 0077 3A       		.uleb128 0x3a
 5193 0078 0B       		.uleb128 0xb
 5194 0079 3B       		.uleb128 0x3b
 5195 007a 0B       		.uleb128 0xb
 5196 007b 49       		.uleb128 0x49
 5197 007c 13       		.uleb128 0x13
 5198 007d 38       		.uleb128 0x38
 5199 007e 0B       		.uleb128 0xb
 5200 007f 00       		.byte	0
 5201 0080 00       		.byte	0
 5202 0081 0C       		.uleb128 0xc
 5203 0082 0D       		.uleb128 0xd
 5204 0083 00       		.byte	0
 5205 0084 03       		.uleb128 0x3
 5206 0085 0E       		.uleb128 0xe
 5207 0086 3A       		.uleb128 0x3a
 5208 0087 0B       		.uleb128 0xb
 5209 0088 3B       		.uleb128 0x3b
 5210 0089 0B       		.uleb128 0xb
 5211 008a 49       		.uleb128 0x49
 5212 008b 13       		.uleb128 0x13
 5213 008c 38       		.uleb128 0x38
 5214 008d 05       		.uleb128 0x5
 5215 008e 00       		.byte	0
 5216 008f 00       		.byte	0
 5217 0090 0D       		.uleb128 0xd
 5218 0091 0D       		.uleb128 0xd
 5219 0092 00       		.byte	0
 5220 0093 03       		.uleb128 0x3
 5221 0094 08       		.uleb128 0x8
 5222 0095 3A       		.uleb128 0x3a
 5223 0096 0B       		.uleb128 0xb
 5224 0097 3B       		.uleb128 0x3b
 5225 0098 0B       		.uleb128 0xb
 5226 0099 49       		.uleb128 0x49
 5227 009a 13       		.uleb128 0x13
 5228 009b 38       		.uleb128 0x38
 5229 009c 0B       		.uleb128 0xb
 5230 009d 00       		.byte	0
 5231 009e 00       		.byte	0
 5232 009f 0E       		.uleb128 0xe
 5233 00a0 0D       		.uleb128 0xd
 5234 00a1 00       		.byte	0
 5235 00a2 03       		.uleb128 0x3
ARM GAS  C:\Users\RECEPC~1\AppData\Local\Temp\ccIFDC7N.s 			page 109


 5236 00a3 08       		.uleb128 0x8
 5237 00a4 3A       		.uleb128 0x3a
 5238 00a5 0B       		.uleb128 0xb
 5239 00a6 3B       		.uleb128 0x3b
 5240 00a7 0B       		.uleb128 0xb
 5241 00a8 49       		.uleb128 0x49
 5242 00a9 13       		.uleb128 0x13
 5243 00aa 38       		.uleb128 0x38
 5244 00ab 05       		.uleb128 0x5
 5245 00ac 00       		.byte	0
 5246 00ad 00       		.byte	0
 5247 00ae 0F       		.uleb128 0xf
 5248 00af 04       		.uleb128 0x4
 5249 00b0 01       		.byte	0x1
 5250 00b1 03       		.uleb128 0x3
 5251 00b2 0E       		.uleb128 0xe
 5252 00b3 0B       		.uleb128 0xb
 5253 00b4 0B       		.uleb128 0xb
 5254 00b5 3A       		.uleb128 0x3a
 5255 00b6 0B       		.uleb128 0xb
 5256 00b7 3B       		.uleb128 0x3b
 5257 00b8 05       		.uleb128 0x5
 5258 00b9 01       		.uleb128 0x1
 5259 00ba 13       		.uleb128 0x13
 5260 00bb 00       		.byte	0
 5261 00bc 00       		.byte	0
 5262 00bd 10       		.uleb128 0x10
 5263 00be 28       		.uleb128 0x28
 5264 00bf 00       		.byte	0
 5265 00c0 03       		.uleb128 0x3
 5266 00c1 0E       		.uleb128 0xe
 5267 00c2 1C       		.uleb128 0x1c
 5268 00c3 0D       		.uleb128 0xd
 5269 00c4 00       		.byte	0
 5270 00c5 00       		.byte	0
 5271 00c6 11       		.uleb128 0x11
 5272 00c7 0F       		.uleb128 0xf
 5273 00c8 00       		.byte	0
 5274 00c9 0B       		.uleb128 0xb
 5275 00ca 0B       		.uleb128 0xb
 5276 00cb 49       		.uleb128 0x49
 5277 00cc 13       		.uleb128 0x13
 5278 00cd 00       		.byte	0
 5279 00ce 00       		.byte	0
 5280 00cf 12       		.uleb128 0x12
 5281 00d0 26       		.uleb128 0x26
 5282 00d1 00       		.byte	0
 5283 00d2 00       		.byte	0
 5284 00d3 00       		.byte	0
 5285 00d4 13       		.uleb128 0x13
 5286 00d5 2E       		.uleb128 0x2e
 5287 00d6 01       		.byte	0x1
 5288 00d7 3F       		.uleb128 0x3f
 5289 00d8 19       		.uleb128 0x19
 5290 00d9 03       		.uleb128 0x3
 5291 00da 0E       		.uleb128 0xe
 5292 00db 3A       		.uleb128 0x3a
ARM GAS  C:\Users\RECEPC~1\AppData\Local\Temp\ccIFDC7N.s 			page 110


 5293 00dc 0B       		.uleb128 0xb
 5294 00dd 3B       		.uleb128 0x3b
 5295 00de 0B       		.uleb128 0xb
 5296 00df 27       		.uleb128 0x27
 5297 00e0 19       		.uleb128 0x19
 5298 00e1 49       		.uleb128 0x49
 5299 00e2 13       		.uleb128 0x13
 5300 00e3 11       		.uleb128 0x11
 5301 00e4 01       		.uleb128 0x1
 5302 00e5 12       		.uleb128 0x12
 5303 00e6 06       		.uleb128 0x6
 5304 00e7 40       		.uleb128 0x40
 5305 00e8 18       		.uleb128 0x18
 5306 00e9 9742     		.uleb128 0x2117
 5307 00eb 19       		.uleb128 0x19
 5308 00ec 01       		.uleb128 0x1
 5309 00ed 13       		.uleb128 0x13
 5310 00ee 00       		.byte	0
 5311 00ef 00       		.byte	0
 5312 00f0 14       		.uleb128 0x14
 5313 00f1 05       		.uleb128 0x5
 5314 00f2 00       		.byte	0
 5315 00f3 03       		.uleb128 0x3
 5316 00f4 0E       		.uleb128 0xe
 5317 00f5 3A       		.uleb128 0x3a
 5318 00f6 0B       		.uleb128 0xb
 5319 00f7 3B       		.uleb128 0x3b
 5320 00f8 0B       		.uleb128 0xb
 5321 00f9 49       		.uleb128 0x49
 5322 00fa 13       		.uleb128 0x13
 5323 00fb 02       		.uleb128 0x2
 5324 00fc 17       		.uleb128 0x17
 5325 00fd 00       		.byte	0
 5326 00fe 00       		.byte	0
 5327 00ff 15       		.uleb128 0x15
 5328 0100 34       		.uleb128 0x34
 5329 0101 00       		.byte	0
 5330 0102 03       		.uleb128 0x3
 5331 0103 0E       		.uleb128 0xe
 5332 0104 3A       		.uleb128 0x3a
 5333 0105 0B       		.uleb128 0xb
 5334 0106 3B       		.uleb128 0x3b
 5335 0107 0B       		.uleb128 0xb
 5336 0108 49       		.uleb128 0x49
 5337 0109 13       		.uleb128 0x13
 5338 010a 02       		.uleb128 0x2
 5339 010b 17       		.uleb128 0x17
 5340 010c 00       		.byte	0
 5341 010d 00       		.byte	0
 5342 010e 16       		.uleb128 0x16
 5343 010f 34       		.uleb128 0x34
 5344 0110 00       		.byte	0
 5345 0111 03       		.uleb128 0x3
 5346 0112 08       		.uleb128 0x8
 5347 0113 3A       		.uleb128 0x3a
 5348 0114 0B       		.uleb128 0xb
 5349 0115 3B       		.uleb128 0x3b
ARM GAS  C:\Users\RECEPC~1\AppData\Local\Temp\ccIFDC7N.s 			page 111


 5350 0116 0B       		.uleb128 0xb
 5351 0117 49       		.uleb128 0x49
 5352 0118 13       		.uleb128 0x13
 5353 0119 02       		.uleb128 0x2
 5354 011a 17       		.uleb128 0x17
 5355 011b 00       		.byte	0
 5356 011c 00       		.byte	0
 5357 011d 17       		.uleb128 0x17
 5358 011e 34       		.uleb128 0x34
 5359 011f 00       		.byte	0
 5360 0120 03       		.uleb128 0x3
 5361 0121 0E       		.uleb128 0xe
 5362 0122 3A       		.uleb128 0x3a
 5363 0123 0B       		.uleb128 0xb
 5364 0124 3B       		.uleb128 0x3b
 5365 0125 0B       		.uleb128 0xb
 5366 0126 49       		.uleb128 0x49
 5367 0127 13       		.uleb128 0x13
 5368 0128 02       		.uleb128 0x2
 5369 0129 18       		.uleb128 0x18
 5370 012a 00       		.byte	0
 5371 012b 00       		.byte	0
 5372 012c 18       		.uleb128 0x18
 5373 012d 898201   		.uleb128 0x4109
 5374 0130 01       		.byte	0x1
 5375 0131 11       		.uleb128 0x11
 5376 0132 01       		.uleb128 0x1
 5377 0133 31       		.uleb128 0x31
 5378 0134 13       		.uleb128 0x13
 5379 0135 00       		.byte	0
 5380 0136 00       		.byte	0
 5381 0137 19       		.uleb128 0x19
 5382 0138 8A8201   		.uleb128 0x410a
 5383 013b 00       		.byte	0
 5384 013c 02       		.uleb128 0x2
 5385 013d 18       		.uleb128 0x18
 5386 013e 9142     		.uleb128 0x2111
 5387 0140 18       		.uleb128 0x18
 5388 0141 00       		.byte	0
 5389 0142 00       		.byte	0
 5390 0143 1A       		.uleb128 0x1a
 5391 0144 2E       		.uleb128 0x2e
 5392 0145 01       		.byte	0x1
 5393 0146 3F       		.uleb128 0x3f
 5394 0147 19       		.uleb128 0x19
 5395 0148 03       		.uleb128 0x3
 5396 0149 0E       		.uleb128 0xe
 5397 014a 3A       		.uleb128 0x3a
 5398 014b 0B       		.uleb128 0xb
 5399 014c 3B       		.uleb128 0x3b
 5400 014d 05       		.uleb128 0x5
 5401 014e 27       		.uleb128 0x27
 5402 014f 19       		.uleb128 0x19
 5403 0150 11       		.uleb128 0x11
 5404 0151 01       		.uleb128 0x1
 5405 0152 12       		.uleb128 0x12
 5406 0153 06       		.uleb128 0x6
ARM GAS  C:\Users\RECEPC~1\AppData\Local\Temp\ccIFDC7N.s 			page 112


 5407 0154 40       		.uleb128 0x40
 5408 0155 18       		.uleb128 0x18
 5409 0156 9742     		.uleb128 0x2117
 5410 0158 19       		.uleb128 0x19
 5411 0159 01       		.uleb128 0x1
 5412 015a 13       		.uleb128 0x13
 5413 015b 00       		.byte	0
 5414 015c 00       		.byte	0
 5415 015d 1B       		.uleb128 0x1b
 5416 015e 34       		.uleb128 0x34
 5417 015f 00       		.byte	0
 5418 0160 03       		.uleb128 0x3
 5419 0161 08       		.uleb128 0x8
 5420 0162 3A       		.uleb128 0x3a
 5421 0163 0B       		.uleb128 0xb
 5422 0164 3B       		.uleb128 0x3b
 5423 0165 05       		.uleb128 0x5
 5424 0166 49       		.uleb128 0x49
 5425 0167 13       		.uleb128 0x13
 5426 0168 02       		.uleb128 0x2
 5427 0169 17       		.uleb128 0x17
 5428 016a 00       		.byte	0
 5429 016b 00       		.byte	0
 5430 016c 1C       		.uleb128 0x1c
 5431 016d 898201   		.uleb128 0x4109
 5432 0170 01       		.byte	0x1
 5433 0171 11       		.uleb128 0x11
 5434 0172 01       		.uleb128 0x1
 5435 0173 31       		.uleb128 0x31
 5436 0174 13       		.uleb128 0x13
 5437 0175 01       		.uleb128 0x1
 5438 0176 13       		.uleb128 0x13
 5439 0177 00       		.byte	0
 5440 0178 00       		.byte	0
 5441 0179 1D       		.uleb128 0x1d
 5442 017a 898201   		.uleb128 0x4109
 5443 017d 00       		.byte	0
 5444 017e 11       		.uleb128 0x11
 5445 017f 01       		.uleb128 0x1
 5446 0180 31       		.uleb128 0x31
 5447 0181 13       		.uleb128 0x13
 5448 0182 00       		.byte	0
 5449 0183 00       		.byte	0
 5450 0184 1E       		.uleb128 0x1e
 5451 0185 2E       		.uleb128 0x2e
 5452 0186 01       		.byte	0x1
 5453 0187 3F       		.uleb128 0x3f
 5454 0188 19       		.uleb128 0x19
 5455 0189 03       		.uleb128 0x3
 5456 018a 0E       		.uleb128 0xe
 5457 018b 3A       		.uleb128 0x3a
 5458 018c 0B       		.uleb128 0xb
 5459 018d 3B       		.uleb128 0x3b
 5460 018e 0B       		.uleb128 0xb
 5461 018f 27       		.uleb128 0x27
 5462 0190 19       		.uleb128 0x19
 5463 0191 11       		.uleb128 0x11
ARM GAS  C:\Users\RECEPC~1\AppData\Local\Temp\ccIFDC7N.s 			page 113


 5464 0192 01       		.uleb128 0x1
 5465 0193 12       		.uleb128 0x12
 5466 0194 06       		.uleb128 0x6
 5467 0195 40       		.uleb128 0x40
 5468 0196 18       		.uleb128 0x18
 5469 0197 9742     		.uleb128 0x2117
 5470 0199 19       		.uleb128 0x19
 5471 019a 01       		.uleb128 0x1
 5472 019b 13       		.uleb128 0x13
 5473 019c 00       		.byte	0
 5474 019d 00       		.byte	0
 5475 019e 1F       		.uleb128 0x1f
 5476 019f 34       		.uleb128 0x34
 5477 01a0 00       		.byte	0
 5478 01a1 03       		.uleb128 0x3
 5479 01a2 0E       		.uleb128 0xe
 5480 01a3 3A       		.uleb128 0x3a
 5481 01a4 0B       		.uleb128 0xb
 5482 01a5 3B       		.uleb128 0x3b
 5483 01a6 05       		.uleb128 0x5
 5484 01a7 49       		.uleb128 0x49
 5485 01a8 13       		.uleb128 0x13
 5486 01a9 3F       		.uleb128 0x3f
 5487 01aa 19       		.uleb128 0x19
 5488 01ab 3C       		.uleb128 0x3c
 5489 01ac 19       		.uleb128 0x19
 5490 01ad 00       		.byte	0
 5491 01ae 00       		.byte	0
 5492 01af 20       		.uleb128 0x20
 5493 01b0 34       		.uleb128 0x34
 5494 01b1 00       		.byte	0
 5495 01b2 03       		.uleb128 0x3
 5496 01b3 0E       		.uleb128 0xe
 5497 01b4 3A       		.uleb128 0x3a
 5498 01b5 0B       		.uleb128 0xb
 5499 01b6 3B       		.uleb128 0x3b
 5500 01b7 0B       		.uleb128 0xb
 5501 01b8 49       		.uleb128 0x49
 5502 01b9 13       		.uleb128 0x13
 5503 01ba 3F       		.uleb128 0x3f
 5504 01bb 19       		.uleb128 0x19
 5505 01bc 02       		.uleb128 0x2
 5506 01bd 18       		.uleb128 0x18
 5507 01be 00       		.byte	0
 5508 01bf 00       		.byte	0
 5509 01c0 21       		.uleb128 0x21
 5510 01c1 21       		.uleb128 0x21
 5511 01c2 00       		.byte	0
 5512 01c3 49       		.uleb128 0x49
 5513 01c4 13       		.uleb128 0x13
 5514 01c5 2F       		.uleb128 0x2f
 5515 01c6 05       		.uleb128 0x5
 5516 01c7 00       		.byte	0
 5517 01c8 00       		.byte	0
 5518 01c9 22       		.uleb128 0x22
 5519 01ca 2E       		.uleb128 0x2e
 5520 01cb 01       		.byte	0x1
ARM GAS  C:\Users\RECEPC~1\AppData\Local\Temp\ccIFDC7N.s 			page 114


 5521 01cc 3F       		.uleb128 0x3f
 5522 01cd 19       		.uleb128 0x19
 5523 01ce 03       		.uleb128 0x3
 5524 01cf 0E       		.uleb128 0xe
 5525 01d0 27       		.uleb128 0x27
 5526 01d1 19       		.uleb128 0x19
 5527 01d2 49       		.uleb128 0x49
 5528 01d3 13       		.uleb128 0x13
 5529 01d4 34       		.uleb128 0x34
 5530 01d5 19       		.uleb128 0x19
 5531 01d6 3C       		.uleb128 0x3c
 5532 01d7 19       		.uleb128 0x19
 5533 01d8 01       		.uleb128 0x1
 5534 01d9 13       		.uleb128 0x13
 5535 01da 00       		.byte	0
 5536 01db 00       		.byte	0
 5537 01dc 23       		.uleb128 0x23
 5538 01dd 05       		.uleb128 0x5
 5539 01de 00       		.byte	0
 5540 01df 49       		.uleb128 0x49
 5541 01e0 13       		.uleb128 0x13
 5542 01e1 00       		.byte	0
 5543 01e2 00       		.byte	0
 5544 01e3 24       		.uleb128 0x24
 5545 01e4 2E       		.uleb128 0x2e
 5546 01e5 01       		.byte	0x1
 5547 01e6 3F       		.uleb128 0x3f
 5548 01e7 19       		.uleb128 0x19
 5549 01e8 03       		.uleb128 0x3
 5550 01e9 0E       		.uleb128 0xe
 5551 01ea 3A       		.uleb128 0x3a
 5552 01eb 0B       		.uleb128 0xb
 5553 01ec 3B       		.uleb128 0x3b
 5554 01ed 0B       		.uleb128 0xb
 5555 01ee 27       		.uleb128 0x27
 5556 01ef 19       		.uleb128 0x19
 5557 01f0 3C       		.uleb128 0x3c
 5558 01f1 19       		.uleb128 0x19
 5559 01f2 01       		.uleb128 0x1
 5560 01f3 13       		.uleb128 0x13
 5561 01f4 00       		.byte	0
 5562 01f5 00       		.byte	0
 5563 01f6 25       		.uleb128 0x25
 5564 01f7 2E       		.uleb128 0x2e
 5565 01f8 01       		.byte	0x1
 5566 01f9 3F       		.uleb128 0x3f
 5567 01fa 19       		.uleb128 0x19
 5568 01fb 03       		.uleb128 0x3
 5569 01fc 0E       		.uleb128 0xe
 5570 01fd 3A       		.uleb128 0x3a
 5571 01fe 0B       		.uleb128 0xb
 5572 01ff 3B       		.uleb128 0x3b
 5573 0200 0B       		.uleb128 0xb
 5574 0201 27       		.uleb128 0x27
 5575 0202 19       		.uleb128 0x19
 5576 0203 49       		.uleb128 0x49
 5577 0204 13       		.uleb128 0x13
ARM GAS  C:\Users\RECEPC~1\AppData\Local\Temp\ccIFDC7N.s 			page 115


 5578 0205 3C       		.uleb128 0x3c
 5579 0206 19       		.uleb128 0x19
 5580 0207 01       		.uleb128 0x1
 5581 0208 13       		.uleb128 0x13
 5582 0209 00       		.byte	0
 5583 020a 00       		.byte	0
 5584 020b 26       		.uleb128 0x26
 5585 020c 2E       		.uleb128 0x2e
 5586 020d 00       		.byte	0
 5587 020e 3F       		.uleb128 0x3f
 5588 020f 19       		.uleb128 0x19
 5589 0210 03       		.uleb128 0x3
 5590 0211 0E       		.uleb128 0xe
 5591 0212 3A       		.uleb128 0x3a
 5592 0213 0B       		.uleb128 0xb
 5593 0214 3B       		.uleb128 0x3b
 5594 0215 0B       		.uleb128 0xb
 5595 0216 27       		.uleb128 0x27
 5596 0217 19       		.uleb128 0x19
 5597 0218 49       		.uleb128 0x49
 5598 0219 13       		.uleb128 0x13
 5599 021a 3C       		.uleb128 0x3c
 5600 021b 19       		.uleb128 0x19
 5601 021c 00       		.byte	0
 5602 021d 00       		.byte	0
 5603 021e 27       		.uleb128 0x27
 5604 021f 2E       		.uleb128 0x2e
 5605 0220 00       		.byte	0
 5606 0221 3F       		.uleb128 0x3f
 5607 0222 19       		.uleb128 0x19
 5608 0223 03       		.uleb128 0x3
 5609 0224 0E       		.uleb128 0xe
 5610 0225 3A       		.uleb128 0x3a
 5611 0226 0B       		.uleb128 0xb
 5612 0227 3B       		.uleb128 0x3b
 5613 0228 0B       		.uleb128 0xb
 5614 0229 27       		.uleb128 0x27
 5615 022a 19       		.uleb128 0x19
 5616 022b 3C       		.uleb128 0x3c
 5617 022c 19       		.uleb128 0x19
 5618 022d 00       		.byte	0
 5619 022e 00       		.byte	0
 5620 022f 00       		.byte	0
 5621              		.section	.debug_loc,"",%progbits
 5622              	.Ldebug_loc0:
 5623              	.LLST0:
 5624 0000 00000000 		.4byte	.LVL0
 5625 0004 0A000000 		.4byte	.LVL1
 5626 0008 0100     		.2byte	0x1
 5627 000a 50       		.byte	0x50
 5628 000b 0A000000 		.4byte	.LVL1
 5629 000f 30000000 		.4byte	.LVL9
 5630 0013 0100     		.2byte	0x1
 5631 0015 55       		.byte	0x55
 5632 0016 30000000 		.4byte	.LVL9
 5633 001a 34000000 		.4byte	.LFE63
 5634 001e 0400     		.2byte	0x4
ARM GAS  C:\Users\RECEPC~1\AppData\Local\Temp\ccIFDC7N.s 			page 116


 5635 0020 F3       		.byte	0xf3
 5636 0021 01       		.uleb128 0x1
 5637 0022 50       		.byte	0x50
 5638 0023 9F       		.byte	0x9f
 5639 0024 00000000 		.4byte	0
 5640 0028 00000000 		.4byte	0
 5641              	.LLST1:
 5642 002c 00000000 		.4byte	.LVL0
 5643 0030 0C000000 		.4byte	.LVL2
 5644 0034 0100     		.2byte	0x1
 5645 0036 51       		.byte	0x51
 5646 0037 0C000000 		.4byte	.LVL2
 5647 003b 34000000 		.4byte	.LFE63
 5648 003f 0400     		.2byte	0x4
 5649 0041 F3       		.byte	0xf3
 5650 0042 01       		.uleb128 0x1
 5651 0043 51       		.byte	0x51
 5652 0044 9F       		.byte	0x9f
 5653 0045 00000000 		.4byte	0
 5654 0049 00000000 		.4byte	0
 5655              	.LLST2:
 5656 004d 14000000 		.4byte	.LVL3
 5657 0051 1A000000 		.4byte	.LVL4
 5658 0055 0200     		.2byte	0x2
 5659 0057 30       		.byte	0x30
 5660 0058 9F       		.byte	0x9f
 5661 0059 1A000000 		.4byte	.LVL4
 5662 005d 1E000000 		.4byte	.LVL5
 5663 0061 0100     		.2byte	0x1
 5664 0063 50       		.byte	0x50
 5665 0064 22000000 		.4byte	.LVL6
 5666 0068 34000000 		.4byte	.LFE63
 5667 006c 0100     		.2byte	0x1
 5668 006e 50       		.byte	0x50
 5669 006f 00000000 		.4byte	0
 5670 0073 00000000 		.4byte	0
 5671              	.LLST3:
 5672 0077 1E000000 		.4byte	.LVL5
 5673 007b 22000000 		.4byte	.LVL6
 5674 007f 0100     		.2byte	0x1
 5675 0081 50       		.byte	0x50
 5676 0082 00000000 		.4byte	0
 5677 0086 00000000 		.4byte	0
 5678              	.LLST4:
 5679 008a 14000000 		.4byte	.LVL3
 5680 008e 1A000000 		.4byte	.LVL4
 5681 0092 0200     		.2byte	0x2
 5682 0094 30       		.byte	0x30
 5683 0095 9F       		.byte	0x9f
 5684 0096 1A000000 		.4byte	.LVL4
 5685 009a 24000000 		.4byte	.LVL7
 5686 009e 0100     		.2byte	0x1
 5687 00a0 53       		.byte	0x53
 5688 00a1 26000000 		.4byte	.LVL8
 5689 00a5 34000000 		.4byte	.LFE63
 5690 00a9 0100     		.2byte	0x1
 5691 00ab 53       		.byte	0x53
ARM GAS  C:\Users\RECEPC~1\AppData\Local\Temp\ccIFDC7N.s 			page 117


 5692 00ac 00000000 		.4byte	0
 5693 00b0 00000000 		.4byte	0
 5694              	.LLST5:
 5695 00b4 58000000 		.4byte	.LVL10
 5696 00b8 6A000000 		.4byte	.LVL11
 5697 00bc 0100     		.2byte	0x1
 5698 00be 54       		.byte	0x54
 5699 00bf 6C000000 		.4byte	.LVL12
 5700 00c3 74000000 		.4byte	.LVL13
 5701 00c7 0100     		.2byte	0x1
 5702 00c9 54       		.byte	0x54
 5703 00ca 74000000 		.4byte	.LVL13
 5704 00ce 8C000000 		.4byte	.LVL14
 5705 00d2 0100     		.2byte	0x1
 5706 00d4 53       		.byte	0x53
 5707 00d5 8E000000 		.4byte	.LVL15
 5708 00d9 96000000 		.4byte	.LVL16
 5709 00dd 0100     		.2byte	0x1
 5710 00df 53       		.byte	0x53
 5711 00e0 A4000000 		.4byte	.LVL17
 5712 00e4 B6000000 		.4byte	.LVL18
 5713 00e8 0100     		.2byte	0x1
 5714 00ea 53       		.byte	0x53
 5715 00eb B8000000 		.4byte	.LVL19
 5716 00ef BA000000 		.4byte	.LVL20
 5717 00f3 0100     		.2byte	0x1
 5718 00f5 53       		.byte	0x53
 5719 00f6 BC000000 		.4byte	.LVL21
 5720 00fa E2000000 		.4byte	.LVL23
 5721 00fe 0100     		.2byte	0x1
 5722 0100 53       		.byte	0x53
 5723 0101 E4000000 		.4byte	.LVL24
 5724 0105 EC000000 		.4byte	.LVL25
 5725 0109 0100     		.2byte	0x1
 5726 010b 53       		.byte	0x53
 5727 010c EE000000 		.4byte	.LVL26
 5728 0110 FB000000 		.4byte	.LVL27-1
 5729 0114 0100     		.2byte	0x1
 5730 0116 53       		.byte	0x53
 5731 0117 00010000 		.4byte	.LVL28
 5732 011b 02010000 		.4byte	.LVL29
 5733 011f 0200     		.2byte	0x2
 5734 0121 30       		.byte	0x30
 5735 0122 9F       		.byte	0x9f
 5736 0123 02010000 		.4byte	.LVL29
 5737 0127 0C010000 		.4byte	.LVL31
 5738 012b 0100     		.2byte	0x1
 5739 012d 54       		.byte	0x54
 5740 012e 0E010000 		.4byte	.LVL32
 5741 0132 20010000 		.4byte	.LVL33
 5742 0136 0100     		.2byte	0x1
 5743 0138 54       		.byte	0x54
 5744 0139 6A010000 		.4byte	.LVL34
 5745 013d 7C010000 		.4byte	.LVL35
 5746 0141 0100     		.2byte	0x1
 5747 0143 54       		.byte	0x54
 5748 0144 7E010000 		.4byte	.LVL36
ARM GAS  C:\Users\RECEPC~1\AppData\Local\Temp\ccIFDC7N.s 			page 118


 5749 0148 86010000 		.4byte	.LVL37
 5750 014c 0100     		.2byte	0x1
 5751 014e 54       		.byte	0x54
 5752 014f 86010000 		.4byte	.LVL37
 5753 0153 9E010000 		.4byte	.LVL38
 5754 0157 0100     		.2byte	0x1
 5755 0159 53       		.byte	0x53
 5756 015a A0010000 		.4byte	.LVL39
 5757 015e A6010000 		.4byte	.LVL40
 5758 0162 0100     		.2byte	0x1
 5759 0164 53       		.byte	0x53
 5760 0165 B4010000 		.4byte	.LVL41
 5761 0169 C6010000 		.4byte	.LVL42
 5762 016d 0100     		.2byte	0x1
 5763 016f 53       		.byte	0x53
 5764 0170 C8010000 		.4byte	.LVL43
 5765 0174 CA010000 		.4byte	.LVL44
 5766 0178 0100     		.2byte	0x1
 5767 017a 53       		.byte	0x53
 5768 017b CC010000 		.4byte	.LVL45
 5769 017f EA010000 		.4byte	.LVL46
 5770 0183 0100     		.2byte	0x1
 5771 0185 53       		.byte	0x53
 5772 0186 EC010000 		.4byte	.LVL47
 5773 018a F8010000 		.4byte	.LVL48
 5774 018e 0100     		.2byte	0x1
 5775 0190 53       		.byte	0x53
 5776 0191 14020000 		.4byte	.LVL49
 5777 0195 26020000 		.4byte	.LVL50
 5778 0199 0100     		.2byte	0x1
 5779 019b 53       		.byte	0x53
 5780 019c 28020000 		.4byte	.LVL51
 5781 01a0 2A020000 		.4byte	.LVL52
 5782 01a4 0100     		.2byte	0x1
 5783 01a6 53       		.byte	0x53
 5784 01a7 2C020000 		.4byte	.LVL53
 5785 01ab 4A020000 		.4byte	.LVL54
 5786 01af 0100     		.2byte	0x1
 5787 01b1 53       		.byte	0x53
 5788 01b2 4C020000 		.4byte	.LVL55
 5789 01b6 58020000 		.4byte	.LVL56
 5790 01ba 0100     		.2byte	0x1
 5791 01bc 53       		.byte	0x53
 5792 01bd 70020000 		.4byte	.LVL58
 5793 01c1 72020000 		.4byte	.LVL59
 5794 01c5 0200     		.2byte	0x2
 5795 01c7 30       		.byte	0x30
 5796 01c8 9F       		.byte	0x9f
 5797 01c9 72020000 		.4byte	.LVL59
 5798 01cd 7C020000 		.4byte	.LVL61
 5799 01d1 0100     		.2byte	0x1
 5800 01d3 54       		.byte	0x54
 5801 01d4 7E020000 		.4byte	.LVL62
 5802 01d8 96020000 		.4byte	.LVL63
 5803 01dc 0100     		.2byte	0x1
 5804 01de 54       		.byte	0x54
 5805 01df 00000000 		.4byte	0
ARM GAS  C:\Users\RECEPC~1\AppData\Local\Temp\ccIFDC7N.s 			page 119


 5806 01e3 00000000 		.4byte	0
 5807              	.LLST6:
 5808 01e7 5A000000 		.4byte	.LVL65
 5809 01eb 6C000000 		.4byte	.LVL66
 5810 01ef 0100     		.2byte	0x1
 5811 01f1 54       		.byte	0x54
 5812 01f2 6E000000 		.4byte	.LVL67
 5813 01f6 76000000 		.4byte	.LVL68
 5814 01fa 0100     		.2byte	0x1
 5815 01fc 54       		.byte	0x54
 5816 01fd 76000000 		.4byte	.LVL68
 5817 0201 8E000000 		.4byte	.LVL69
 5818 0205 0100     		.2byte	0x1
 5819 0207 53       		.byte	0x53
 5820 0208 90000000 		.4byte	.LVL70
 5821 020c 98000000 		.4byte	.LVL71
 5822 0210 0100     		.2byte	0x1
 5823 0212 53       		.byte	0x53
 5824 0213 A6000000 		.4byte	.LVL72
 5825 0217 B8000000 		.4byte	.LVL73
 5826 021b 0100     		.2byte	0x1
 5827 021d 53       		.byte	0x53
 5828 021e BA000000 		.4byte	.LVL74
 5829 0222 BC000000 		.4byte	.LVL75
 5830 0226 0100     		.2byte	0x1
 5831 0228 53       		.byte	0x53
 5832 0229 BE000000 		.4byte	.LVL76
 5833 022d E4000000 		.4byte	.LVL78
 5834 0231 0100     		.2byte	0x1
 5835 0233 53       		.byte	0x53
 5836 0234 E6000000 		.4byte	.LVL79
 5837 0238 EE000000 		.4byte	.LVL80
 5838 023c 0100     		.2byte	0x1
 5839 023e 53       		.byte	0x53
 5840 023f F0000000 		.4byte	.LVL81
 5841 0243 FD000000 		.4byte	.LVL82-1
 5842 0247 0100     		.2byte	0x1
 5843 0249 53       		.byte	0x53
 5844 024a 02010000 		.4byte	.LVL83
 5845 024e 04010000 		.4byte	.LVL84
 5846 0252 0200     		.2byte	0x2
 5847 0254 30       		.byte	0x30
 5848 0255 9F       		.byte	0x9f
 5849 0256 04010000 		.4byte	.LVL84
 5850 025a 0E010000 		.4byte	.LVL86
 5851 025e 0100     		.2byte	0x1
 5852 0260 54       		.byte	0x54
 5853 0261 10010000 		.4byte	.LVL87
 5854 0265 22010000 		.4byte	.LVL88
 5855 0269 0100     		.2byte	0x1
 5856 026b 54       		.byte	0x54
 5857 026c 6E010000 		.4byte	.LVL89
 5858 0270 80010000 		.4byte	.LVL90
 5859 0274 0100     		.2byte	0x1
 5860 0276 54       		.byte	0x54
 5861 0277 82010000 		.4byte	.LVL91
 5862 027b 8A010000 		.4byte	.LVL92
ARM GAS  C:\Users\RECEPC~1\AppData\Local\Temp\ccIFDC7N.s 			page 120


 5863 027f 0100     		.2byte	0x1
 5864 0281 54       		.byte	0x54
 5865 0282 8A010000 		.4byte	.LVL92
 5866 0286 A2010000 		.4byte	.LVL93
 5867 028a 0100     		.2byte	0x1
 5868 028c 53       		.byte	0x53
 5869 028d A4010000 		.4byte	.LVL94
 5870 0291 AA010000 		.4byte	.LVL95
 5871 0295 0100     		.2byte	0x1
 5872 0297 53       		.byte	0x53
 5873 0298 B8010000 		.4byte	.LVL96
 5874 029c CA010000 		.4byte	.LVL97
 5875 02a0 0100     		.2byte	0x1
 5876 02a2 53       		.byte	0x53
 5877 02a3 CC010000 		.4byte	.LVL98
 5878 02a7 CE010000 		.4byte	.LVL99
 5879 02ab 0100     		.2byte	0x1
 5880 02ad 53       		.byte	0x53
 5881 02ae D0010000 		.4byte	.LVL100
 5882 02b2 EE010000 		.4byte	.LVL101
 5883 02b6 0100     		.2byte	0x1
 5884 02b8 53       		.byte	0x53
 5885 02b9 F0010000 		.4byte	.LVL102
 5886 02bd FC010000 		.4byte	.LVL103
 5887 02c1 0100     		.2byte	0x1
 5888 02c3 53       		.byte	0x53
 5889 02c4 18020000 		.4byte	.LVL104
 5890 02c8 2A020000 		.4byte	.LVL105
 5891 02cc 0100     		.2byte	0x1
 5892 02ce 53       		.byte	0x53
 5893 02cf 2C020000 		.4byte	.LVL106
 5894 02d3 2E020000 		.4byte	.LVL107
 5895 02d7 0100     		.2byte	0x1
 5896 02d9 53       		.byte	0x53
 5897 02da 30020000 		.4byte	.LVL108
 5898 02de 4E020000 		.4byte	.LVL109
 5899 02e2 0100     		.2byte	0x1
 5900 02e4 53       		.byte	0x53
 5901 02e5 50020000 		.4byte	.LVL110
 5902 02e9 5C020000 		.4byte	.LVL111
 5903 02ed 0100     		.2byte	0x1
 5904 02ef 53       		.byte	0x53
 5905 02f0 7A020000 		.4byte	.LVL113
 5906 02f4 7C020000 		.4byte	.LVL114
 5907 02f8 0200     		.2byte	0x2
 5908 02fa 30       		.byte	0x30
 5909 02fb 9F       		.byte	0x9f
 5910 02fc 7C020000 		.4byte	.LVL114
 5911 0300 86020000 		.4byte	.LVL116
 5912 0304 0100     		.2byte	0x1
 5913 0306 54       		.byte	0x54
 5914 0307 88020000 		.4byte	.LVL117
 5915 030b A6020000 		.4byte	.LVL119
 5916 030f 0100     		.2byte	0x1
 5917 0311 54       		.byte	0x54
 5918 0312 00000000 		.4byte	0
 5919 0316 00000000 		.4byte	0
ARM GAS  C:\Users\RECEPC~1\AppData\Local\Temp\ccIFDC7N.s 			page 121


 5920              	.LLST7:
 5921 031a 1E000000 		.4byte	.LVL123
 5922 031e 20000000 		.4byte	.LVL124
 5923 0322 0200     		.2byte	0x2
 5924 0324 30       		.byte	0x30
 5925 0325 9F       		.byte	0x9f
 5926 0326 20000000 		.4byte	.LVL124
 5927 032a 2A000000 		.4byte	.LVL126
 5928 032e 0100     		.2byte	0x1
 5929 0330 54       		.byte	0x54
 5930 0331 2C000000 		.4byte	.LVL127
 5931 0335 C8000000 		.4byte	.LVL135
 5932 0339 0100     		.2byte	0x1
 5933 033b 54       		.byte	0x54
 5934 033c F8000000 		.4byte	.LVL146
 5935 0340 FE000000 		.4byte	.LVL148
 5936 0344 0100     		.2byte	0x1
 5937 0346 54       		.byte	0x54
 5938 0347 00010000 		.4byte	.LVL149
 5939 034b 02010000 		.4byte	.LVL150
 5940 034f 0100     		.2byte	0x1
 5941 0351 54       		.byte	0x54
 5942 0352 FE010000 		.4byte	.LVL187
 5943 0356 28020000 		.4byte	.LVL193
 5944 035a 0100     		.2byte	0x1
 5945 035c 54       		.byte	0x54
 5946 035d FE020000 		.4byte	.LVL230
 5947 0361 00030000 		.4byte	.LVL231
 5948 0365 0100     		.2byte	0x1
 5949 0367 54       		.byte	0x54
 5950 0368 26040000 		.4byte	.LVL283
 5951 036c 34040000 		.4byte	.LVL284
 5952 0370 0100     		.2byte	0x1
 5953 0372 54       		.byte	0x54
 5954 0373 4E040000 		.4byte	.LVL288
 5955 0377 50040000 		.4byte	.LVL289
 5956 037b 0100     		.2byte	0x1
 5957 037d 54       		.byte	0x54
 5958 037e A0050000 		.4byte	.LVL334
 5959 0382 0C060000 		.4byte	.LVL335
 5960 0386 0100     		.2byte	0x1
 5961 0388 54       		.byte	0x54
 5962 0389 2C060000 		.4byte	.LVL342
 5963 038d BE060000 		.4byte	.LVL362
 5964 0391 0100     		.2byte	0x1
 5965 0393 54       		.byte	0x54
 5966 0394 64070000 		.4byte	.LVL388
 5967 0398 6A070000 		.4byte	.LVL389
 5968 039c 0100     		.2byte	0x1
 5969 039e 54       		.byte	0x54
 5970 039f 00000000 		.4byte	0
 5971 03a3 00000000 		.4byte	0
 5972              	.LLST8:
 5973 03a7 E0000000 		.4byte	.LVL140
 5974 03ab E4000000 		.4byte	.LVL141
 5975 03af 0200     		.2byte	0x2
 5976 03b1 30       		.byte	0x30
ARM GAS  C:\Users\RECEPC~1\AppData\Local\Temp\ccIFDC7N.s 			page 122


 5977 03b2 9F       		.byte	0x9f
 5978 03b3 E4000000 		.4byte	.LVL141
 5979 03b7 EE000000 		.4byte	.LVL143
 5980 03bb 0100     		.2byte	0x1
 5981 03bd 54       		.byte	0x54
 5982 03be F0000000 		.4byte	.LVL144
 5983 03c2 F6000000 		.4byte	.LVL145
 5984 03c6 0100     		.2byte	0x1
 5985 03c8 54       		.byte	0x54
 5986 03c9 44010000 		.4byte	.LVL157
 5987 03cd 48010000 		.4byte	.LVL158
 5988 03d1 0200     		.2byte	0x2
 5989 03d3 30       		.byte	0x30
 5990 03d4 9F       		.byte	0x9f
 5991 03d5 48010000 		.4byte	.LVL158
 5992 03d9 52010000 		.4byte	.LVL160
 5993 03dd 0100     		.2byte	0x1
 5994 03df 55       		.byte	0x55
 5995 03e0 54010000 		.4byte	.LVL161
 5996 03e4 5A010000 		.4byte	.LVL162
 5997 03e8 0100     		.2byte	0x1
 5998 03ea 55       		.byte	0x55
 5999 03eb 98010000 		.4byte	.LVL170
 6000 03ef 9C010000 		.4byte	.LVL171
 6001 03f3 0200     		.2byte	0x2
 6002 03f5 30       		.byte	0x30
 6003 03f6 9F       		.byte	0x9f
 6004 03f7 9C010000 		.4byte	.LVL171
 6005 03fb A6010000 		.4byte	.LVL173
 6006 03ff 0100     		.2byte	0x1
 6007 0401 55       		.byte	0x55
 6008 0402 A8010000 		.4byte	.LVL174
 6009 0406 AC010000 		.4byte	.LVL175
 6010 040a 0100     		.2byte	0x1
 6011 040c 55       		.byte	0x55
 6012 040d E8010000 		.4byte	.LVL182
 6013 0411 EC010000 		.4byte	.LVL183
 6014 0415 0200     		.2byte	0x2
 6015 0417 30       		.byte	0x30
 6016 0418 9F       		.byte	0x9f
 6017 0419 EC010000 		.4byte	.LVL183
 6018 041d F6010000 		.4byte	.LVL185
 6019 0421 0100     		.2byte	0x1
 6020 0423 55       		.byte	0x55
 6021 0424 F8010000 		.4byte	.LVL186
 6022 0428 FE010000 		.4byte	.LVL187
 6023 042c 0100     		.2byte	0x1
 6024 042e 55       		.byte	0x55
 6025 042f 42020000 		.4byte	.LVL197
 6026 0433 52020000 		.4byte	.LVL200
 6027 0437 0100     		.2byte	0x1
 6028 0439 53       		.byte	0x53
 6029 043a 54020000 		.4byte	.LVL201
 6030 043e 56020000 		.4byte	.LVL202
 6031 0442 0100     		.2byte	0x1
 6032 0444 53       		.byte	0x53
 6033 0445 58020000 		.4byte	.LVL203
ARM GAS  C:\Users\RECEPC~1\AppData\Local\Temp\ccIFDC7N.s 			page 123


 6034 0449 6A020000 		.4byte	.LVL206
 6035 044d 0100     		.2byte	0x1
 6036 044f 53       		.byte	0x53
 6037 0450 6C020000 		.4byte	.LVL207
 6038 0454 72020000 		.4byte	.LVL208
 6039 0458 0100     		.2byte	0x1
 6040 045a 53       		.byte	0x53
 6041 045b 74020000 		.4byte	.LVL209
 6042 045f 84020000 		.4byte	.LVL212
 6043 0463 0100     		.2byte	0x1
 6044 0465 53       		.byte	0x53
 6045 0466 86020000 		.4byte	.LVL213
 6046 046a 98020000 		.4byte	.LVL216
 6047 046e 0100     		.2byte	0x1
 6048 0470 53       		.byte	0x53
 6049 0471 9A020000 		.4byte	.LVL217
 6050 0475 B0020000 		.4byte	.LVL220
 6051 0479 0100     		.2byte	0x1
 6052 047b 53       		.byte	0x53
 6053 047c B2020000 		.4byte	.LVL221
 6054 0480 B8020000 		.4byte	.LVL222
 6055 0484 0100     		.2byte	0x1
 6056 0486 53       		.byte	0x53
 6057 0487 D8020000 		.4byte	.LVL223
 6058 048b E8020000 		.4byte	.LVL226
 6059 048f 0100     		.2byte	0x1
 6060 0491 53       		.byte	0x53
 6061 0492 EA020000 		.4byte	.LVL227
 6062 0496 F2020000 		.4byte	.LVL229
 6063 049a 0100     		.2byte	0x1
 6064 049c 53       		.byte	0x53
 6065 049d 56030000 		.4byte	.LVL243
 6066 04a1 68030000 		.4byte	.LVL246
 6067 04a5 0100     		.2byte	0x1
 6068 04a7 53       		.byte	0x53
 6069 04a8 6A030000 		.4byte	.LVL247
 6070 04ac 6C030000 		.4byte	.LVL248
 6071 04b0 0100     		.2byte	0x1
 6072 04b2 53       		.byte	0x53
 6073 04b3 6E030000 		.4byte	.LVL249
 6074 04b7 80030000 		.4byte	.LVL252
 6075 04bb 0100     		.2byte	0x1
 6076 04bd 53       		.byte	0x53
 6077 04be 82030000 		.4byte	.LVL253
 6078 04c2 88030000 		.4byte	.LVL254
 6079 04c6 0100     		.2byte	0x1
 6080 04c8 53       		.byte	0x53
 6081 04c9 8A030000 		.4byte	.LVL255
 6082 04cd 9C030000 		.4byte	.LVL258
 6083 04d1 0100     		.2byte	0x1
 6084 04d3 53       		.byte	0x53
 6085 04d4 9E030000 		.4byte	.LVL259
 6086 04d8 B0030000 		.4byte	.LVL262
 6087 04dc 0100     		.2byte	0x1
 6088 04de 53       		.byte	0x53
 6089 04df B2030000 		.4byte	.LVL263
 6090 04e3 CA030000 		.4byte	.LVL266
ARM GAS  C:\Users\RECEPC~1\AppData\Local\Temp\ccIFDC7N.s 			page 124


 6091 04e7 0100     		.2byte	0x1
 6092 04e9 53       		.byte	0x53
 6093 04ea CC030000 		.4byte	.LVL267
 6094 04ee D2030000 		.4byte	.LVL268
 6095 04f2 0100     		.2byte	0x1
 6096 04f4 53       		.byte	0x53
 6097 04f5 D4030000 		.4byte	.LVL269
 6098 04f9 E6030000 		.4byte	.LVL272
 6099 04fd 0100     		.2byte	0x1
 6100 04ff 53       		.byte	0x53
 6101 0500 E8030000 		.4byte	.LVL273
 6102 0504 F0030000 		.4byte	.LVL275
 6103 0508 0100     		.2byte	0x1
 6104 050a 53       		.byte	0x53
 6105 050b 10040000 		.4byte	.LVL278
 6106 050f 14040000 		.4byte	.LVL279
 6107 0513 0200     		.2byte	0x2
 6108 0515 30       		.byte	0x30
 6109 0516 9F       		.byte	0x9f
 6110 0517 14040000 		.4byte	.LVL279
 6111 051b 1E040000 		.4byte	.LVL281
 6112 051f 0100     		.2byte	0x1
 6113 0521 54       		.byte	0x54
 6114 0522 20040000 		.4byte	.LVL282
 6115 0526 26040000 		.4byte	.LVL283
 6116 052a 0100     		.2byte	0x1
 6117 052c 54       		.byte	0x54
 6118 052d 36040000 		.4byte	.LVL285
 6119 0531 4A040000 		.4byte	.LVL286
 6120 0535 0100     		.2byte	0x1
 6121 0537 53       		.byte	0x53
 6122 0538 4C040000 		.4byte	.LVL287
 6123 053c 4E040000 		.4byte	.LVL288
 6124 0540 0100     		.2byte	0x1
 6125 0542 53       		.byte	0x53
 6126 0543 50040000 		.4byte	.LVL289
 6127 0547 56040000 		.4byte	.LVL290
 6128 054b 0100     		.2byte	0x1
 6129 054d 53       		.byte	0x53
 6130 054e 7E040000 		.4byte	.LVL295
 6131 0552 92040000 		.4byte	.LVL296
 6132 0556 0100     		.2byte	0x1
 6133 0558 53       		.byte	0x53
 6134 0559 94040000 		.4byte	.LVL297
 6135 055d 96040000 		.4byte	.LVL298
 6136 0561 0100     		.2byte	0x1
 6137 0563 53       		.byte	0x53
 6138 0564 98040000 		.4byte	.LVL299
 6139 0568 9E040000 		.4byte	.LVL300
 6140 056c 0100     		.2byte	0x1
 6141 056e 53       		.byte	0x53
 6142 056f D0040000 		.4byte	.LVL306
 6143 0573 E4040000 		.4byte	.LVL307
 6144 0577 0100     		.2byte	0x1
 6145 0579 53       		.byte	0x53
 6146 057a E6040000 		.4byte	.LVL308
 6147 057e E8040000 		.4byte	.LVL309
ARM GAS  C:\Users\RECEPC~1\AppData\Local\Temp\ccIFDC7N.s 			page 125


 6148 0582 0100     		.2byte	0x1
 6149 0584 53       		.byte	0x53
 6150 0585 EA040000 		.4byte	.LVL310
 6151 0589 F0040000 		.4byte	.LVL311
 6152 058d 0100     		.2byte	0x1
 6153 058f 53       		.byte	0x53
 6154 0590 22050000 		.4byte	.LVL317
 6155 0594 36050000 		.4byte	.LVL318
 6156 0598 0100     		.2byte	0x1
 6157 059a 53       		.byte	0x53
 6158 059b 38050000 		.4byte	.LVL319
 6159 059f 3A050000 		.4byte	.LVL320
 6160 05a3 0100     		.2byte	0x1
 6161 05a5 53       		.byte	0x53
 6162 05a6 3C050000 		.4byte	.LVL321
 6163 05aa 42050000 		.4byte	.LVL322
 6164 05ae 0100     		.2byte	0x1
 6165 05b0 53       		.byte	0x53
 6166 05b1 78050000 		.4byte	.LVL329
 6167 05b5 7C050000 		.4byte	.LVL330
 6168 05b9 0200     		.2byte	0x2
 6169 05bb 30       		.byte	0x30
 6170 05bc 9F       		.byte	0x9f
 6171 05bd 7C050000 		.4byte	.LVL330
 6172 05c1 86050000 		.4byte	.LVL332
 6173 05c5 0100     		.2byte	0x1
 6174 05c7 54       		.byte	0x54
 6175 05c8 88050000 		.4byte	.LVL333
 6176 05cc A0050000 		.4byte	.LVL334
 6177 05d0 0100     		.2byte	0x1
 6178 05d2 54       		.byte	0x54
 6179 05d3 16060000 		.4byte	.LVL337
 6180 05d7 1A060000 		.4byte	.LVL338
 6181 05db 0200     		.2byte	0x2
 6182 05dd 30       		.byte	0x30
 6183 05de 9F       		.byte	0x9f
 6184 05df 1A060000 		.4byte	.LVL338
 6185 05e3 24060000 		.4byte	.LVL340
 6186 05e7 0100     		.2byte	0x1
 6187 05e9 54       		.byte	0x54
 6188 05ea 26060000 		.4byte	.LVL341
 6189 05ee 2C060000 		.4byte	.LVL342
 6190 05f2 0100     		.2byte	0x1
 6191 05f4 54       		.byte	0x54
 6192 05f5 4C060000 		.4byte	.LVL343
 6193 05f9 50060000 		.4byte	.LVL344
 6194 05fd 0200     		.2byte	0x2
 6195 05ff 41       		.byte	0x41
 6196 0600 9F       		.byte	0x9f
 6197 0601 50060000 		.4byte	.LVL344
 6198 0605 5E060000 		.4byte	.LVL345
 6199 0609 0100     		.2byte	0x1
 6200 060b 53       		.byte	0x53
 6201 060c 60060000 		.4byte	.LVL346
 6202 0610 66060000 		.4byte	.LVL347
 6203 0614 0100     		.2byte	0x1
 6204 0616 53       		.byte	0x53
ARM GAS  C:\Users\RECEPC~1\AppData\Local\Temp\ccIFDC7N.s 			page 126


 6205 0617 68060000 		.4byte	.LVL348
 6206 061b 76060000 		.4byte	.LVL349
 6207 061f 0100     		.2byte	0x1
 6208 0621 53       		.byte	0x53
 6209 0622 78060000 		.4byte	.LVL350
 6210 0626 7E060000 		.4byte	.LVL351
 6211 062a 0100     		.2byte	0x1
 6212 062c 53       		.byte	0x53
 6213 062d 80060000 		.4byte	.LVL352
 6214 0631 8E060000 		.4byte	.LVL353
 6215 0635 0100     		.2byte	0x1
 6216 0637 53       		.byte	0x53
 6217 0638 90060000 		.4byte	.LVL354
 6218 063c 96060000 		.4byte	.LVL355
 6219 0640 0100     		.2byte	0x1
 6220 0642 53       		.byte	0x53
 6221 0643 98060000 		.4byte	.LVL356
 6222 0647 A6060000 		.4byte	.LVL357
 6223 064b 0100     		.2byte	0x1
 6224 064d 53       		.byte	0x53
 6225 064e A8060000 		.4byte	.LVL358
 6226 0652 AE060000 		.4byte	.LVL359
 6227 0656 0100     		.2byte	0x1
 6228 0658 53       		.byte	0x53
 6229 0659 BC060000 		.4byte	.LVL361
 6230 065d C0060000 		.4byte	.LVL363
 6231 0661 0200     		.2byte	0x2
 6232 0663 30       		.byte	0x30
 6233 0664 9F       		.byte	0x9f
 6234 0665 C0060000 		.4byte	.LVL363
 6235 0669 D0060000 		.4byte	.LVL365
 6236 066d 0100     		.2byte	0x1
 6237 066f 54       		.byte	0x54
 6238 0670 D2060000 		.4byte	.LVL366
 6239 0674 D8060000 		.4byte	.LVL367
 6240 0678 0100     		.2byte	0x1
 6241 067a 54       		.byte	0x54
 6242 067b DA060000 		.4byte	.LVL368
 6243 067f EE060000 		.4byte	.LVL370
 6244 0683 0100     		.2byte	0x1
 6245 0685 54       		.byte	0x54
 6246 0686 F0060000 		.4byte	.LVL371
 6247 068a F6060000 		.4byte	.LVL372
 6248 068e 0100     		.2byte	0x1
 6249 0690 54       		.byte	0x54
 6250 0691 F8060000 		.4byte	.LVL373
 6251 0695 0C070000 		.4byte	.LVL375
 6252 0699 0100     		.2byte	0x1
 6253 069b 54       		.byte	0x54
 6254 069c 0E070000 		.4byte	.LVL376
 6255 06a0 14070000 		.4byte	.LVL377
 6256 06a4 0100     		.2byte	0x1
 6257 06a6 54       		.byte	0x54
 6258 06a7 16070000 		.4byte	.LVL378
 6259 06ab 2A070000 		.4byte	.LVL380
 6260 06af 0100     		.2byte	0x1
 6261 06b1 54       		.byte	0x54
ARM GAS  C:\Users\RECEPC~1\AppData\Local\Temp\ccIFDC7N.s 			page 127


 6262 06b2 2C070000 		.4byte	.LVL381
 6263 06b6 38070000 		.4byte	.LVL383
 6264 06ba 0100     		.2byte	0x1
 6265 06bc 54       		.byte	0x54
 6266 06bd 82070000 		.4byte	.LVL391
 6267 06c1 86070000 		.4byte	.LVL392
 6268 06c5 0200     		.2byte	0x2
 6269 06c7 30       		.byte	0x30
 6270 06c8 9F       		.byte	0x9f
 6271 06c9 86070000 		.4byte	.LVL392
 6272 06cd 90070000 		.4byte	.LVL394
 6273 06d1 0100     		.2byte	0x1
 6274 06d3 54       		.byte	0x54
 6275 06d4 92070000 		.4byte	.LVL395
 6276 06d8 9A070000 		.4byte	.LVL396
 6277 06dc 0100     		.2byte	0x1
 6278 06de 54       		.byte	0x54
 6279 06df 9A070000 		.4byte	.LVL396
 6280 06e3 A8070000 		.4byte	.LVL397
 6281 06e7 0100     		.2byte	0x1
 6282 06e9 53       		.byte	0x53
 6283 06ea AA070000 		.4byte	.LVL398
 6284 06ee B0070000 		.4byte	.LVL399
 6285 06f2 0100     		.2byte	0x1
 6286 06f4 53       		.byte	0x53
 6287 06f5 00000000 		.4byte	0
 6288 06f9 00000000 		.4byte	0
 6289              	.LLST9:
 6290 06fd 34000000 		.4byte	.LVL129
 6291 0701 3A000000 		.4byte	.LVL130
 6292 0705 0200     		.2byte	0x2
 6293 0707 30       		.byte	0x30
 6294 0708 9F       		.byte	0x9f
 6295 0709 3A000000 		.4byte	.LVL130
 6296 070d 3E000000 		.4byte	.LVL131
 6297 0711 0200     		.2byte	0x2
 6298 0713 31       		.byte	0x31
 6299 0714 9F       		.byte	0x9f
 6300 0715 3E000000 		.4byte	.LVL131
 6301 0719 42000000 		.4byte	.LVL132
 6302 071d 0200     		.2byte	0x2
 6303 071f 32       		.byte	0x32
 6304 0720 9F       		.byte	0x9f
 6305 0721 42000000 		.4byte	.LVL132
 6306 0725 48000000 		.4byte	.LVL133
 6307 0729 0200     		.2byte	0x2
 6308 072b 33       		.byte	0x33
 6309 072c 9F       		.byte	0x9f
 6310 072d 48000000 		.4byte	.LVL133
 6311 0731 4C000000 		.4byte	.LVL134
 6312 0735 0200     		.2byte	0x2
 6313 0737 34       		.byte	0x34
 6314 0738 9F       		.byte	0x9f
 6315 0739 4C000000 		.4byte	.LVL134
 6316 073d CA000000 		.4byte	.LVL136
 6317 0741 0200     		.2byte	0x2
 6318 0743 35       		.byte	0x35
ARM GAS  C:\Users\RECEPC~1\AppData\Local\Temp\ccIFDC7N.s 			page 128


 6319 0744 9F       		.byte	0x9f
 6320 0745 CA000000 		.4byte	.LVL136
 6321 0749 CE000000 		.4byte	.LVL137
 6322 074d 0200     		.2byte	0x2
 6323 074f 36       		.byte	0x36
 6324 0750 9F       		.byte	0x9f
 6325 0751 CE000000 		.4byte	.LVL137
 6326 0755 D6000000 		.4byte	.LVL138
 6327 0759 0200     		.2byte	0x2
 6328 075b 37       		.byte	0x37
 6329 075c 9F       		.byte	0x9f
 6330 075d D6000000 		.4byte	.LVL138
 6331 0761 E0000000 		.4byte	.LVL140
 6332 0765 0200     		.2byte	0x2
 6333 0767 38       		.byte	0x38
 6334 0768 9F       		.byte	0x9f
 6335 0769 E0000000 		.4byte	.LVL140
 6336 076d F8000000 		.4byte	.LVL146
 6337 0771 0200     		.2byte	0x2
 6338 0773 39       		.byte	0x39
 6339 0774 9F       		.byte	0x9f
 6340 0775 F8000000 		.4byte	.LVL146
 6341 0779 02010000 		.4byte	.LVL150
 6342 077d 0200     		.2byte	0x2
 6343 077f 35       		.byte	0x35
 6344 0780 9F       		.byte	0x9f
 6345 0781 02010000 		.4byte	.LVL150
 6346 0785 20010000 		.4byte	.LVL151
 6347 0789 0100     		.2byte	0x1
 6348 078b 54       		.byte	0x54
 6349 078c 20010000 		.4byte	.LVL151
 6350 0790 26010000 		.4byte	.LVL152
 6351 0794 0100     		.2byte	0x1
 6352 0796 53       		.byte	0x53
 6353 0797 26010000 		.4byte	.LVL152
 6354 079b 28010000 		.4byte	.LVL153
 6355 079f 0300     		.2byte	0x3
 6356 07a1 73       		.byte	0x73
 6357 07a2 7F       		.sleb128 -1
 6358 07a3 9F       		.byte	0x9f
 6359 07a4 28010000 		.4byte	.LVL153
 6360 07a8 34010000 		.4byte	.LVL154
 6361 07ac 0100     		.2byte	0x1
 6362 07ae 53       		.byte	0x53
 6363 07af 34010000 		.4byte	.LVL154
 6364 07b3 42010000 		.4byte	.LVL156
 6365 07b7 0100     		.2byte	0x1
 6366 07b9 54       		.byte	0x54
 6367 07ba 42010000 		.4byte	.LVL156
 6368 07be 44010000 		.4byte	.LVL157
 6369 07c2 0300     		.2byte	0x3
 6370 07c4 74       		.byte	0x74
 6371 07c5 7F       		.sleb128 -1
 6372 07c6 9F       		.byte	0x9f
 6373 07c7 44010000 		.4byte	.LVL157
 6374 07cb 74010000 		.4byte	.LVL164
 6375 07cf 0100     		.2byte	0x1
ARM GAS  C:\Users\RECEPC~1\AppData\Local\Temp\ccIFDC7N.s 			page 129


 6376 07d1 54       		.byte	0x54
 6377 07d2 74010000 		.4byte	.LVL164
 6378 07d6 7A010000 		.4byte	.LVL165
 6379 07da 0100     		.2byte	0x1
 6380 07dc 53       		.byte	0x53
 6381 07dd 7A010000 		.4byte	.LVL165
 6382 07e1 7C010000 		.4byte	.LVL166
 6383 07e5 0300     		.2byte	0x3
 6384 07e7 73       		.byte	0x73
 6385 07e8 7F       		.sleb128 -1
 6386 07e9 9F       		.byte	0x9f
 6387 07ea 7C010000 		.4byte	.LVL166
 6388 07ee 88010000 		.4byte	.LVL167
 6389 07f2 0100     		.2byte	0x1
 6390 07f4 53       		.byte	0x53
 6391 07f5 88010000 		.4byte	.LVL167
 6392 07f9 96010000 		.4byte	.LVL169
 6393 07fd 0100     		.2byte	0x1
 6394 07ff 54       		.byte	0x54
 6395 0800 96010000 		.4byte	.LVL169
 6396 0804 98010000 		.4byte	.LVL170
 6397 0808 0300     		.2byte	0x3
 6398 080a 74       		.byte	0x74
 6399 080b 7F       		.sleb128 -1
 6400 080c 9F       		.byte	0x9f
 6401 080d 98010000 		.4byte	.LVL170
 6402 0811 C4010000 		.4byte	.LVL176
 6403 0815 0100     		.2byte	0x1
 6404 0817 54       		.byte	0x54
 6405 0818 C4010000 		.4byte	.LVL176
 6406 081c CA010000 		.4byte	.LVL177
 6407 0820 0100     		.2byte	0x1
 6408 0822 53       		.byte	0x53
 6409 0823 CA010000 		.4byte	.LVL177
 6410 0827 CC010000 		.4byte	.LVL178
 6411 082b 0300     		.2byte	0x3
 6412 082d 73       		.byte	0x73
 6413 082e 7F       		.sleb128 -1
 6414 082f 9F       		.byte	0x9f
 6415 0830 CC010000 		.4byte	.LVL178
 6416 0834 D8010000 		.4byte	.LVL179
 6417 0838 0100     		.2byte	0x1
 6418 083a 53       		.byte	0x53
 6419 083b D8010000 		.4byte	.LVL179
 6420 083f E6010000 		.4byte	.LVL181
 6421 0843 0100     		.2byte	0x1
 6422 0845 54       		.byte	0x54
 6423 0846 E6010000 		.4byte	.LVL181
 6424 084a E8010000 		.4byte	.LVL182
 6425 084e 0300     		.2byte	0x3
 6426 0850 74       		.byte	0x74
 6427 0851 7F       		.sleb128 -1
 6428 0852 9F       		.byte	0x9f
 6429 0853 E8010000 		.4byte	.LVL182
 6430 0857 FE010000 		.4byte	.LVL187
 6431 085b 0100     		.2byte	0x1
 6432 085d 54       		.byte	0x54
ARM GAS  C:\Users\RECEPC~1\AppData\Local\Temp\ccIFDC7N.s 			page 130


 6433 085e FE010000 		.4byte	.LVL187
 6434 0862 16020000 		.4byte	.LVL189
 6435 0866 0200     		.2byte	0x2
 6436 0868 35       		.byte	0x35
 6437 0869 9F       		.byte	0x9f
 6438 086a 16020000 		.4byte	.LVL189
 6439 086e 1A020000 		.4byte	.LVL190
 6440 0872 0200     		.2byte	0x2
 6441 0874 36       		.byte	0x36
 6442 0875 9F       		.byte	0x9f
 6443 0876 1A020000 		.4byte	.LVL190
 6444 087a 20020000 		.4byte	.LVL191
 6445 087e 0200     		.2byte	0x2
 6446 0880 37       		.byte	0x37
 6447 0881 9F       		.byte	0x9f
 6448 0882 20020000 		.4byte	.LVL191
 6449 0886 24020000 		.4byte	.LVL192
 6450 088a 0200     		.2byte	0x2
 6451 088c 38       		.byte	0x38
 6452 088d 9F       		.byte	0x9f
 6453 088e 24020000 		.4byte	.LVL192
 6454 0892 2A020000 		.4byte	.LVL194
 6455 0896 0200     		.2byte	0x2
 6456 0898 39       		.byte	0x39
 6457 0899 9F       		.byte	0x9f
 6458 089a 2A020000 		.4byte	.LVL194
 6459 089e 30020000 		.4byte	.LVL195
 6460 08a2 0100     		.2byte	0x1
 6461 08a4 54       		.byte	0x54
 6462 08a5 32020000 		.4byte	.LVL196
 6463 08a9 4E020000 		.4byte	.LVL198
 6464 08ad 0100     		.2byte	0x1
 6465 08af 54       		.byte	0x54
 6466 08b0 50020000 		.4byte	.LVL199
 6467 08b4 66020000 		.4byte	.LVL204
 6468 08b8 0100     		.2byte	0x1
 6469 08ba 54       		.byte	0x54
 6470 08bb 68020000 		.4byte	.LVL205
 6471 08bf 80020000 		.4byte	.LVL210
 6472 08c3 0100     		.2byte	0x1
 6473 08c5 54       		.byte	0x54
 6474 08c6 82020000 		.4byte	.LVL211
 6475 08ca 94020000 		.4byte	.LVL214
 6476 08ce 0100     		.2byte	0x1
 6477 08d0 54       		.byte	0x54
 6478 08d1 96020000 		.4byte	.LVL215
 6479 08d5 AC020000 		.4byte	.LVL218
 6480 08d9 0100     		.2byte	0x1
 6481 08db 54       		.byte	0x54
 6482 08dc AE020000 		.4byte	.LVL219
 6483 08e0 E4020000 		.4byte	.LVL224
 6484 08e4 0100     		.2byte	0x1
 6485 08e6 54       		.byte	0x54
 6486 08e7 E6020000 		.4byte	.LVL225
 6487 08eb FE020000 		.4byte	.LVL230
 6488 08ef 0100     		.2byte	0x1
 6489 08f1 54       		.byte	0x54
ARM GAS  C:\Users\RECEPC~1\AppData\Local\Temp\ccIFDC7N.s 			page 131


 6490 08f2 FE020000 		.4byte	.LVL230
 6491 08f6 00030000 		.4byte	.LVL231
 6492 08fa 0200     		.2byte	0x2
 6493 08fc 35       		.byte	0x35
 6494 08fd 9F       		.byte	0x9f
 6495 08fe 00030000 		.4byte	.LVL231
 6496 0902 20030000 		.4byte	.LVL233
 6497 0906 0100     		.2byte	0x1
 6498 0908 54       		.byte	0x54
 6499 0909 20030000 		.4byte	.LVL233
 6500 090d 26030000 		.4byte	.LVL234
 6501 0911 0100     		.2byte	0x1
 6502 0913 53       		.byte	0x53
 6503 0914 26030000 		.4byte	.LVL234
 6504 0918 28030000 		.4byte	.LVL235
 6505 091c 0300     		.2byte	0x3
 6506 091e 73       		.byte	0x73
 6507 091f 7F       		.sleb128 -1
 6508 0920 9F       		.byte	0x9f
 6509 0921 28030000 		.4byte	.LVL235
 6510 0925 30030000 		.4byte	.LVL236
 6511 0929 0100     		.2byte	0x1
 6512 092b 53       		.byte	0x53
 6513 092c 30030000 		.4byte	.LVL236
 6514 0930 32030000 		.4byte	.LVL237
 6515 0934 0300     		.2byte	0x3
 6516 0936 73       		.byte	0x73
 6517 0937 7F       		.sleb128 -1
 6518 0938 9F       		.byte	0x9f
 6519 0939 32030000 		.4byte	.LVL237
 6520 093d 38030000 		.4byte	.LVL238
 6521 0941 0100     		.2byte	0x1
 6522 0943 53       		.byte	0x53
 6523 0944 38030000 		.4byte	.LVL238
 6524 0948 3A030000 		.4byte	.LVL239
 6525 094c 0300     		.2byte	0x3
 6526 094e 73       		.byte	0x73
 6527 094f 7F       		.sleb128 -1
 6528 0950 9F       		.byte	0x9f
 6529 0951 3A030000 		.4byte	.LVL239
 6530 0955 44030000 		.4byte	.LVL241
 6531 0959 0100     		.2byte	0x1
 6532 095b 54       		.byte	0x54
 6533 095c 46030000 		.4byte	.LVL242
 6534 0960 64030000 		.4byte	.LVL244
 6535 0964 0100     		.2byte	0x1
 6536 0966 54       		.byte	0x54
 6537 0967 66030000 		.4byte	.LVL245
 6538 096b 7C030000 		.4byte	.LVL250
 6539 096f 0100     		.2byte	0x1
 6540 0971 54       		.byte	0x54
 6541 0972 7E030000 		.4byte	.LVL251
 6542 0976 98030000 		.4byte	.LVL256
 6543 097a 0100     		.2byte	0x1
 6544 097c 54       		.byte	0x54
 6545 097d 9A030000 		.4byte	.LVL257
 6546 0981 AC030000 		.4byte	.LVL260
ARM GAS  C:\Users\RECEPC~1\AppData\Local\Temp\ccIFDC7N.s 			page 132


 6547 0985 0100     		.2byte	0x1
 6548 0987 54       		.byte	0x54
 6549 0988 AE030000 		.4byte	.LVL261
 6550 098c C6030000 		.4byte	.LVL264
 6551 0990 0100     		.2byte	0x1
 6552 0992 54       		.byte	0x54
 6553 0993 C8030000 		.4byte	.LVL265
 6554 0997 E2030000 		.4byte	.LVL270
 6555 099b 0100     		.2byte	0x1
 6556 099d 54       		.byte	0x54
 6557 099e E4030000 		.4byte	.LVL271
 6558 09a2 10040000 		.4byte	.LVL278
 6559 09a6 0100     		.2byte	0x1
 6560 09a8 54       		.byte	0x54
 6561 09a9 10040000 		.4byte	.LVL278
 6562 09ad 26040000 		.4byte	.LVL283
 6563 09b1 0100     		.2byte	0x1
 6564 09b3 55       		.byte	0x55
 6565 09b4 26040000 		.4byte	.LVL283
 6566 09b8 68040000 		.4byte	.LVL291
 6567 09bc 0200     		.2byte	0x2
 6568 09be 35       		.byte	0x35
 6569 09bf 9F       		.byte	0x9f
 6570 09c0 68040000 		.4byte	.LVL291
 6571 09c4 6C040000 		.4byte	.LVL292
 6572 09c8 0200     		.2byte	0x2
 6573 09ca 36       		.byte	0x36
 6574 09cb 9F       		.byte	0x9f
 6575 09cc 6C040000 		.4byte	.LVL292
 6576 09d0 70040000 		.4byte	.LVL293
 6577 09d4 0200     		.2byte	0x2
 6578 09d6 37       		.byte	0x37
 6579 09d7 9F       		.byte	0x9f
 6580 09d8 70040000 		.4byte	.LVL293
 6581 09dc 72040000 		.4byte	.LVL294
 6582 09e0 0200     		.2byte	0x2
 6583 09e2 38       		.byte	0x38
 6584 09e3 9F       		.byte	0x9f
 6585 09e4 72040000 		.4byte	.LVL294
 6586 09e8 B4040000 		.4byte	.LVL301
 6587 09ec 0100     		.2byte	0x1
 6588 09ee 54       		.byte	0x54
 6589 09ef B4040000 		.4byte	.LVL301
 6590 09f3 BA040000 		.4byte	.LVL302
 6591 09f7 0100     		.2byte	0x1
 6592 09f9 53       		.byte	0x53
 6593 09fa BA040000 		.4byte	.LVL302
 6594 09fe BC040000 		.4byte	.LVL303
 6595 0a02 0300     		.2byte	0x3
 6596 0a04 73       		.byte	0x73
 6597 0a05 7F       		.sleb128 -1
 6598 0a06 9F       		.byte	0x9f
 6599 0a07 BC040000 		.4byte	.LVL303
 6600 0a0b C2040000 		.4byte	.LVL304
 6601 0a0f 0100     		.2byte	0x1
 6602 0a11 53       		.byte	0x53
 6603 0a12 C2040000 		.4byte	.LVL304
ARM GAS  C:\Users\RECEPC~1\AppData\Local\Temp\ccIFDC7N.s 			page 133


 6604 0a16 C4040000 		.4byte	.LVL305
 6605 0a1a 0300     		.2byte	0x3
 6606 0a1c 73       		.byte	0x73
 6607 0a1d 7F       		.sleb128 -1
 6608 0a1e 9F       		.byte	0x9f
 6609 0a1f C4040000 		.4byte	.LVL305
 6610 0a23 06050000 		.4byte	.LVL312
 6611 0a27 0100     		.2byte	0x1
 6612 0a29 54       		.byte	0x54
 6613 0a2a 06050000 		.4byte	.LVL312
 6614 0a2e 0C050000 		.4byte	.LVL313
 6615 0a32 0100     		.2byte	0x1
 6616 0a34 53       		.byte	0x53
 6617 0a35 0C050000 		.4byte	.LVL313
 6618 0a39 0E050000 		.4byte	.LVL314
 6619 0a3d 0300     		.2byte	0x3
 6620 0a3f 73       		.byte	0x73
 6621 0a40 7F       		.sleb128 -1
 6622 0a41 9F       		.byte	0x9f
 6623 0a42 0E050000 		.4byte	.LVL314
 6624 0a46 14050000 		.4byte	.LVL315
 6625 0a4a 0100     		.2byte	0x1
 6626 0a4c 53       		.byte	0x53
 6627 0a4d 14050000 		.4byte	.LVL315
 6628 0a51 16050000 		.4byte	.LVL316
 6629 0a55 0300     		.2byte	0x3
 6630 0a57 73       		.byte	0x73
 6631 0a58 7F       		.sleb128 -1
 6632 0a59 9F       		.byte	0x9f
 6633 0a5a 16050000 		.4byte	.LVL316
 6634 0a5e 58050000 		.4byte	.LVL323
 6635 0a62 0100     		.2byte	0x1
 6636 0a64 54       		.byte	0x54
 6637 0a65 58050000 		.4byte	.LVL323
 6638 0a69 5E050000 		.4byte	.LVL324
 6639 0a6d 0100     		.2byte	0x1
 6640 0a6f 53       		.byte	0x53
 6641 0a70 5E050000 		.4byte	.LVL324
 6642 0a74 60050000 		.4byte	.LVL325
 6643 0a78 0300     		.2byte	0x3
 6644 0a7a 73       		.byte	0x73
 6645 0a7b 7F       		.sleb128 -1
 6646 0a7c 9F       		.byte	0x9f
 6647 0a7d 60050000 		.4byte	.LVL325
 6648 0a81 66050000 		.4byte	.LVL326
 6649 0a85 0100     		.2byte	0x1
 6650 0a87 53       		.byte	0x53
 6651 0a88 66050000 		.4byte	.LVL326
 6652 0a8c 68050000 		.4byte	.LVL327
 6653 0a90 0300     		.2byte	0x3
 6654 0a92 73       		.byte	0x73
 6655 0a93 7F       		.sleb128 -1
 6656 0a94 9F       		.byte	0x9f
 6657 0a95 68050000 		.4byte	.LVL327
 6658 0a99 78050000 		.4byte	.LVL329
 6659 0a9d 0100     		.2byte	0x1
 6660 0a9f 54       		.byte	0x54
ARM GAS  C:\Users\RECEPC~1\AppData\Local\Temp\ccIFDC7N.s 			page 134


 6661 0aa0 78050000 		.4byte	.LVL329
 6662 0aa4 A0050000 		.4byte	.LVL334
 6663 0aa8 0100     		.2byte	0x1
 6664 0aaa 55       		.byte	0x55
 6665 0aab A0050000 		.4byte	.LVL334
 6666 0aaf BC070000 		.4byte	.LVL400
 6667 0ab3 0200     		.2byte	0x2
 6668 0ab5 35       		.byte	0x35
 6669 0ab6 9F       		.byte	0x9f
 6670 0ab7 00000000 		.4byte	0
 6671 0abb 00000000 		.4byte	0
 6672              	.LLST10:
 6673 0abf 24020000 		.4byte	.LVL192
 6674 0ac3 2A020000 		.4byte	.LVL194
 6675 0ac7 0200     		.2byte	0x2
 6676 0ac9 31       		.byte	0x31
 6677 0aca 9F       		.byte	0x9f
 6678 0acb 2A020000 		.4byte	.LVL194
 6679 0acf F0020000 		.4byte	.LVL228
 6680 0ad3 0100     		.2byte	0x1
 6681 0ad5 52       		.byte	0x52
 6682 0ad6 F2020000 		.4byte	.LVL229
 6683 0ada FE020000 		.4byte	.LVL230
 6684 0ade 0100     		.2byte	0x1
 6685 0ae0 52       		.byte	0x52
 6686 0ae1 3A030000 		.4byte	.LVL239
 6687 0ae5 3E030000 		.4byte	.LVL240
 6688 0ae9 0200     		.2byte	0x2
 6689 0aeb 31       		.byte	0x31
 6690 0aec 9F       		.byte	0x9f
 6691 0aed 3E030000 		.4byte	.LVL240
 6692 0af1 EE030000 		.4byte	.LVL274
 6693 0af5 0100     		.2byte	0x1
 6694 0af7 52       		.byte	0x52
 6695 0af8 F0030000 		.4byte	.LVL275
 6696 0afc FA030000 		.4byte	.LVL276
 6697 0b00 0100     		.2byte	0x1
 6698 0b02 52       		.byte	0x52
 6699 0b03 00000000 		.4byte	0
 6700 0b07 00000000 		.4byte	0
 6701              		.section	.debug_aranges,"",%progbits
 6702 0000 34000000 		.4byte	0x34
 6703 0004 0200     		.2byte	0x2
 6704 0006 00000000 		.4byte	.Ldebug_info0
 6705 000a 04       		.byte	0x4
 6706 000b 00       		.byte	0
 6707 000c 0000     		.2byte	0
 6708 000e 0000     		.2byte	0
 6709 0010 00000000 		.4byte	.LFB63
 6710 0014 34000000 		.4byte	.LFE63-.LFB63
 6711 0018 00000000 		.4byte	.LFB65
 6712 001c E4020000 		.4byte	.LFE65-.LFB65
 6713 0020 00000000 		.4byte	.LFB66
 6714 0024 F8020000 		.4byte	.LFE66-.LFB66
 6715 0028 00000000 		.4byte	.LFB64
 6716 002c FC070000 		.4byte	.LFE64-.LFB64
 6717 0030 00000000 		.4byte	0
ARM GAS  C:\Users\RECEPC~1\AppData\Local\Temp\ccIFDC7N.s 			page 135


 6718 0034 00000000 		.4byte	0
 6719              		.section	.debug_ranges,"",%progbits
 6720              	.Ldebug_ranges0:
 6721 0000 00000000 		.4byte	.LFB63
 6722 0004 34000000 		.4byte	.LFE63
 6723 0008 00000000 		.4byte	.LFB65
 6724 000c E4020000 		.4byte	.LFE65
 6725 0010 00000000 		.4byte	.LFB66
 6726 0014 F8020000 		.4byte	.LFE66
 6727 0018 00000000 		.4byte	.LFB64
 6728 001c FC070000 		.4byte	.LFE64
 6729 0020 00000000 		.4byte	0
 6730 0024 00000000 		.4byte	0
 6731              		.section	.debug_line,"",%progbits
 6732              	.Ldebug_line0:
 6733 0000 5B070000 		.section	.debug_str,"MS",%progbits,1
 6733      0200B001 
 6733      00000201 
 6733      FB0E0D00 
 6733      01010101 
 6734              	.LASF193:
 6735 0000 52465F43 		.ascii	"RF_Connection_ReadRxData\000"
 6735      6F6E6E65 
 6735      6374696F 
 6735      6E5F5265 
 6735      61645278 
 6736              	.LASF191:
 6737 0019 43794465 		.ascii	"CyDelay\000"
 6737      6C617900 
 6738              	.LASF106:
 6739 0021 706F6C6C 		.ascii	"pollingRF_Rx\000"
 6739      696E6752 
 6739      465F5278 
 6739      00
 6740              	.LASF166:
 6741 002e 636F756E 		.ascii	"count_protector2\000"
 6741      745F7072 
 6741      6F746563 
 6741      746F7232 
 6741      00
 6742              	.LASF127:
 6743 003f 64656369 		.ascii	"decimalVolume\000"
 6743      6D616C56 
 6743      6F6C756D 
 6743      6500
 6744              	.LASF138:
 6745 004d 50726576 		.ascii	"PrevStatePump\000"
 6745      53746174 
 6745      6550756D 
 6745      7000
 6746              	.LASF183:
 6747 005b 47726164 		.ascii	"GradesHose\000"
 6747      6573486F 
 6747      736500
 6748              	.LASF110:
 6749 0066 636F756E 		.ascii	"countRX\000"
 6749      74525800 
ARM GAS  C:\Users\RECEPC~1\AppData\Local\Temp\ccIFDC7N.s 			page 136


 6750              	.LASF78:
 6751 006e 52467374 		.ascii	"RFstateReport\000"
 6751      61746552 
 6751      65706F72 
 6751      7400
 6752              	.LASF54:
 6753 007c 766F6C75 		.ascii	"volumeQuota\000"
 6753      6D655175 
 6753      6F746100 
 6754              	.LASF104:
 6755 0088 706F6C6C 		.ascii	"pollingRFA_Tx\000"
 6755      696E6752 
 6755      46415F54 
 6755      7800
 6756              	.LASF156:
 6757 0096 73746174 		.ascii	"statePump\000"
 6757      6550756D 
 6757      7000
 6758              	.LASF63:
 6759 00a0 62756666 		.ascii	"buffer\000"
 6759      657200
 6760              	.LASF173:
 6761 00a7 62756666 		.ascii	"buffer_rf\000"
 6761      65725F72 
 6761      6600
 6762              	.LASF126:
 6763 00b1 64656369 		.ascii	"decimalMoney\000"
 6763      6D616C4D 
 6763      6F6E6579 
 6763      00
 6764              	.LASF33:
 6765 00be 73616C65 		.ascii	"salePerform\000"
 6765      50657266 
 6765      6F726D00 
 6766              	.LASF8:
 6767 00ca 756E7369 		.ascii	"unsigned int\000"
 6767      676E6564 
 6767      20696E74 
 6767      00
 6768              	.LASF161:
 6769 00d7 5072696E 		.ascii	"PrinterType\000"
 6769      74657254 
 6769      79706500 
 6770              	.LASF9:
 6771 00e3 5F5F696E 		.ascii	"__int32_t\000"
 6771      7433325F 
 6771      7400
 6772              	.LASF51:
 6773 00ed 666C6167 		.ascii	"flagLiftHandle\000"
 6773      4C696674 
 6773      48616E64 
 6773      6C6500
 6774              	.LASF80:
 6775 00fc 50554D50 		.ascii	"PUMP_FAIL\000"
 6775      5F464149 
 6775      4C00
 6776              	.LASF132:
ARM GAS  C:\Users\RECEPC~1\AppData\Local\Temp\ccIFDC7N.s 			page 137


 6777 0106 72657369 		.ascii	"residue\000"
 6777      64756500 
 6778              	.LASF144:
 6779 010e 74656D70 		.ascii	"tempPreset\000"
 6779      50726573 
 6779      657400
 6780              	.LASF21:
 6781 0119 69645479 		.ascii	"idType\000"
 6781      706500
 6782              	.LASF155:
 6783 0120 44444D6F 		.ascii	"DDMode\000"
 6783      646500
 6784              	.LASF188:
 6785 0127 73696465 		.ascii	"side\000"
 6785      00
 6786              	.LASF169:
 6787 012c 69645374 		.ascii	"idStation\000"
 6787      6174696F 
 6787      6E00
 6788              	.LASF25:
 6789 0136 73656C65 		.ascii	"selectedSale\000"
 6789      63746564 
 6789      53616C65 
 6789      00
 6790              	.LASF121:
 6791 0143 666C6167 		.ascii	"flagPoint2\000"
 6791      506F696E 
 6791      743200
 6792              	.LASF111:
 6793 014e 636F756E 		.ascii	"countTX\000"
 6793      74545800 
 6794              	.LASF76:
 6795 0156 6368616E 		.ascii	"changePPU\000"
 6795      67655050 
 6795      5500
 6796              	.LASF131:
 6797 0160 73637265 		.ascii	"screen\000"
 6797      656E00
 6798              	.LASF168:
 6799 0167 636F6E74 		.ascii	"controlChar\000"
 6799      726F6C43 
 6799      68617200 
 6800              	.LASF142:
 6801 0173 636F756E 		.ascii	"counterRF\000"
 6801      74657252 
 6801      4600
 6802              	.LASF139:
 6803 017d 506C6174 		.ascii	"PlateRequest\000"
 6803      65526571 
 6803      75657374 
 6803      00
 6804              	.LASF174:
 6805 018a 62756666 		.ascii	"buffer_tx\000"
 6805      65725F74 
 6805      7800
 6806              	.LASF81:
 6807 0194 50554D50 		.ascii	"PUMP_IDLE\000"
ARM GAS  C:\Users\RECEPC~1\AppData\Local\Temp\ccIFDC7N.s 			page 138


 6807      5F49444C 
 6807      4500
 6808              	.LASF14:
 6809 019e 666C6F61 		.ascii	"float\000"
 6809      7400
 6810              	.LASF101:
 6811 01a4 63686563 		.ascii	"checksum\000"
 6811      6B73756D 
 6811      00
 6812              	.LASF146:
 6813 01ad 43477261 		.ascii	"CGrade\000"
 6813      646500
 6814              	.LASF102:
 6815 01b4 696E6465 		.ascii	"index\000"
 6815      7800
 6816              	.LASF197:
 6817 01ba 77726974 		.ascii	"write_fecha\000"
 6817      655F6665 
 6817      63686100 
 6818              	.LASF147:
 6819 01c6 53686966 		.ascii	"ShiftState\000"
 6819      74537461 
 6819      746500
 6820              	.LASF152:
 6821 01d1 4D6F6E65 		.ascii	"MoneyDec\000"
 6821      79446563 
 6821      00
 6822              	.LASF184:
 6823 01da 62756666 		.ascii	"bufferDisplay1\000"
 6823      65724469 
 6823      73706C61 
 6823      793100
 6824              	.LASF72:
 6825 01e9 686F7365 		.ascii	"hose\000"
 6825      00
 6826              	.LASF200:
 6827 01ee 696D7072 		.ascii	"imprimir\000"
 6827      696D6972 
 6827      00
 6828              	.LASF186:
 6829 01f7 62756666 		.ascii	"bufferDisplay3\000"
 6829      65724469 
 6829      73706C61 
 6829      793300
 6830              	.LASF7:
 6831 0206 6C6F6E67 		.ascii	"long long unsigned int\000"
 6831      206C6F6E 
 6831      6720756E 
 6831      7369676E 
 6831      65642069 
 6832              	.LASF94:
 6833 021d 52465F57 		.ascii	"RF_WORKSHIFTREQ\000"
 6833      4F524B53 
 6833      48494654 
 6833      52455100 
 6834              	.LASF86:
 6835 022d 50554D50 		.ascii	"PUMP_FEOT\000"
ARM GAS  C:\Users\RECEPC~1\AppData\Local\Temp\ccIFDC7N.s 			page 139


 6835      5F46454F 
 6835      5400
 6836              	.LASF41:
 6837 0237 746F7461 		.ascii	"totalVolumePrevious\000"
 6837      6C566F6C 
 6837      756D6550 
 6837      72657669 
 6837      6F757300 
 6838              	.LASF167:
 6839 024b 636F6E66 		.ascii	"configAccess\000"
 6839      69674163 
 6839      63657373 
 6839      00
 6840              	.LASF159:
 6841 0258 64696769 		.ascii	"digits\000"
 6841      747300
 6842              	.LASF88:
 6843 025f 5F50554D 		.ascii	"_PUMP_STATES_\000"
 6843      505F5354 
 6843      41544553 
 6843      5F00
 6844              	.LASF129:
 6845 026d 74696D65 		.ascii	"time\000"
 6845      00
 6846              	.LASF192:
 6847 0272 52465F43 		.ascii	"RF_Connection_GetRxBufferSize\000"
 6847      6F6E6E65 
 6847      6374696F 
 6847      6E5F4765 
 6847      74527842 
 6848              	.LASF171:
 6849 0290 7072696E 		.ascii	"printPortA\000"
 6849      74506F72 
 6849      744100
 6850              	.LASF172:
 6851 029b 7072696E 		.ascii	"printPortB\000"
 6851      74506F72 
 6851      744200
 6852              	.LASF36:
 6853 02a6 70726F64 		.ascii	"productType\000"
 6853      75637454 
 6853      79706500 
 6854              	.LASF122:
 6855 02b2 70726F64 		.ascii	"productNumber\000"
 6855      7563744E 
 6855      756D6265 
 6855      7200
 6856              	.LASF133:
 6857 02c0 69645365 		.ascii	"idSeller\000"
 6857      6C6C6572 
 6857      00
 6858              	.LASF22:
 6859 02c9 69645365 		.ascii	"idSerial\000"
 6859      7269616C 
 6859      00
 6860              	.LASF158:
 6861 02d2 6C6F636B 		.ascii	"lockTurn\000"
ARM GAS  C:\Users\RECEPC~1\AppData\Local\Temp\ccIFDC7N.s 			page 140


 6861      5475726E 
 6861      00
 6862              	.LASF113:
 6863 02db 636F756E 		.ascii	"countLCD\000"
 6863      744C4344 
 6863      00
 6864              	.LASF89:
 6865 02e4 5F52465F 		.ascii	"_RF_STATES_\000"
 6865      53544154 
 6865      45535F00 
 6866              	.LASF47:
 6867 02f0 6D696C65 		.ascii	"mileageSale\000"
 6867      61676553 
 6867      616C6500 
 6868              	.LASF58:
 6869 02fc 666C6167 		.ascii	"flagChangePPU\000"
 6869      4368616E 
 6869      67655050 
 6869      5500
 6870              	.LASF60:
 6871 030a 666C6167 		.ascii	"flagActiveSale\000"
 6871      41637469 
 6871      76655361 
 6871      6C6500
 6872              	.LASF114:
 6873 0319 666C6F77 		.ascii	"flowDisplay1\000"
 6873      44697370 
 6873      6C617931 
 6873      00
 6874              	.LASF115:
 6875 0326 666C6F77 		.ascii	"flowDisplay2\000"
 6875      44697370 
 6875      6C617932 
 6875      00
 6876              	.LASF116:
 6877 0333 666C6F77 		.ascii	"flowDisplay3\000"
 6877      44697370 
 6877      6C617933 
 6877      00
 6878              	.LASF117:
 6879 0340 666C6F77 		.ascii	"flowDisplay4\000"
 6879      44697370 
 6879      6C617934 
 6879      00
 6880              	.LASF65:
 6881 034d 746F7461 		.ascii	"totalsHandle\000"
 6881      6C734861 
 6881      6E646C65 
 6881      00
 6882              	.LASF35:
 6883 035a 70726573 		.ascii	"presetValue\000"
 6883      65745661 
 6883      6C756500 
 6884              	.LASF199:
 6885 0366 45455052 		.ascii	"EEPROM_1_ReadByte\000"
 6885      4F4D5F31 
 6885      5F526561 
ARM GAS  C:\Users\RECEPC~1\AppData\Local\Temp\ccIFDC7N.s 			page 141


 6885      64427974 
 6885      6500
 6886              	.LASF48:
 6887 0378 6964656E 		.ascii	"identySale\000"
 6887      74795361 
 6887      6C6500
 6888              	.LASF32:
 6889 0383 73616C65 		.ascii	"saleType\000"
 6889      54797065 
 6889      00
 6890              	.LASF84:
 6891 038c 50554D50 		.ascii	"PUMP_BUSY\000"
 6891      5F425553 
 6891      5900
 6892              	.LASF30:
 6893 0396 76616C75 		.ascii	"valueKeys\000"
 6893      654B6579 
 6893      7300
 6894              	.LASF18:
 6895 03a0 63686172 		.ascii	"char\000"
 6895      00
 6896              	.LASF151:
 6897 03a5 436F6E76 		.ascii	"ConversionFactor\000"
 6897      65727369 
 6897      6F6E4661 
 6897      63746F72 
 6897      00
 6898              	.LASF87:
 6899 03b6 50554D50 		.ascii	"PUMP_STOPPED\000"
 6899      5F53544F 
 6899      50504544 
 6899      00
 6900              	.LASF118:
 6901 03c3 6E756D62 		.ascii	"numberKeys1\000"
 6901      65724B65 
 6901      79733100 
 6902              	.LASF119:
 6903 03cf 6E756D62 		.ascii	"numberKeys2\000"
 6903      65724B65 
 6903      79733200 
 6904              	.LASF103:
 6905 03db 7461626C 		.ascii	"table\000"
 6905      6500
 6906              	.LASF190:
 6907 03e1 52465F43 		.ascii	"RF_Connection_PutChar\000"
 6907      6F6E6E65 
 6907      6374696F 
 6907      6E5F5075 
 6907      74436861 
 6908              	.LASF12:
 6909 03f7 75696E74 		.ascii	"uint16\000"
 6909      313600
 6910              	.LASF130:
 6911 03fe 64617465 		.ascii	"date\000"
 6911      00
 6912              	.LASF75:
 6913 0403 70756D70 		.ascii	"pumpState\000"
ARM GAS  C:\Users\RECEPC~1\AppData\Local\Temp\ccIFDC7N.s 			page 142


 6913      53746174 
 6913      6500
 6914              	.LASF50:
 6915 040d 666C6167 		.ascii	"flagPayment\000"
 6915      5061796D 
 6915      656E7400 
 6916              	.LASF17:
 6917 0419 63686172 		.ascii	"char8\000"
 6917      3800
 6918              	.LASF98:
 6919 041f 52465F5A 		.ascii	"RF_ZERO_SALE\000"
 6919      45524F5F 
 6919      53414C45 
 6919      00
 6920              	.LASF55:
 6921 042c 70707551 		.ascii	"ppuQuota\000"
 6921      756F7461 
 6921      00
 6922              	.LASF99:
 6923 0435 6461746F 		.ascii	"datos\000"
 6923      7300
 6924              	.LASF43:
 6925 043b 746F7461 		.ascii	"totalMoneyAfter\000"
 6925      6C4D6F6E 
 6925      65794166 
 6925      74657200 
 6926              	.LASF202:
 6927 044b 2E5C5246 		.ascii	".\\RFPoll.c\000"
 6927      506F6C6C 
 6927      2E6300
 6928              	.LASF53:
 6929 0456 6D6F6E65 		.ascii	"moneyQuota\000"
 6929      7951756F 
 6929      746100
 6930              	.LASF57:
 6931 0461 7072696E 		.ascii	"printers\000"
 6931      74657273 
 6931      00
 6932              	.LASF141:
 6933 046a 41637469 		.ascii	"ActiveRF\000"
 6933      76655246 
 6933      00
 6934              	.LASF93:
 6935 0473 52465F43 		.ascii	"RF_CREDITSALEAUTH\000"
 6935      52454449 
 6935      5453414C 
 6935      45415554 
 6935      4800
 6936              	.LASF204:
 6937 0485 76657269 		.ascii	"verificar_check\000"
 6937      66696361 
 6937      725F6368 
 6937      65636B00 
 6938              	.LASF67:
 6939 0495 6D6F6E65 		.ascii	"moneySale\000"
 6939      7953616C 
 6939      6500
ARM GAS  C:\Users\RECEPC~1\AppData\Local\Temp\ccIFDC7N.s 			page 143


 6940              	.LASF6:
 6941 049f 6C6F6E67 		.ascii	"long long int\000"
 6941      206C6F6E 
 6941      6720696E 
 6941      7400
 6942              	.LASF198:
 6943 04ad 45455052 		.ascii	"EEPROM_1_WriteByte\000"
 6943      4F4D5F31 
 6943      5F577269 
 6943      74654279 
 6943      746500
 6944              	.LASF69:
 6945 04c0 70707553 		.ascii	"ppuSale\000"
 6945      616C6500 
 6946              	.LASF108:
 6947 04c8 636F756E 		.ascii	"countAnimation1\000"
 6947      74416E69 
 6947      6D617469 
 6947      6F6E3100 
 6948              	.LASF157:
 6949 04d8 4E756D50 		.ascii	"NumPositions\000"
 6949      6F736974 
 6949      696F6E73 
 6949      00
 6950              	.LASF137:
 6951 04e5 73746174 		.ascii	"stateBeagleSoft\000"
 6951      65426561 
 6951      676C6553 
 6951      6F667400 
 6952              	.LASF42:
 6953 04f5 746F7461 		.ascii	"totalPPUPrevious\000"
 6953      6C505055 
 6953      50726576 
 6953      696F7573 
 6953      00
 6954              	.LASF109:
 6955 0506 636F756E 		.ascii	"countAnimation2\000"
 6955      74416E69 
 6955      6D617469 
 6955      6F6E3200 
 6956              	.LASF164:
 6957 0516 74696D65 		.ascii	"timeDownHandle\000"
 6957      446F776E 
 6957      48616E64 
 6957      6C6500
 6958              	.LASF31:
 6959 0525 76656869 		.ascii	"vehicleType\000"
 6959      636C6554 
 6959      79706500 
 6960              	.LASF82:
 6961 0531 50554D50 		.ascii	"PUMP_CALLING\000"
 6961      5F43414C 
 6961      4C494E47 
 6961      00
 6962              	.LASF175:
 6963 053e 62756666 		.ascii	"buffer_txPreset\000"
 6963      65725F74 
ARM GAS  C:\Users\RECEPC~1\AppData\Local\Temp\ccIFDC7N.s 			page 144


 6963      78507265 
 6963      73657400 
 6964              	.LASF49:
 6965 054e 666C6167 		.ascii	"flagKeyboard\000"
 6965      4B657962 
 6965      6F617264 
 6965      00
 6966              	.LASF100:
 6967 055b 73697A65 		.ascii	"size\000"
 6967      00
 6968              	.LASF13:
 6969 0560 75696E74 		.ascii	"uint32\000"
 6969      333200
 6970              	.LASF83:
 6971 0567 50554D50 		.ascii	"PUMP_AUTHORIZED\000"
 6971      5F415554 
 6971      484F5249 
 6971      5A454400 
 6972              	.LASF136:
 6973 0577 666C6167 		.ascii	"flagResetMux\000"
 6973      52657365 
 6973      744D7578 
 6973      00
 6974              	.LASF90:
 6975 0584 52465F49 		.ascii	"RF_IDLE\000"
 6975      444C4500 
 6976              	.LASF45:
 6977 058c 746F7461 		.ascii	"totalPPUAfter\000"
 6977      6C505055 
 6977      41667465 
 6977      7200
 6978              	.LASF194:
 6979 059a 70726963 		.ascii	"priceChange\000"
 6979      65436861 
 6979      6E676500 
 6980              	.LASF28:
 6981 05a6 6B657962 		.ascii	"keyboardWayToPay\000"
 6981      6F617264 
 6981      57617954 
 6981      6F506179 
 6981      00
 6982              	.LASF105:
 6983 05b7 706F6C6C 		.ascii	"pollingRFB_Tx\000"
 6983      696E6752 
 6983      46425F54 
 6983      7800
 6984              	.LASF125:
 6985 05c5 70707578 		.ascii	"ppux10\000"
 6985      313000
 6986              	.LASF40:
 6987 05cc 746F7461 		.ascii	"totalMoneyPrevious\000"
 6987      6C4D6F6E 
 6987      65795072 
 6987      6576696F 
 6987      757300
 6988              	.LASF120:
 6989 05df 666C6167 		.ascii	"flagPoint1\000"
ARM GAS  C:\Users\RECEPC~1\AppData\Local\Temp\ccIFDC7N.s 			page 145


 6989      506F696E 
 6989      743100
 6990              	.LASF26:
 6991 05ea 6D6F6E65 		.ascii	"moneySelectedSale\000"
 6991      7953656C 
 6991      65637465 
 6991      6453616C 
 6991      6500
 6992              	.LASF128:
 6993 05fc 73796D62 		.ascii	"symbols\000"
 6993      6F6C7300 
 6994              	.LASF196:
 6995 0604 77726974 		.ascii	"write_hora\000"
 6995      655F686F 
 6995      726100
 6996              	.LASF163:
 6997 060f 64617465 		.ascii	"dateDownHandle\000"
 6997      446F776E 
 6997      48616E64 
 6997      6C6500
 6998              	.LASF46:
 6999 061e 6C696365 		.ascii	"licenceSale\000"
 6999      6E636553 
 6999      616C6500 
 7000              	.LASF56:
 7001 062a 70726963 		.ascii	"priceConsign\000"
 7001      65436F6E 
 7001      7369676E 
 7001      00
 7002              	.LASF2:
 7003 0637 73686F72 		.ascii	"short int\000"
 7003      7420696E 
 7003      7400
 7004              	.LASF4:
 7005 0641 6C6F6E67 		.ascii	"long int\000"
 7005      20696E74 
 7005      00
 7006              	.LASF162:
 7007 064a 566F6C55 		.ascii	"VolUnit\000"
 7007      6E697400 
 7008              	.LASF140:
 7009 0652 49444361 		.ascii	"IDCast\000"
 7009      737400
 7010              	.LASF107:
 7011 0659 49544D5F 		.ascii	"ITM_RxBuffer\000"
 7011      52784275 
 7011      66666572 
 7011      00
 7012              	.LASF160:
 7013 0666 68696464 		.ascii	"hiddenKeys\000"
 7013      656E4B65 
 7013      797300
 7014              	.LASF61:
 7015 0671 73686966 		.ascii	"shiftId\000"
 7015      74496400 
 7016              	.LASF134:
 7017 0679 74797065 		.ascii	"typeIdSeller\000"
ARM GAS  C:\Users\RECEPC~1\AppData\Local\Temp\ccIFDC7N.s 			page 146


 7017      49645365 
 7017      6C6C6572 
 7017      00
 7018              	.LASF52:
 7019 0686 666C6167 		.ascii	"flagEndSale\000"
 7019      456E6453 
 7019      616C6500 
 7020              	.LASF195:
 7021 0692 67657454 		.ascii	"getTotals\000"
 7021      6F74616C 
 7021      7300
 7022              	.LASF38:
 7023 069c 64617465 		.ascii	"dateLiftHandle\000"
 7023      4C696674 
 7023      48616E64 
 7023      6C6500
 7024              	.LASF73:
 7025 06ab 686F7365 		.ascii	"hoseNumber\000"
 7025      4E756D62 
 7025      657200
 7026              	.LASF185:
 7027 06b6 62756666 		.ascii	"bufferDisplay2\000"
 7027      65724469 
 7027      73706C61 
 7027      793200
 7028              	.LASF95:
 7029 06c5 52465F43 		.ascii	"RF_CREDITSALEREPORT\000"
 7029      52454449 
 7029      5453414C 
 7029      45524550 
 7029      4F525400 
 7030              	.LASF187:
 7031 06d9 62756666 		.ascii	"bufferDisplay4\000"
 7031      65724469 
 7031      73706C61 
 7031      793400
 7032              	.LASF182:
 7033 06e8 436F7069 		.ascii	"CopiasCredito\000"
 7033      61734372 
 7033      65646974 
 7033      6F00
 7034              	.LASF135:
 7035 06f6 70617373 		.ascii	"passwordSeller\000"
 7035      776F7264 
 7035      53656C6C 
 7035      657200
 7036              	.LASF44:
 7037 0705 746F7461 		.ascii	"totalVolumeAfter\000"
 7037      6C566F6C 
 7037      756D6541 
 7037      66746572 
 7037      00
 7038              	.LASF150:
 7039 0716 556E6974 		.ascii	"UnitType\000"
 7039      54797065 
 7039      00
 7040              	.LASF16:
ARM GAS  C:\Users\RECEPC~1\AppData\Local\Temp\ccIFDC7N.s 			page 147


 7041 071f 75696E74 		.ascii	"uint64\000"
 7041      363400
 7042              	.LASF123:
 7043 0726 64656C61 		.ascii	"delayPicture1\000"
 7043      79506963 
 7043      74757265 
 7043      3100
 7044              	.LASF124:
 7045 0734 64656C61 		.ascii	"delayPicture2\000"
 7045      79506963 
 7045      74757265 
 7045      3200
 7046              	.LASF37:
 7047 0742 73746174 		.ascii	"stateMux\000"
 7047      654D7578 
 7047      00
 7048              	.LASF178:
 7049 074b 456E6361 		.ascii	"Encabezado1\000"
 7049      62657A61 
 7049      646F3100 
 7050              	.LASF179:
 7051 0757 456E6361 		.ascii	"Encabezado2\000"
 7051      62657A61 
 7051      646F3200 
 7052              	.LASF180:
 7053 0763 456E6361 		.ascii	"Encabezado3\000"
 7053      62657A61 
 7053      646F3300 
 7054              	.LASF181:
 7055 076f 456E6361 		.ascii	"Encabezado4\000"
 7055      62657A61 
 7055      646F3400 
 7056              	.LASF20:
 7057 077b 73697A65 		.ascii	"sizetype\000"
 7057      74797065 
 7057      00
 7058              	.LASF5:
 7059 0784 6C6F6E67 		.ascii	"long unsigned int\000"
 7059      20756E73 
 7059      69676E65 
 7059      6420696E 
 7059      7400
 7060              	.LASF91:
 7061 0796 52465F44 		.ascii	"RF_DELIVERING\000"
 7061      454C4956 
 7061      4552494E 
 7061      4700
 7062              	.LASF154:
 7063 07a4 50505544 		.ascii	"PPUDec\000"
 7063      656300
 7064              	.LASF71:
 7065 07ab 61637469 		.ascii	"activeHose\000"
 7065      7665486F 
 7065      736500
 7066              	.LASF59:
 7067 07b6 666C6167 		.ascii	"flagPrint\000"
 7067      5072696E 
ARM GAS  C:\Users\RECEPC~1\AppData\Local\Temp\ccIFDC7N.s 			page 148


 7067      7400
 7068              	.LASF10:
 7069 07c0 696E7433 		.ascii	"int32_t\000"
 7069      325F7400 
 7070              	.LASF92:
 7071 07c8 52465F43 		.ascii	"RF_CASHSALEREPORT\000"
 7071      41534853 
 7071      414C4552 
 7071      45504F52 
 7071      5400
 7072              	.LASF19:
 7073 07da 63797374 		.ascii	"cystatus\000"
 7073      61747573 
 7073      00
 7074              	.LASF24:
 7075 07e3 666C6167 		.ascii	"flagWayToPayMixed\000"
 7075      57617954 
 7075      6F506179 
 7075      4D697865 
 7075      6400
 7076              	.LASF1:
 7077 07f5 756E7369 		.ascii	"unsigned char\000"
 7077      676E6564 
 7077      20636861 
 7077      7200
 7078              	.LASF201:
 7079 0803 474E5520 		.ascii	"GNU C 4.9.3 20150303 (release) [ARM/embedded-4_9-br"
 7079      4320342E 
 7079      392E3320 
 7079      32303135 
 7079      30333033 
 7080 0836 616E6368 		.ascii	"anch revision 221220] -mcpu=cortex-m3 -mthumb -g -O"
 7080      20726576 
 7080      6973696F 
 7080      6E203232 
 7080      31323230 
 7081 0869 67202D66 		.ascii	"g -ffunction-sections -ffat-lto-objects\000"
 7081      66756E63 
 7081      74696F6E 
 7081      2D736563 
 7081      74696F6E 
 7082              	.LASF29:
 7083 0891 61757468 		.ascii	"authorizationFlag\000"
 7083      6F72697A 
 7083      6174696F 
 7083      6E466C61 
 7083      6700
 7084              	.LASF97:
 7085 08a3 52465F43 		.ascii	"RF_COPY_RECEIPT\000"
 7085      4F50595F 
 7085      52454345 
 7085      49505400 
 7086              	.LASF79:
 7087 08b3 70756D70 		.ascii	"pump\000"
 7087      00
 7088              	.LASF85:
 7089 08b8 50554D50 		.ascii	"PUMP_PEOT\000"
ARM GAS  C:\Users\RECEPC~1\AppData\Local\Temp\ccIFDC7N.s 			page 149


 7089      5F50454F 
 7089      5400
 7090              	.LASF203:
 7091 08c2 433A5C55 		.ascii	"C:\\Users\\Recepcion\\Documents\\GitHub\\NSY-DH\\Wo"
 7091      73657273 
 7091      5C526563 
 7091      65706369 
 7091      6F6E5C44 
 7092 08ef 726B7370 		.ascii	"rkspace01\\Design01.cydsn\000"
 7092      61636530 
 7092      315C4465 
 7092      7369676E 
 7092      30312E63 
 7093              	.LASF143:
 7094 0908 74656D70 		.ascii	"temporal\000"
 7094      6F72616C 
 7094      00
 7095              	.LASF153:
 7096 0911 566F6C44 		.ascii	"VolDec\000"
 7096      656300
 7097              	.LASF34:
 7098 0918 70726573 		.ascii	"presetType\000"
 7098      65745479 
 7098      706500
 7099              	.LASF96:
 7100 0923 52465F45 		.ascii	"RF_ERROR\000"
 7100      52524F52 
 7100      00
 7101              	.LASF68:
 7102 092c 766F6C75 		.ascii	"volumeSale\000"
 7102      6D655361 
 7102      6C6500
 7103              	.LASF176:
 7104 0937 62756666 		.ascii	"buffer_txEOT\000"
 7104      65725F74 
 7104      78454F54 
 7104      00
 7105              	.LASF177:
 7106 0944 696E7449 		.ascii	"intIDStation\000"
 7106      44537461 
 7106      74696F6E 
 7106      00
 7107              	.LASF62:
 7108 0951 73686966 		.ascii	"shiftPassword\000"
 7108      74506173 
 7108      73776F72 
 7108      6400
 7109              	.LASF0:
 7110 095f 7369676E 		.ascii	"signed char\000"
 7110      65642063 
 7110      68617200 
 7111              	.LASF165:
 7112 096b 636F756E 		.ascii	"count_protector\000"
 7112      745F7072 
 7112      6F746563 
 7112      746F7200 
 7113              	.LASF3:
ARM GAS  C:\Users\RECEPC~1\AppData\Local\Temp\ccIFDC7N.s 			page 150


 7114 097b 73686F72 		.ascii	"short unsigned int\000"
 7114      7420756E 
 7114      7369676E 
 7114      65642069 
 7114      6E7400
 7115              	.LASF112:
 7116 098e 636F756E 		.ascii	"countPump\000"
 7116      7450756D 
 7116      7000
 7117              	.LASF189:
 7118 0998 6D656D63 		.ascii	"memcpy\000"
 7118      707900
 7119              	.LASF70:
 7120 099f 70726F64 		.ascii	"productSale\000"
 7120      75637453 
 7120      616C6500 
 7121              	.LASF11:
 7122 09ab 75696E74 		.ascii	"uint8\000"
 7122      3800
 7123              	.LASF15:
 7124 09b1 646F7562 		.ascii	"double\000"
 7124      6C6500
 7125              	.LASF23:
 7126 09b8 77617954 		.ascii	"wayToPay\000"
 7126      6F506179 
 7126      00
 7127              	.LASF77:
 7128 09c1 67726164 		.ascii	"grade\000"
 7128      6500
 7129              	.LASF39:
 7130 09c7 74696D65 		.ascii	"timeLiftHandle\000"
 7130      4C696674 
 7130      48616E64 
 7130      6C6500
 7131              	.LASF148:
 7132 09d6 73697A65 		.ascii	"sizeSendA\000"
 7132      53656E64 
 7132      4100
 7133              	.LASF149:
 7134 09e0 73697A65 		.ascii	"sizeSendB\000"
 7134      53656E64 
 7134      4200
 7135              	.LASF66:
 7136 09ea 70707541 		.ascii	"ppuAuthorized\000"
 7136      7574686F 
 7136      72697A65 
 7136      6400
 7137              	.LASF27:
 7138 09f8 73657269 		.ascii	"serialSelectedSale\000"
 7138      616C5365 
 7138      6C656374 
 7138      65645361 
 7138      6C6500
 7139              	.LASF64:
 7140 0a0b 706F7369 		.ascii	"position\000"
 7140      74696F6E 
 7140      00
ARM GAS  C:\Users\RECEPC~1\AppData\Local\Temp\ccIFDC7N.s 			page 151


 7141              	.LASF145:
 7142 0a14 74656D70 		.ascii	"tempPPU\000"
 7142      50505500 
 7143              	.LASF170:
 7144 0a1c 70756D70 		.ascii	"pumpGap\000"
 7144      47617000 
 7145              	.LASF74:
 7146 0a24 72665374 		.ascii	"rfState\000"
 7146      61746500 
 7147              	.LASF205:
 7148 0a2c 52465F43 		.ascii	"RF_Connection_ClearRxBuffer\000"
 7148      6F6E6E65 
 7148      6374696F 
 7148      6E5F436C 
 7148      65617252 
 7149              		.ident	"GCC: (GNU Tools for ARM Embedded Processors) 4.9.3 20150303 (release) [ARM/embedded-4_9-br
